ccopy_reg
_reconstructor
p0
(cmarkov_sequences
Markov
p1
c__builtin__
object
p2
Ntp3
Rp4
(dp5
S'after'
p6
I0
sS'state_dict'
p7
(dp8
(F0.0
tp9
(dp10
F0.75
F0.0314
sF1.0
F0.2028
sF2.0
F0.019
sF3.0
F0.0234
sF4.0
F0.0142
sF5.0
F0.002
sF6.0
F0.0084
sF7.0
F0.001
sF8.0
F0.0008
sF9.0
F0.0005
sF10.0
F0.0002
sF12.0
F0.0032
sF15.0
F0.0001
sF18.0
F0.0005
sF20.0
F0.0001
sF21.0
F0.0007
sF0.3333
F0.0015
sF24.0
F0.0001
sF27.0
F0.0002
sF30.0
F0.0001
sF0.5
F0.2405
sF33.0
F0.0003
sF35.0
F0.0001
sF36.0
F0.0002
sF37.0
F0.0001
sF40.0
F0.0002
sF48.0
F0.0001
sF1.5
F0.0477
sF51.0
F0.0001
sF52.0
F0.0002
sF53.0
F0.0002
sF56.0
F0.0001
sF12.75
F0.0002
sF5.75
F0.0012
sF1.75
F0.001
sF72.0
F0.0001
sF75.0
F0.0001
sF84.0
F0.0001
sF2.5
F0.0053
sF0.0833
F0.0194
sF9.5
F0.0002
sF32.5
F0.0001
sF59.75
F0.0001
sF22.5
F0.0001
sF1.6667
F0.0008
sF36.5
F0.0001
sF4.5
F0.0005
sF9.75
F0.0002
sF23.0
F0.0002
sF27.3333
F0.0001
sF154.0
F0.0001
sF156.0
F0.0001
sF11.75
F0.0001
sF45.75
F0.0001
sF177.0
F0.0001
sF6.25
F0.0001
sF26.5
F0.0001
sF3.3333
F0.0007
sF3.75
F0.0002
sF61.25
F0.0001
sF0.3334
F0.0004
sF0.6667
F0.0002
sF6.5
F0.0004
sF128.5
F0.0001
sF11.5
F0.0002
sF1.25
F0.001
sF58.25
F0.0001
sF3.6667
F0.0001
sF57.0
F0.0001
sF48.75
F0.0001
sF239.75
F0.0001
sF18.5
F0.0002
sF3.25
F0.0001
sF2.6667
F0.0002
sF63.0
F0.0002
sF50.6666
F0.0001
sF155.3333
F0.0001
sF5.6667
F0.0002
sF27.5
F0.0001
sF59.6667
F0.0001
sF46.5
F0.0001
sF23.5
F0.0001
sF0.1667
F0.0195
sF2.25
F0.0006
sF51.6667
F0.0001
sF2.75
F0.0003
sF3.5
F0.0009
sF5.5
F0.0005
sF0.25
F0.3438
sssS'mode'
p11
I0
sS'before'
p12
I1
sb.