ccopy_reg
_reconstructor
p0
(cmarkov_sequences
Markov
p1
c__builtin__
object
p2
Ntp3
Rp4
(dp5
S'after'
p6
I0
sS'state_dict'
p7
(dp8
(F0.0
tp9
(dp10
F0.75
F0.03143977246521639
sF1.0
F0.2027826889076793
sF2.0
F0.018986855254054885
sF3.0
F0.02336843723575986
sF4.0
F0.014220923975709125
sF5.0
F0.0019986163425320933
sF6.0
F0.008378814666769159
sF7.0
F0.0009993081712660467
sF8.0
F0.0008455684526097317
sF9.0
F0.000538089015297102
sF10.0
F0.0002306095779844723
sF12.0
F0.0031516642324544548
sF15.0
F7.686985932815743e-05
sF18.0
F0.000538089015297102
sF20.0
F7.686985932815743e-05
sF21.0
F0.0006918287339534168
sF0.3333
F0.0015373971865631486
sF24.0
F7.686985932815743e-05
sF27.0
F0.00015373971865631486
sF30.0
F7.686985932815743e-05
sF0.5
F0.2405257898378046
sF33.0
F0.00030747943731262973
sF35.0
F7.686985932815743e-05
sF36.0
F0.00015373971865631486
sF37.0
F7.686985932815743e-05
sF40.0
F0.00015373971865631486
sF48.0
F7.686985932815743e-05
sF1.5
F0.04765931278345761
sF51.0
F7.686985932815743e-05
sF52.0
F0.00015373971865631486
sF53.0
F0.00015373971865631486
sF56.0
F7.686985932815743e-05
sF12.75
F0.00015373971865631486
sF5.75
F0.0011530478899223614
sF1.75
F0.0009993081712660467
sF72.0
F7.686985932815743e-05
sF75.0
F7.686985932815743e-05
sF84.0
F7.686985932815743e-05
sF2.5
F0.005304020293642863
sF0.0833
F0.019371204550695673
sF9.5
F0.00015373971865631486
sF32.5
F7.686985932815743e-05
sF59.75
F7.686985932815743e-05
sF22.5
F7.686985932815743e-05
sF1.6667
F0.0007686985932815743
sF36.5
F7.686985932815743e-05
sF4.5
F0.0004612191559689446
sF9.75
F0.00015373971865631486
sF23.0
F0.00015373971865631486
sF27.3333
F7.686985932815743e-05
sF154.0
F7.686985932815743e-05
sF156.0
F7.686985932815743e-05
sF11.75
F7.686985932815743e-05
sF45.75
F7.686985932815743e-05
sF177.0
F7.686985932815743e-05
sF6.25
F7.686985932815743e-05
sF26.5
F7.686985932815743e-05
sF3.3333
F0.0006918287339534168
sF3.75
F0.00015373971865631486
sF61.25
F7.686985932815743e-05
sF0.3334
F0.00038434929664078716
sF0.6667
F0.00015373971865631486
sF6.5
F0.00038434929664078716
sF128.5
F7.686985932815743e-05
sF11.5
F0.00015373971865631486
sF1.25
F0.0009993081712660467
sF58.25
F7.686985932815743e-05
sF3.6667
F7.686985932815743e-05
sF57.0
F7.686985932815743e-05
sF48.75
F7.686985932815743e-05
sF239.75
F7.686985932815743e-05
sF18.5
F0.0002306095779844723
sF3.25
F7.686985932815743e-05
sF2.6667
F0.0002306095779844723
sF63.0
F0.00015373971865631486
sF50.6666
F7.686985932815743e-05
sF155.3333
F7.686985932815743e-05
sF5.6667
F0.0002306095779844723
sF27.5
F7.686985932815743e-05
sF59.6667
F7.686985932815743e-05
sF46.5
F7.686985932815743e-05
sF23.5
F7.686985932815743e-05
sF0.1667
F0.019524944269351988
sF2.25
F0.0006149588746252595
sF51.6667
F7.686985932815743e-05
sF2.75
F0.00030747943731262973
sF3.5
F0.0009224383119378892
sF5.5
F0.0004612191559689446
sF0.25
F0.34376201091552
sssS'mode'
p11
I0
sS'before'
p12
I1
sb.