ccopy_reg
_reconstructor
p0
(cmarkov_sequences
Markov
p1
c__builtin__
object
p2
Ntp3
Rp4
(dp5
S'after'
p6
I2
sS'state_dict'
p7
(dp8
(I56
I51
tp9
(dp10
I56
F0.3125
sI58
F0.125
sI66
F0.125
sI51
F0.3125
sI61
F0.125
ss(I46
I42
tp11
(dp12
I47
F1.0
ss(I53
I53
tp13
(dp14
I32
F0.032
sI34
F0.04
sI41
F0.024
sI77
F0.032
sI46
F0.168
sI45
F0.024
sI48
F0.088
sI82
F0.032
sI51
F0.048
sI53
F0.4
sI55
F0.04
sI56
F0.016
sI58
F0.016
sI60
F0.008
sI29
F0.032
ss(I27
I46
tp15
(dp16
I27
F0.5
sI39
F0.5
ss(I57
I50
tp17
(dp18
I64
F0.0909
sI57
F0.1818
sI45
F0.7273
ss(I73
I72
tp19
(dp20
I69
F1.0
ss(I54
I58
tp21
(dp22
I65
F0.0667
sI66
F0.1333
sI68
F0.0667
sI70
F0.1333
sI80
F0.0667
sI54
F0.1333
sI58
F0.1333
sI62
F0.0667
sI63
F0.2
ss(I96
I91
tp23
(dp24
I64
F0.3333
sI67
F0.3333
sI60
F0.3333
ss(I33
I41
tp25
(dp26
I34
F1.0
ss(I62
I36
tp27
(dp28
I69
F0.5
sI62
F0.5
ss(I36
I34
tp29
(dp30
I34
F0.0606
sI36
F0.1818
sI39
F0.0909
sI41
F0.2424
sI48
F0.0606
sI24
F0.1212
sI29
F0.2424
ss(I34
I46
tp31
(dp32
I36
F0.1111
sI41
F0.0556
sI43
F0.1111
sI46
F0.2222
sI48
F0.1111
sI53
F0.2778
sI31
F0.1111
ss(I67
I36
tp33
(dp34
I67
F0.5
sI60
F0.5
ss(I62
I64
tp35
(dp36
I64
F0.0805
sI65
F0.1034
sI67
F0.0575
sI68
F0.0575
sI69
F0.023
sI48
F0.0345
sI49
F0.1379
sI90
F0.023
sI85
F0.0115
sI55
F0.0345
sI57
F0.0575
sI58
F0.0115
sI60
F0.1264
sI61
F0.2414
ss(I77
I76
tp37
(dp38
I67
F0.5
sI79
F0.5
ss(I38
I40
tp39
(dp40
I36
F1.0
ss(I62
I53
tp41
(dp42
I75
F0.0323
sI46
F0.0323
sI53
F0.0968
sI57
F0.0645
sI58
F0.1613
sI60
F0.4516
sI62
F0.129
sI63
F0.0323
ss(I69
I38
tp43
(dp44
I67
F0.0443
sI50
F0.0185
sI38
F0.0148
sI69
F0.4908
sI62
F0.4317
ss(I39
I45
tp45
(dp46
I46
F0.5
sI39
F0.5
ss(I75
I58
tp47
(dp48
I65
F0.2857
sI58
F0.1429
sI74
F0.1429
sI70
F0.1429
sI62
F0.2857
ss(I70
I53
tp49
(dp50
I65
F1.0
ss(I50
I39
tp51
(dp52
I50
F0.1429
sI45
F0.5
sI38
F0.3571
ss(I89
I64
tp53
(dp54
I91
F0.5
sI69
F0.5
ss(I62
I31
tp55
(dp56
I69
F0.5
sI62
F0.5
ss(I36
I22
tp57
(dp58
I24
F0.5
sI36
F0.5
ss(I69
I64
tp59
(dp60
I64
F0.0769
sI65
F0.3462
sI69
F0.0769
sI61
F0.1923
sI85
F0.0385
sI57
F0.1538
sI58
F0.0385
sI90
F0.0769
ss(I66
I66
tp61
(dp62
I65
F0.0625
sI66
F0.125
sI68
F0.0625
sI69
F0.0625
sI70
F0.125
sI80
F0.0625
sI54
F0.125
sI58
F0.3125
sI61
F0.0625
ss(I49
I58
tp63
(dp64
I49
F0.5
sI61
F0.5
ss(I72
I36
tp65
(dp66
I41
F0.5
sI53
F0.5
ss(I45
I61
tp67
(dp68
I64
F1.0
ss(I70
I68
tp69
(dp70
I68
F0.1429
sI69
F0.2857
sI71
F0.1429
sI80
F0.1429
sI81
F0.1429
sI60
F0.1429
ss(I51
I60
tp71
(dp72
I56
F0.3333
sI51
F0.1667
sI53
F0.3333
sI46
F0.0833
sI63
F0.0833
ss(I58
I65
tp73
(dp74
I64
F0.0104
sI65
F0.3005
sI66
F0.0052
sI67
F0.0415
sI70
F0.0259
sI74
F0.0052
sI34
F0.1036
sI46
F0.1036
sI53
F0.0104
sI54
F0.0052
sI55
F0.0155
sI57
F0.0104
sI58
F0.2694
sI60
F0.057
sI62
F0.0259
sI63
F0.0104
ss(I56
I58
tp75
(dp76
I64
F0.069
sI66
F0.0345
sI42
F0.0345
sI51
F0.3448
sI56
F0.1724
sI58
F0.1379
sI60
F0.069
sI61
F0.0345
sI63
F0.1034
ss(I46
I45
tp77
(dp78
I33
F0.0328
sI36
F0.1311
sI39
F0.082
sI45
F0.0328
sI46
F0.1803
sI48
F0.1311
sI50
F0.0164
sI53
F0.082
sI55
F0.0492
sI24
F0.1311
sI60
F0.1311
ss(I53
I62
tp79
(dp80
I48
F0.0833
sI58
F0.5833
sI60
F0.1667
sI53
F0.0833
sI55
F0.0833
ss(I27
I39
tp81
(dp82
I34
F0.0282
sI36
F0.0282
sI39
F0.2042
sI41
F0.2394
sI46
F0.0282
sI48
F0.0282
sI27
F0.2042
sI29
F0.2394
ss(I54
I61
tp83
(dp84
I49
F0.5
sI58
F0.5
ss(I58
I48
tp85
(dp86
I48
F0.3889
sI57
F0.1111
sI60
F0.3889
sI45
F0.1111
ss(I41
I24
tp87
(dp88
I24
F0.5
sI36
F0.5
ss(I29
I37
tp89
(dp90
I53
F0.5
sI29
F0.5
ss(I33
I34
tp91
(dp92
I34
F0.6667
sI46
F0.3333
ss(I72
I73
tp93
(dp94
I64
F0.1667
sI73
F0.1667
sI68
F0.1667
sI70
F0.5
ss(I72
I67
tp95
(dp96
I65
F0.1081
sI66
F0.027
sI67
F0.3243
sI69
F0.027
sI70
F0.027
sI73
F0.027
sI53
F0.2162
sI41
F0.2162
sI62
F0.027
ss(I39
I29
tp97
(dp98
I27
F0.4792
sI39
F0.5208
ss(I36
I41
tp99
(dp100
I26
F0.5
sI38
F0.5
ss(I60
I62
tp101
(dp102
I64
F0.0392
sI65
F0.0523
sI66
F0.0131
sI67
F0.0719
sI70
F0.0131
sI46
F0.0654
sI53
F0.0196
sI55
F0.2745
sI58
F0.1634
sI60
F0.2157
sI61
F0.0065
sI62
F0.0392
sI63
F0.0261
ss(I34
I41
tp103
(dp104
I49
F0.1429
sI34
F0.3571
sI27
F0.0714
sI37
F0.1429
sI46
F0.2857
ss(I41
I34
tp105
(dp106
I33
F0.2222
sI34
F0.2222
sI39
F0.1111
sI43
F0.2222
sI46
F0.1111
sI53
F0.1111
ss(I65
I45
tp107
(dp108
I65
F0.25
sI34
F0.25
sI58
F0.25
sI46
F0.25
ss(I61
I63
tp109
(dp110
I56
F0.3
sI49
F0.1
sI44
F0.1
sI61
F0.2
sI64
F0.3
ss(I77
I69
tp111
(dp112
I60
F0.2
sI74
F0.2
sI68
F0.2
sI62
F0.2
sI63
F0.2
ss(I72
I41
tp113
(dp114
I72
F0.5
sI65
F0.5
ss(I62
I60
tp115
(dp116
I64
F0.0396
sI65
F0.0495
sI68
F0.0495
sI69
F0.099
sI74
F0.0099
sI48
F0.0891
sI55
F0.0396
sI58
F0.0495
sI60
F0.1683
sI62
F0.1089
sI63
F0.297
ss(I43
I52
tp117
(dp118
I43
F0.5
sI36
F0.5
ss(I63
I57
tp119
(dp120
I65
F0.0833
sI57
F0.6667
sI70
F0.0833
sI63
F0.1667
ss(I48
I50
tp121
(dp122
I41
F0.0625
sI43
F0.125
sI46
F0.2813
sI48
F0.1563
sI53
F0.0938
sI58
F0.2813
ss(I36
I29
tp123
(dp124
I26
F0.5
sI38
F0.5
ss(I69
I73
tp125
(dp126
I72
F0.3333
sI77
F0.3333
sI70
F0.3333
ss(I56
I82
tp127
(dp128
I58
F0.5
sI70
F0.5
ss(I43
I69
tp129
(dp130
I67
F0.3333
sI69
F0.5
sI62
F0.1667
ss(I38
I31
tp131
(dp132
I33
F0.0351
sI36
F0.5351
sI45
F0.0175
sI38
F0.3421
sI31
F0.0702
ss(I53
I29
tp133
(dp134
I32
F0.5
sI51
F0.5
ss(I58
I72
tp135
(dp136
I56
F0.25
sI60
F0.25
sI68
F0.25
sI44
F0.25
ss(I22
I22
tp137
(dp138
I29
F1.0
ss(I98
I90
tp139
(dp140
I97
F1.0
ss(I86
I60
tp141
(dp142
I65
F1.0
ss(I62
I79
tp143
(dp144
I65
F0.3333
sI68
F0.3333
sI60
F0.3333
ss(I60
I70
tp145
(dp146
I64
F0.1714
sI65
F0.0286
sI66
F0.0286
sI67
F0.2571
sI70
F0.0571
sI72
F0.0286
sI51
F0.0286
sI58
F0.0571
sI60
F0.2857
sI61
F0.0286
sI63
F0.0286
ss(I57
I60
tp147
(dp148
I58
F0.2857
sI62
F0.1429
sI63
F0.5714
ss(I88
I62
tp149
(dp150
I64
F0.5
sI67
F0.5
ss(I53
I33
tp151
(dp152
I33
F0.3333
sI53
F0.6667
ss(I59
I50
tp153
(dp154
I70
F1.0
ss(I57
I63
tp155
(dp156
I58
F1.0
ss(I57
I38
tp157
(dp158
I64
F0.125
sI57
F0.125
sI45
F0.75
ss(I72
I74
tp159
(dp160
I65
F0.1111
sI58
F0.1111
sI82
F0.1111
sI70
F0.5556
sI63
F0.1111
ss(I60
I53
tp161
(dp162
I36
F0.1905
sI48
F0.1905
sI58
F0.4524
sI60
F0.0714
sI62
F0.0476
sI63
F0.0476
ss(I34
I32
tp163
(dp164
I39
F1.0
ss(I41
I43
tp165
(dp166
I48
F0.037
sI41
F0.4815
sI29
F0.4444
sI38
F0.0185
sI39
F0.0185
ss(I61
I56
tp167
(dp168
I64
F0.129
sI42
F0.0323
sI56
F0.2903
sI58
F0.129
sI61
F0.2903
sI63
F0.129
ss(I74
I64
tp169
(dp170
I72
F0.5
sI84
F0.5
ss(I75
I82
tp171
(dp172
I66
F1.0
ss(I40
I48
tp173
(dp174
I40
F0.25
sI48
F0.25
sI46
F0.25
sI39
F0.25
ss(I53
I82
tp175
(dp176
I58
F0.5
sI53
F0.5
ss(I43
I45
tp177
(dp178
I50
F0.5
sI43
F0.5
ss(I67
I56
tp179
(dp180
I62
F1.0
ss(I53
I55
tp181
(dp182
I64
F0.2917
sI51
F0.1667
sI52
F0.2917
sI55
F0.0833
sI56
F0.0833
sI62
F0.0833
ss(I48
I41
tp183
(dp184
I48
F0.0833
sI41
F0.25
sI50
F0.1667
sI51
F0.25
sI53
F0.25
ss(I69
I50
tp185
(dp186
I67
F0.0446
sI50
F0.0149
sI38
F0.0112
sI69
F0.4944
sI62
F0.4349
ss(I64
I76
tp187
(dp188
I65
F0.5
sI77
F0.5
ss(I80
I54
tp189
(dp190
I82
F0.5
sI70
F0.5
ss(I70
I57
tp191
(dp192
I65
F0.5714
sI70
F0.4286
ss(I44
I68
tp193
(dp194
I60
F1.0
ss(I50
I51
tp195
(dp196
I48
F0.6364
sI58
F0.3636
ss(I49
I37
tp197
(dp198
I29
F0.5
sI53
F0.5
ss(I68
I66
tp199
(dp200
I66
F0.1667
sI67
F0.1667
sI70
F0.1667
sI78
F0.1667
sI79
F0.1667
sI82
F0.1667
ss(I36
I67
tp201
(dp202
I65
F0.1
sI67
F0.3
sI69
F0.1
sI72
F0.1
sI60
F0.3
sI62
F0.1
ss(I45
I64
tp203
(dp204
I64
F0.3556
sI65
F0.1111
sI58
F0.1111
sI33
F0.0667
sI57
F0.3556
ss(I55
I52
tp205
(dp206
I65
F0.0263
sI50
F0.282
sI52
F0.0338
sI53
F0.0263
sI55
F0.3158
sI58
F0.282
sI60
F0.0338
ss(I56
I64
tp207
(dp208
I64
F0.24
sI66
F0.04
sI68
F0.04
sI73
F0.04
sI56
F0.24
sI58
F0.12
sI60
F0.04
sI61
F0.2
sI63
F0.04
ss(I46
I63
tp209
(dp210
I58
F1.0
ss(I70
I72
tp211
(dp212
I65
F0.0833
sI68
F0.25
sI69
F0.125
sI72
F0.125
sI44
F0.0417
sI77
F0.0833
sI84
F0.125
sI56
F0.0833
sI60
F0.0833
ss(I61
I65
tp213
(dp214
I64
F0.4167
sI97
F0.0833
sI69
F0.4167
sI86
F0.0833
ss(I51
I48
tp215
(dp216
I50
F1.0
ss(I57
I69
tp217
(dp218
I64
F0.0323
sI65
F0.1613
sI70
F0.0645
sI45
F0.2581
sI55
F0.0968
sI57
F0.2258
sI62
F0.0968
sI63
F0.0645
ss(I81
I64
tp219
(dp220
I65
F1.0
ss(I34
I65
tp221
(dp222
I64
F0.0333
sI65
F0.3333
sI67
F0.1333
sI57
F0.0333
sI58
F0.3333
sI60
F0.1333
ss(I22
I36
tp223
(dp224
I24
F0.5
sI36
F0.5
ss(I46
I33
tp225
(dp226
I24
F0.4
sI33
F0.1
sI36
F0.4
sI45
F0.1
ss(I27
I43
tp227
(dp228
I27
F0.5
sI39
F0.5
ss(I64
I62
tp229
(dp230
I64
F0.0149
sI65
F0.3433
sI66
F0.0149
sI69
F0.1791
sI97
F0.0149
sI45
F0.0896
sI53
F0.209
sI86
F0.0149
sI57
F0.0149
sI62
F0.1045
ss(I17
I17
tp231
(dp232
I17
F0.381
sI27
F0.119
sI29
F0.381
sI15
F0.119
ss(I65
I63
tp233
(dp234
I66
F0.12
sI67
F0.04
sI68
F0.02
sI70
F0.08
sI75
F0.06
sI53
F0.12
sI56
F0.02
sI58
F0.08
sI59
F0.04
sI60
F0.1
sI62
F0.14
sI63
F0.18
ss(I61
I49
tp235
(dp236
I56
F0.5
sI60
F0.5
ss(I64
I88
tp237
(dp238
I89
F1.0
ss(I74
I75
tp239
(dp240
I66
F0.125
sI69
F0.125
sI70
F0.125
sI73
F0.125
sI74
F0.125
sI75
F0.125
sI58
F0.125
sI63
F0.125
ss(I66
I60
tp241
(dp242
I64
F0.1111
sI65
F0.1111
sI56
F0.1111
sI58
F0.3889
sI61
F0.1667
sI62
F0.1111
ss(I40
I55
tp243
(dp244
I40
F0.5
sI48
F0.5
ss(I62
I46
tp245
(dp246
I60
F1.0
ss(I36
I37
tp247
(dp248
I34
F1.0
ss(I43
I34
tp249
(dp250
I41
F0.5
sI29
F0.5
ss(I65
I81
tp251
(dp252
I74
F0.3333
sI62
F0.6667
ss(I79
I65
tp253
(dp254
I64
F0.125
sI67
F0.125
sI68
F0.25
sI76
F0.125
sI79
F0.125
sI80
F0.25
ss(I77
I81
tp255
(dp256
I74
F0.5
sI62
F0.5
ss(I48
I32
tp257
(dp258
I48
F0.5
sI36
F0.5
ss(I36
I27
tp259
(dp260
I48
F0.25
sI24
F0.25
sI36
F0.5
ss(I34
I15
tp261
(dp262
I27
F0.5
sI15
F0.5
ss(I49
I45
tp263
(dp264
I64
F0.5
sI52
F0.5
ss(I64
I67
tp265
(dp266
I64
F0.25
sI60
F0.25
sI76
F0.25
sI55
F0.25
ss(I65
I75
tp267
(dp268
I66
F0.25
sI70
F0.1667
sI75
F0.0833
sI54
F0.0833
sI58
F0.25
sI63
F0.1667
ss(I91
I93
tp269
(dp270
I90
F0.5
sI93
F0.5
ss(I74
I63
tp271
(dp272
I66
F0.1429
sI69
F0.1429
sI70
F0.1429
sI74
F0.1429
sI75
F0.1429
sI58
F0.1429
sI63
F0.1429
ss(I68
I73
tp273
(dp274
I64
F0.2
sI73
F0.2
sI75
F0.2
sI76
F0.2
sI68
F0.2
ss(I69
I69
tp275
(dp276
I64
F0.0059
sI65
F0.0052
sI67
F0.1071
sI69
F0.3651
sI70
F0.0022
sI97
F0.0007
sI74
F0.0015
sI43
F0.0268
sI76
F0.0007
sI45
F0.0089
sI33
F0.0089
sI50
F0.1071
sI86
F0.0007
sI57
F0.0089
sI58
F0.003
sI38
F0.0996
sI62
F0.2208
sI31
F0.0268
ss(I75
I62
tp277
(dp278
I65
F0.25
sI70
F0.125
sI73
F0.125
sI74
F0.125
sI58
F0.125
sI62
F0.25
ss(I56
I70
tp279
(dp280
I42
F0.25
sI58
F0.5
sI70
F0.25
ss(I80
I67
tp281
(dp282
I65
F0.25
sI67
F0.25
sI77
F0.25
sI79
F0.25
ss(I93
I95
tp283
(dp284
I98
F0.3333
sI91
F0.6667
ss(I46
I70
tp285
(dp286
I62
F1.0
ss(I70
I67
tp287
(dp288
I65
F0.2121
sI67
F0.0303
sI68
F0.1818
sI69
F0.0606
sI70
F0.0303
sI46
F0.0606
sI80
F0.0303
sI53
F0.0606
sI55
F0.0303
sI58
F0.0303
sI60
F0.1818
sI62
F0.0909
ss(I58
I68
tp289
(dp290
I65
F0.2
sI49
F0.1
sI58
F0.3
sI59
F0.1
sI60
F0.1
sI62
F0.2
ss(I84
I82
tp291
(dp292
I82
F0.25
sI84
F0.25
sI86
F0.25
sI70
F0.25
ss(I90
I62
tp293
(dp294
I98
F1.0
ss(I56
I53
tp295
(dp296
I56
F0.381
sI53
F0.5714
sI63
F0.0476
ss(I46
I40
tp297
(dp298
I46
F0.5
sI39
F0.5
ss(I62
I70
tp299
(dp300
I65
F0.2105
sI66
F0.1053
sI67
F0.1053
sI70
F0.1053
sI75
F0.0526
sI57
F0.0526
sI58
F0.1053
sI60
F0.1053
sI62
F0.0526
sI63
F0.1053
ss(I33
I53
tp301
(dp302
I53
F0.6667
sI45
F0.3333
ss(I57
I48
tp303
(dp304
I68
F1.0
ss(I84
I84
tp305
(dp306
I88
F1.0
ss(I73
I78
tp307
(dp308
I70
F1.0
ss(I54
I56
tp309
(dp310
I58
F1.0
ss(I58
I55
tp311
(dp312
I50
F0.0744
sI52
F0.0926
sI55
F0.33
sI58
F0.2475
sI60
F0.0926
sI62
F0.163
ss(I31
I46
tp313
(dp314
I41
F0.5
sI29
F0.5
ss(I75
I64
tp315
(dp316
I73
F0.3333
sI66
F0.3333
sI70
F0.3333
ss(I67
I80
tp317
(dp318
I65
F0.25
sI70
F0.125
sI75
F0.125
sI77
F0.25
sI82
F0.125
sI63
F0.125
ss(I67
I38
tp319
(dp320
I67
F0.5
sI69
F0.5
ss(I90
I91
tp321
(dp322
I88
F1.0
ss(I48
I39
tp323
(dp324
I48
F0.5
sI36
F0.5
ss(I37
I37
tp325
(dp326
I29
F0.5
sI53
F0.5
ss(I45
I33
tp327
(dp328
I33
F0.4
sI34
F0.1
sI53
F0.4
sI46
F0.1
ss(I69
I36
tp329
(dp330
I69
F0.5
sI62
F0.5
ss(I15
I24
tp331
(dp332
I27
F0.5
sI15
F0.5
ss(I64
I68
tp333
(dp334
I65
F0.2778
sI68
F0.0556
sI70
F0.2778
sI72
F0.0556
sI75
F0.0556
sI62
F0.2778
ss(I65
I76
tp335
(dp336
I67
F0.5
sI79
F0.5
ss(I96
I70
tp337
(dp338
I64
F0.3333
sI67
F0.3333
sI91
F0.3333
ss(I44
I58
tp339
(dp340
I51
F0.6667
sI61
F0.3333
ss(I41
I72
tp341
(dp342
I72
F0.3333
sI65
F0.3333
sI67
F0.1667
sI60
F0.1667
ss(I69
I93
tp343
(dp344
I65
F1.0
ss(I66
I64
tp345
(dp346
I74
F0.375
sI67
F0.5
sI61
F0.125
ss(I80
I58
tp347
(dp348
I82
F0.5
sI70
F0.5
ss(I98
I93
tp349
(dp350
I91
F1.0
ss(I71
I72
tp351
(dp352
I72
F0.25
sI74
F0.25
sI70
F0.25
sI79
F0.25
ss(I77
I53
tp353
(dp354
I68
F0.0909
sI72
F0.0909
sI75
F0.1818
sI80
F0.0909
sI53
F0.2727
sI58
F0.2727
ss(I27
I26
tp355
(dp356
I27
F0.5
sI39
F0.5
ss(I64
I63
tp357
(dp358
I64
F0.1667
sI66
F0.1667
sI68
F0.1667
sI72
F0.1667
sI61
F0.1667
sI63
F0.1667
ss(I56
I60
tp359
(dp360
I64
F0.0345
sI66
F0.0345
sI67
F0.0345
sI68
F0.0345
sI51
F0.1379
sI54
F0.0345
sI56
F0.2069
sI60
F0.1724
sI61
F0.0345
sI63
F0.2759
ss(I46
I51
tp361
(dp362
I66
F0.1429
sI46
F0.4286
sI39
F0.4286
ss(I53
I66
tp363
(dp364
I65
F0.5
sI58
F0.5
ss(I53
I60
tp365
(dp366
I77
F0.125
sI53
F0.125
sI57
F0.125
sI58
F0.125
sI60
F0.125
sI62
F0.375
ss(I53
I67
tp367
(dp368
I64
F0.5
sI52
F0.5
ss(I57
I57
tp369
(dp370
I64
F0.1818
sI65
F0.0909
sI70
F0.013
sI33
F0.1515
sI45
F0.1645
sI46
F0.026
sI49
F0.0216
sI55
F0.013
sI57
F0.2165
sI58
F0.0779
sI61
F0.0216
sI62
F0.013
sI63
F0.0087
ss(I58
I62
tp371
(dp372
I65
F0.0537
sI66
F0.0034
sI70
F0.0168
sI74
F0.0034
sI53
F0.0168
sI55
F0.2685
sI58
F0.3087
sI60
F0.0168
sI62
F0.3087
sI63
F0.0034
ss(I55
I58
tp373
(dp374
I48
F0.0079
sI50
F0.0158
sI52
F0.1482
sI53
F0.0059
sI55
F0.3202
sI57
F0.004
sI58
F0.1858
sI60
F0.1522
sI62
F0.1601
ss(I72
I69
tp375
(dp376
I60
F0.3333
sI68
F0.3333
sI63
F0.3333
ss(I64
I34
tp377
(dp378
I64
F0.5
sI57
F0.5
ss(I36
I43
tp379
(dp380
I48
F0.1765
sI34
F0.2353
sI43
F0.1765
sI36
F0.1765
sI22
F0.2353
ss(I60
I56
tp381
(dp382
I64
F0.0588
sI66
F0.1176
sI68
F0.0588
sI73
F0.0588
sI56
F0.0588
sI58
F0.4118
sI60
F0.1176
sI61
F0.0588
sI63
F0.0588
ss(I34
I39
tp383
(dp384
I41
F0.1176
sI27
F0.2353
sI29
F0.2353
sI39
F0.4118
ss(I49
I34
tp385
(dp386
I49
F0.5
sI37
F0.5
ss(I61
I61
tp387
(dp388
I64
F0.2222
sI66
F0.0556
sI56
F0.3333
sI58
F0.0556
sI60
F0.1111
sI61
F0.1111
sI63
F0.1111
ss(I77
I67
tp389
(dp390
I64
F0.1667
sI67
F0.3333
sI76
F0.1667
sI79
F0.3333
ss(I74
I71
tp391
(dp392
I65
F0.3333
sI62
F0.3333
sI70
F0.3333
ss(I63
I64
tp393
(dp394
I64
F0.1538
sI66
F0.0769
sI68
F0.1538
sI73
F0.1538
sI56
F0.0769
sI58
F0.0769
sI60
F0.0769
sI61
F0.1538
sI63
F0.0769
ss(I31
I67
tp395
(dp396
I67
F0.3333
sI69
F0.5
sI62
F0.1667
ss(I45
I26
tp397
(dp398
I33
F0.0833
sI34
F0.4167
sI45
F0.0833
sI46
F0.4167
ss(I63
I54
tp399
(dp400
I58
F1.0
ss(I67
I53
tp401
(dp402
I48
F0.2667
sI57
F0.2333
sI36
F0.2667
sI69
F0.2333
ss(I39
I36
tp403
(dp404
I34
F0.1034
sI27
F0.2759
sI26
F0.1379
sI38
F0.2069
sI39
F0.2759
ss(I65
I69
tp405
(dp406
I64
F0.2174
sI65
F0.0435
sI67
F0.2174
sI70
F0.0652
sI74
F0.0217
sI84
F0.0217
sI55
F0.0652
sI91
F0.0435
sI60
F0.1304
sI61
F0.0435
sI62
F0.087
sI63
F0.0435
ss(I68
I54
tp407
(dp408
I82
F0.5
sI70
F0.5
ss(I55
I65
tp409
(dp410
I57
F0.3333
sI69
F0.2778
sI62
F0.2222
sI55
F0.1667
ss(I15
I15
tp411
(dp412
I34
F0.0465
sI36
F0.0465
sI15
F0.2209
sI17
F0.186
sI22
F0.0465
sI24
F0.0465
sI27
F0.2209
sI29
F0.186
ss(I36
I31
tp413
(dp414
I34
F0.125
sI22
F0.125
sI38
F0.75
ss(I69
I55
tp415
(dp416
I64
F0.0667
sI48
F0.4667
sI60
F0.4667
ss(I49
I49
tp417
(dp418
I60
F0.2
sI29
F0.4
sI53
F0.4
ss(I91
I65
tp419
(dp420
I64
F0.3333
sI67
F0.3333
sI60
F0.3333
ss(I81
I60
tp421
(dp422
I65
F1.0
ss(I27
I24
tp423
(dp424
I26
F0.25
sI27
F0.25
sI38
F0.25
sI15
F0.25
ss(I39
I24
tp425
(dp426
I26
F0.5
sI38
F0.5
ss(I66
I61
tp427
(dp428
I66
F1.0
ss(I46
I58
tp429
(dp430
I64
F0.0333
sI65
F0.3333
sI67
F0.1333
sI57
F0.0333
sI58
F0.3333
sI60
F0.1333
ss(I60
I64
tp431
(dp432
I64
F0.0323
sI65
F0.0968
sI66
F0.0323
sI67
F0.1935
sI68
F0.0323
sI73
F0.0323
sI55
F0.3226
sI58
F0.0323
sI60
F0.1935
sI61
F0.0323
ss(I57
I66
tp433
(dp434
I57
F0.3333
sI45
F0.6667
ss(I58
I57
tp435
(dp436
I65
F0.1687
sI34
F0.1205
sI46
F0.1205
sI48
F0.0723
sI51
F0.012
sI53
F0.012
sI57
F0.2169
sI58
F0.1566
sI60
F0.0964
sI62
F0.0241
ss(I97
I98
tp437
(dp438
I95
F1.0
ss(I62
I75
tp439
(dp440
I66
F0.25
sI75
F0.125
sI58
F0.25
sI70
F0.125
sI63
F0.25
ss(I33
I57
tp441
(dp442
I64
F0.3611
sI65
F0.1389
sI58
F0.1389
sI57
F0.3611
ss(I72
I76
tp443
(dp444
I80
F0.5
sI75
F0.5
ss(I64
I57
tp445
(dp446
I64
F0.2414
sI65
F0.0575
sI33
F0.2011
sI45
F0.2011
sI57
F0.2414
sI58
F0.0575
ss(I86
I76
tp447
(dp448
I72
F0.5
sI84
F0.5
ss(I60
I55
tp449
(dp450
I65
F0.013
sI70
F0.0032
sI74
F0.0032
sI50
F0.1494
sI52
F0.1234
sI55
F0.3214
sI58
F0.1494
sI60
F0.1721
sI62
F0.0649
ss(I41
I41
tp451
(dp452
I34
F0.0172
sI39
F0.0661
sI41
F0.3247
sI43
F0.0805
sI46
F0.0172
sI48
F0.0029
sI50
F0.0172
sI51
F0.0086
sI53
F0.0086
sI55
F0.0057
sI27
F0.0661
sI29
F0.3046
sI31
F0.0805
ss(I65
I36
tp453
(dp454
I41
F0.5
sI53
F0.5
ss(I55
I41
tp455
(dp456
I48
F0.5
sI40
F0.5
ss(I33
I26
tp457
(dp458
I33
F0.0714
sI34
F0.3571
sI38
F0.1429
sI45
F0.0714
sI46
F0.3571
ss(I59
I42
tp459
(dp460
I49
F0.5
sI61
F0.5
ss(I42
I46
tp461
(dp462
I38
F1.0
ss(I72
I82
tp463
(dp464
I66
F0.1111
sI82
F0.4444
sI70
F0.4444
ss(I54
I70
tp465
(dp466
I66
F0.2
sI68
F0.1
sI70
F0.2
sI80
F0.1
sI54
F0.2
sI58
F0.2
ss(I51
I64
tp467
(dp468
I56
F0.5
sI63
F0.5
ss(I34
I24
tp469
(dp470
I24
F0.4
sI41
F0.2
sI36
F0.4
ss(I67
I58
tp471
(dp472
I64
F0.0476
sI65
F0.0476
sI36
F0.381
sI69
F0.0952
sI72
F0.0476
sI48
F0.381
ss(I63
I46
tp473
(dp474
I60
F0.5
sI44
F0.5
ss(I48
I43
tp475
(dp476
I48
F0.1667
sI41
F0.1667
sI50
F0.25
sI36
F0.3333
sI46
F0.0833
ss(I38
I50
tp477
(dp478
I50
F0.1316
sI62
F0.2895
sI45
F0.2105
sI38
F0.0789
sI69
F0.2895
ss(I45
I45
tp479
(dp480
I34
F0.0132
sI38
F0.0395
sI39
F0.0658
sI43
F0.0395
sI45
F0.1711
sI46
F0.2237
sI49
F0.0658
sI50
F0.1316
sI53
F0.1053
sI58
F0.0789
sI61
F0.0658
ss(I69
I48
tp481
(dp482
I69
F0.5
sI62
F0.5
ss(I49
I42
tp483
(dp484
I49
F0.5
sI61
F0.5
ss(I70
I63
tp485
(dp486
I65
F0.0769
sI66
F0.0385
sI70
F0.2692
sI75
F0.0769
sI58
F0.0385
sI62
F0.0769
sI63
F0.4231
ss(I44
I70
tp487
(dp488
I51
F0.5
sI61
F0.5
ss(I50
I49
tp489
(dp490
I64
F0.4615
sI52
F0.4615
sI62
F0.0769
ss(I69
I45
tp491
(dp492
I69
F0.75
sI62
F0.25
ss(I31
I34
tp493
(dp494
I41
F0.0155
sI36
F0.186
sI29
F0.0233
sI38
F0.1705
sI31
F0.6047
ss(I60
I41
tp495
(dp496
I48
F0.5
sI36
F0.5
ss(I27
I17
tp497
(dp498
I27
F0.5
sI15
F0.5
ss(I60
I50
tp499
(dp500
I46
F0.0577
sI50
F0.0513
sI52
F0.2436
sI55
F0.2949
sI58
F0.109
sI60
F0.2436
ss(I24
I46
tp501
(dp502
I41
F0.5
sI29
F0.5
ss(I56
I65
tp503
(dp504
I58
F0.3333
sI66
F0.3333
sI61
F0.3333
ss(I80
I78
tp505
(dp506
I66
F0.25
sI67
F0.25
sI78
F0.25
sI79
F0.25
ss(I29
I27
tp507
(dp508
I41
F0.34
sI29
F0.5
sI17
F0.16
ss(I64
I81
tp509
(dp510
I65
F0.3333
sI69
F0.3333
sI62
F0.3333
ss(I51
I50
tp511
(dp512
I46
F0.5
sI39
F0.5
ss(I81
I70
tp513
(dp514
I65
F0.5
sI77
F0.5
ss(I52
I53
tp515
(dp516
I65
F0.3889
sI43
F0.1667
sI36
F0.1667
sI53
F0.2778
ss(I85
I65
tp517
(dp518
I86
F1.0
ss(I32
I51
tp519
(dp520
I48
F0.25
sI36
F0.25
sI29
F0.25
sI53
F0.25
ss(I46
I39
tp521
(dp522
I39
F0.3125
sI42
F0.0208
sI43
F0.0625
sI45
F0.0417
sI46
F0.2708
sI50
F0.2083
sI27
F0.0833
ss(I29
I53
tp523
(dp524
I32
F0.3333
sI41
F0.3333
sI51
F0.3333
ss(I61
I69
tp525
(dp526
I64
F0.3
sI97
F0.1
sI45
F0.2
sI86
F0.1
sI69
F0.3
ss(I67
I91
tp527
(dp528
I81
F0.5
sI86
F0.5
ss(I57
I45
tp529
(dp530
I64
F0.3596
sI45
F0.0337
sI46
F0.0674
sI49
F0.0562
sI57
F0.3596
sI58
F0.0674
sI61
F0.0562
ss(I73
I75
tp531
(dp532
I72
F0.75
sI69
F0.25
ss(I58
I42
tp533
(dp534
I56
F1.0
ss(I63
I67
tp535
(dp536
I67
F0.16
sI72
F0.04
sI44
F0.04
sI56
F0.04
sI60
F0.08
sI62
F0.48
sI63
F0.16
ss(I75
I77
tp537
(dp538
I73
F0.6667
sI66
F0.3333
ss(I36
I39
tp539
(dp540
I48
F0.4
sI34
F0.2
sI36
F0.4
ss(I60
I36
tp541
(dp542
I67
F0.5
sI60
F0.5
ss(I43
I36
tp543
(dp544
I48
F0.2308
sI43
F0.2308
sI36
F0.2308
sI46
F0.3077
ss(I79
I67
tp545
(dp546
I65
F0.5
sI77
F0.5
ss(I77
I79
tp547
(dp548
I64
F0.1667
sI67
F0.3333
sI76
F0.1667
sI79
F0.3333
ss(I48
I34
tp549
(dp550
I48
F0.5
sI36
F0.5
ss(I72
I63
tp551
(dp552
I58
F0.0909
sI67
F0.3636
sI68
F0.0909
sI70
F0.0909
sI63
F0.3636
ss(I62
I54
tp553
(dp554
I58
F1.0
ss(I45
I38
tp555
(dp556
I33
F0.0263
sI34
F0.1842
sI38
F0.0789
sI39
F0.0789
sI45
F0.2368
sI46
F0.2632
sI50
F0.1316
ss(I69
I57
tp557
(dp558
I65
F0.5
sI57
F0.5
ss(I15
I29
tp559
(dp560
I27
F0.5
sI15
F0.5
ss(I64
I69
tp561
(dp562
I64
F0.0769
sI97
F0.0769
sI69
F0.0769
sI45
F0.4615
sI86
F0.0769
sI57
F0.0769
sI62
F0.1538
ss(I70
I54
tp563
(dp564
I66
F0.2
sI68
F0.1
sI70
F0.2
sI80
F0.1
sI54
F0.2
sI58
F0.2
ss(I44
I61
tp565
(dp566
I56
F1.0
ss(I89
I67
tp567
(dp568
I91
F0.5
sI69
F0.5
ss(I64
I49
tp569
(dp570
I50
F0.5
sI62
F0.5
ss(I27
I22
tp571
(dp572
I27
F0.5
sI15
F0.5
ss(I69
I67
tp573
(dp574
I64
F0.007
sI65
F0.0117
sI67
F0.2844
sI69
F0.366
sI71
F0.021
sI74
F0.0047
sI43
F0.0839
sI45
F0.0023
sI48
F0.0163
sI85
F0.0023
sI57
F0.0047
sI90
F0.0047
sI60
F0.0163
sI61
F0.0163
sI62
F0.0746
sI31
F0.0839
ss(I52
I61
tp575
(dp576
I50
F0.5
sI62
F0.5
ss(I70
I65
tp577
(dp578
I65
F0.2545
sI66
F0.0182
sI69
F0.0364
sI70
F0.3455
sI74
F0.0545
sI54
F0.0182
sI58
F0.0727
sI60
F0.0182
sI62
F0.0727
sI63
F0.1091
ss(I64
I70
tp579
(dp580
I69
F1.0
ss(I77
I58
tp581
(dp582
I68
F0.1
sI72
F0.1
sI75
F0.1
sI80
F0.1
sI53
F0.3
sI58
F0.3
ss(I58
I66
tp583
(dp584
I65
F0.0204
sI66
F0.2041
sI68
F0.0408
sI70
F0.0816
sI75
F0.0408
sI80
F0.0204
sI54
F0.0408
sI56
F0.0408
sI58
F0.2245
sI60
F0.0816
sI62
F0.0204
sI63
F0.1837
ss(I75
I72
tp585
(dp586
I82
F0.5
sI70
F0.5
ss(I52
I60
tp587
(dp588
I58
F0.2676
sI67
F0.0493
sI50
F0.3169
sI62
F0.0493
sI55
F0.3169
ss(I56
I55
tp589
(dp590
I53
F1.0
ss(I46
I46
tp591
(dp592
I36
F0.029
sI39
F0.1449
sI41
F0.029
sI43
F0.0725
sI45
F0.029
sI46
F0.2899
sI48
F0.058
sI50
F0.1449
sI53
F0.1449
sI29
F0.029
sI31
F0.029
ss(I53
I49
tp593
(dp594
I53
F0.5
sI29
F0.5
ss(I27
I34
tp595
(dp596
I15
F0.2353
sI26
F0.0588
sI27
F0.4706
sI39
F0.2353
ss(I81
I81
tp597
(dp598
I81
F0.5833
sI82
F0.0833
sI85
F0.3333
ss(I73
I76
tp599
(dp600
I68
F1.0
ss(I95
I97
tp601
(dp602
I93
F1.0
ss(I58
I53
tp603
(dp604
I68
F0.027
sI77
F0.1081
sI48
F0.027
sI82
F0.1081
sI53
F0.2162
sI55
F0.1081
sI57
F0.0541
sI58
F0.2162
sI60
F0.0541
sI62
F0.0541
sI63
F0.027
ss(I32
I32
tp605
(dp606
I48
F0.2222
sI36
F0.2222
sI29
F0.2222
sI30
F0.1111
sI53
F0.2222
ss(I63
I72
tp607
(dp608
I72
F0.0833
sI58
F0.0833
sI66
F0.0833
sI62
F0.6667
sI63
F0.0833
ss(I53
I48
tp609
(dp610
I34
F0.1379
sI41
F0.1034
sI46
F0.1724
sI48
F0.1724
sI51
F0.069
sI52
F0.1034
sI53
F0.2414
ss(I61
I72
tp611
(dp612
I73
F1.0
ss(I33
I45
tp613
(dp614
I64
F0.3333
sI57
F0.3333
sI34
F0.0556
sI53
F0.2222
sI46
F0.0556
ss(I72
I64
tp615
(dp616
I64
F0.1667
sI73
F0.3333
sI66
F0.1667
sI68
F0.1667
sI70
F0.1667
ss(I64
I45
tp617
(dp618
I64
F0.4706
sI57
F0.4706
sI66
F0.0588
ss(I36
I46
tp619
(dp620
I48
F0.1
sI41
F0.4
sI36
F0.1
sI29
F0.4
ss(I43
I29
tp621
(dp622
I36
F0.0714
sI39
F0.0357
sI41
F0.3929
sI24
F0.0714
sI27
F0.0357
sI29
F0.3929
ss(I49
I66
tp623
(dp624
I58
F1.0
ss(I51
I32
tp625
(dp626
I48
F0.25
sI36
F0.25
sI29
F0.25
sI53
F0.25
ss(I62
I57
tp627
(dp628
I65
F0.3043
sI53
F0.0435
sI55
F0.1304
sI57
F0.2174
sI58
F0.0435
sI60
F0.087
sI62
F0.1304
sI63
F0.0435
ss(I36
I52
tp629
(dp630
I43
F0.5
sI36
F0.5
ss(I39
I41
tp631
(dp632
I34
F0.0385
sI27
F0.4423
sI39
F0.5192
ss(I63
I60
tp633
(dp634
I65
F0.0714
sI66
F0.0714
sI58
F0.3929
sI60
F0.1786
sI62
F0.2143
sI63
F0.0714
ss(I91
I84
tp635
(dp636
I96
F1.0
ss(I42
I68
tp637
(dp638
I49
F0.5
sI59
F0.5
ss(I45
I57
tp639
(dp640
I64
F0.2667
sI65
F0.0833
sI33
F0.05
sI46
F0.0667
sI49
F0.0583
sI57
F0.2667
sI58
F0.15
sI61
F0.0583
ss(I49
I62
tp641
(dp642
I50
F0.5455
sI62
F0.4545
ss(I50
I61
tp643
(dp644
I64
F0.4545
sI52
F0.4545
sI62
F0.0909
ss(I27
I15
tp645
(dp646
I34
F0.0465
sI36
F0.0465
sI15
F0.2209
sI17
F0.186
sI22
F0.0465
sI24
F0.0465
sI27
F0.2209
sI29
F0.186
ss(I38
I24
tp647
(dp648
I26
F0.5
sI38
F0.5
ss(I68
I57
tp649
(dp650
I51
F0.3333
sI44
F0.3333
sI63
F0.3333
ss(I58
I77
tp651
(dp652
I58
F0.4545
sI54
F0.0909
sI66
F0.0909
sI53
F0.2727
sI70
F0.0909
ss(I58
I50
tp653
(dp654
I60
F0.3217
sI52
F0.3217
sI55
F0.3565
ss(I80
I82
tp655
(dp656
I66
F0.2
sI67
F0.2
sI82
F0.2
sI70
F0.2
sI79
F0.2
ss(I91
I96
tp657
(dp658
I88
F1.0
ss(I56
I62
tp659
(dp660
I58
F0.3333
sI66
F0.3333
sI61
F0.3333
ss(I53
I58
tp661
(dp662
I70
F0.0222
sI77
F0.0889
sI82
F0.0889
sI53
F0.0444
sI55
F0.1111
sI58
F0.2
sI60
F0.1111
sI62
F0.2667
sI63
F0.0667
ss(I60
I75
tp663
(dp664
I58
F0.5
sI70
F0.5
ss(I31
I41
tp665
(dp666
I36
F0.0714
sI39
F0.0357
sI41
F0.3929
sI24
F0.0714
sI27
F0.0357
sI29
F0.3929
ss(I84
I65
tp667
(dp668
I91
F1.0
ss(I58
I60
tp669
(dp670
I64
F0.0079
sI65
F0.0433
sI66
F0.0079
sI67
F0.0118
sI68
F0.0039
sI70
F0.0157
sI44
F0.0079
sI45
F0.0079
sI48
F0.0276
sI50
F0.1457
sI51
F0.0118
sI52
F0.0354
sI53
F0.0354
sI55
F0.1811
sI56
F0.0197
sI57
F0.0748
sI58
F0.1772
sI60
F0.1339
sI61
F0.0157
sI62
F0.0157
sI63
F0.0197
ss(I45
I69
tp671
(dp672
I57
F0.0556
sI45
F0.0556
sI62
F0.2222
sI69
F0.6667
ss(I48
I65
tp673
(dp674
I60
F1.0
ss(I53
I70
tp675
(dp676
I62
F1.0
ss(I33
I38
tp677
(dp678
I33
F0.0476
sI34
F0.3333
sI38
F0.1905
sI45
F0.0476
sI46
F0.3333
sI30
F0.0476
ss(I57
I33
tp679
(dp680
I64
F0.5
sI57
F0.5
ss(I72
I71
tp681
(dp682
I65
F0.25
sI74
F0.25
sI62
F0.25
sI70
F0.25
ss(I60
I58
tp683
(dp684
I65
F0.025
sI66
F0.0167
sI36
F0.0333
sI72
F0.0042
sI48
F0.0625
sI50
F0.0708
sI51
F0.0125
sI52
F0.1583
sI55
F0.1917
sI56
F0.025
sI57
F0.0125
sI58
F0.0625
sI60
F0.2083
sI61
F0.0208
sI62
F0.0833
sI63
F0.0125
ss(I17
I27
tp685
(dp686
I17
F0.5
sI29
F0.5
ss(I41
I38
tp687
(dp688
I40
F1.0
ss(I65
I33
tp689
(dp690
I65
F0.25
sI34
F0.25
sI58
F0.25
sI46
F0.25
ss(I61
I59
tp691
(dp692
I60
F1.0
ss(I77
I65
tp693
(dp694
I63
F1.0
ss(I74
I69
tp695
(dp696
I65
F0.1538
sI69
F0.3077
sI70
F0.1538
sI74
F0.1538
sI58
F0.0769
sI62
F0.1538
ss(I38
I39
tp697
(dp698
I33
F0.0769
sI27
F0.3077
sI36
F0.1538
sI39
F0.4615
ss(I58
I33
tp699
(dp700
I65
F0.25
sI34
F0.25
sI58
F0.25
sI46
F0.25
ss(I54
I77
tp701
(dp702
I58
F0.25
sI54
F0.25
sI66
F0.25
sI70
F0.25
ss(I69
I43
tp703
(dp704
I67
F0.3333
sI69
F0.5
sI62
F0.1667
ss(I67
I55
tp705
(dp706
I55
F1.0
ss(I39
I38
tp707
(dp708
I27
F0.25
sI46
F0.3125
sI39
F0.4375
ss(I31
I69
tp709
(dp710
I67
F0.3333
sI69
F0.5
sI62
F0.1667
ss(I68
I48
tp711
(dp712
I63
F1.0
ss(I65
I58
tp713
(dp714
I64
F0.0093
sI65
F0.2465
sI66
F0.0279
sI67
F0.0372
sI68
F0.0093
sI70
F0.0465
sI73
F0.0047
sI75
F0.0093
sI34
F0.093
sI46
F0.093
sI53
F0.0047
sI57
F0.0093
sI58
F0.2279
sI60
F0.0791
sI62
F0.0465
sI63
F0.0558
ss(I90
I69
tp715
(dp716
I98
F1.0
ss(I45
I50
tp717
(dp718
I38
F0.0714
sI39
F0.0476
sI43
F0.0714
sI45
F0.3333
sI46
F0.0952
sI50
F0.2381
sI53
F0.119
sI57
F0.0238
ss(I96
I65
tp719
(dp720
I64
F0.3333
sI67
F0.3333
sI91
F0.3333
ss(I70
I58
tp721
(dp722
I65
F0.0698
sI66
F0.0698
sI68
F0.0465
sI70
F0.3023
sI74
F0.0233
sI75
F0.0233
sI80
F0.0233
sI54
F0.0465
sI58
F0.1163
sI62
F0.0465
sI63
F0.2326
ss(I50
I52
tp723
(dp724
I49
F0.0732
sI50
F0.2256
sI52
F0.0549
sI55
F0.2805
sI58
F0.2256
sI60
F0.0549
sI61
F0.0854
ss(I68
I71
tp725
(dp726
I68
F0.3333
sI76
F0.3333
sI71
F0.3333
ss(I39
I26
tp727
(dp728
I27
F0.5
sI39
F0.5
ss(I62
I52
tp729
(dp730
I49
F0.4615
sI61
F0.5385
ss(I42
I44
tp731
(dp732
I46
F1.0
ss(I27
I48
tp733
(dp734
I27
F0.5
sI39
F0.5
ss(I60
I66
tp735
(dp736
I58
F0.3333
sI62
F0.3333
sI63
F0.3333
ss(I57
I64
tp737
(dp738
I64
F0.2308
sI65
F0.0769
sI33
F0.1923
sI45
F0.1923
sI57
F0.2527
sI58
F0.0549
ss(I81
I67
tp739
(dp740
I65
F1.0
ss(I26
I39
tp741
(dp742
I27
F0.5
sI39
F0.5
ss(I46
I34
tp743
(dp744
I34
F0.25
sI36
F0.125
sI43
F0.125
sI48
F0.125
sI53
F0.25
sI31
F0.125
ss(I53
I45
tp745
(dp746
I33
F0.1333
sI53
F0.5
sI46
F0.2667
sI45
F0.1
ss(I30
I33
tp747
(dp748
I26
F1.0
ss(I60
I49
tp749
(dp750
I58
F1.0
ss(I15
I17
tp751
(dp752
I27
F0.5
sI15
F0.5
ss(I63
I68
tp753
(dp754
I64
F0.0526
sI65
F0.1053
sI68
F0.1053
sI72
F0.0526
sI73
F0.0526
sI56
F0.0526
sI58
F0.2105
sI60
F0.2105
sI62
F0.1053
sI63
F0.0526
ss(I61
I52
tp755
(dp756
I56
F1.0
ss(I74
I76
tp757
(dp758
I72
F0.75
sI84
F0.25
ss(I62
I43
tp759
(dp760
I69
F0.5
sI62
F0.5
ss(I67
I60
tp761
(dp762
I65
F0.0795
sI67
F0.2092
sI68
F0.0167
sI69
F0.046
sI70
F0.0418
sI72
F0.0377
sI75
F0.0042
sI48
F0.1339
sI55
F0.0126
sI36
F0.1004
sI58
F0.0084
sI60
F0.2218
sI62
F0.0669
sI63
F0.0209
ss(I75
I63
tp763
(dp764
I65
F0.5
sI77
F0.5
ss(I79
I68
tp765
(dp766
I65
F0.25
sI70
F0.125
sI75
F0.125
sI77
F0.25
sI82
F0.125
sI63
F0.125
ss(I76
I74
tp767
(dp768
I74
F1.0
ss(I68
I63
tp769
(dp770
I72
F0.25
sI68
F0.25
sI60
F0.25
sI63
F0.25
ss(I46
I29
tp771
(dp772
I49
F0.1667
sI34
F0.3333
sI37
F0.1667
sI46
F0.3333
ss(I45
I43
tp773
(dp774
I53
F0.4286
sI46
F0.1429
sI45
F0.4286
ss(I69
I62
tp775
(dp776
I64
F0.0079
sI97
F0.0011
sI67
F0.0271
sI69
F0.3382
sI38
F0.1516
sI50
F0.1629
sI86
F0.0011
sI57
F0.009
sI62
F0.3009
ss(I66
I80
tp777
(dp778
I80
F0.4
sI68
F0.4
sI70
F0.2
ss(I15
I22
tp779
(dp780
I27
F0.5
sI15
F0.5
ss(I64
I64
tp781
(dp782
I64
F0.2333
sI65
F0.0611
sI33
F0.1944
sI77
F0.0056
sI45
F0.1944
sI56
F0.0167
sI57
F0.2333
sI58
F0.0556
sI63
F0.0056
ss(I26
I26
tp783
(dp784
I33
F0.35
sI26
F0.2
sI45
F0.25
sI38
F0.2
ss(I91
I88
tp785
(dp786
I89
F1.0
ss(I68
I78
tp787
(dp788
I66
F0.25
sI67
F0.25
sI78
F0.25
sI79
F0.25
ss(I66
I74
tp789
(dp790
I65
F0.5
sI62
F0.5
ss(I22
I27
tp791
(dp792
I27
F0.5
sI15
F0.5
ss(I52
I55
tp793
(dp794
I60
F0.1508
sI58
F0.1825
sI52
F0.1508
sI50
F0.1825
sI55
F0.3333
ss(I32
I53
tp795
(dp796
I32
F0.5
sI51
F0.5
ss(I29
I51
tp797
(dp798
I53
F0.5
sI29
F0.5
ss(I62
I67
tp799
(dp800
I64
F0.0313
sI65
F0.0521
sI67
F0.0833
sI68
F0.0521
sI69
F0.2604
sI74
F0.0208
sI45
F0.0104
sI50
F0.0104
sI85
F0.0104
sI55
F0.0104
sI57
F0.0208
sI90
F0.0208
sI60
F0.0521
sI61
F0.0729
sI62
F0.25
sI63
F0.0417
ss(I30
I32
tp801
(dp802
I34
F1.0
ss(I65
I55
tp803
(dp804
I64
F0.2188
sI65
F0.0938
sI67
F0.0938
sI52
F0.2188
sI57
F0.0938
sI60
F0.1875
sI62
F0.0938
ss(I64
I50
tp805
(dp806
I64
F0.0313
sI65
F0.375
sI57
F0.0313
sI53
F0.375
sI45
F0.1875
ss(I86
I69
tp807
(dp808
I65
F0.3333
sI62
F0.3333
sI70
F0.3333
ss(I65
I65
tp809
(dp810
I64
F0.0206
sI65
F0.2964
sI66
F0.0026
sI67
F0.0644
sI68
F0.0232
sI70
F0.018
sI72
F0.0851
sI41
F0.0412
sI34
F0.0515
sI46
F0.0515
sI53
F0.0438
sI57
F0.0129
sI58
F0.1443
sI60
F0.1186
sI62
F0.0103
sI63
F0.0155
ss(I67
I31
tp811
(dp812
I67
F0.5
sI69
F0.5
ss(I63
I77
tp813
(dp814
I66
F0.4
sI67
F0.2
sI58
F0.2
sI63
F0.2
ss(I61
I77
tp815
(dp816
I58
F1.0
ss(I66
I56
tp817
(dp818
I64
F0.1667
sI42
F0.0833
sI49
F0.0833
sI56
F0.1667
sI58
F0.0833
sI61
F0.4167
ss(I48
I51
tp819
(dp820
I48
F0.25
sI36
F0.25
sI45
F0.5
ss(I40
I40
tp821
(dp822
I40
F0.25
sI48
F0.25
sI46
F0.25
sI39
F0.25
ss(I88
I85
tp823
(dp824
I86
F1.0
ss(I79
I77
tp825
(dp826
I64
F0.125
sI67
F0.125
sI68
F0.25
sI76
F0.125
sI79
F0.125
sI80
F0.25
ss(I76
I65
tp827
(dp828
I74
F0.5
sI86
F0.5
ss(I91
I89
tp829
(dp830
I93
F1.0
ss(I48
I36
tp831
(dp832
I50
F0.1579
sI27
F0.4211
sI39
F0.4211
ss(I53
I65
tp833
(dp834
I65
F0.2319
sI67
F0.1449
sI72
F0.2319
sI53
F0.0145
sI55
F0.0435
sI58
F0.0435
sI60
F0.1739
sI62
F0.087
sI63
F0.029
ss(I36
I15
tp835
(dp836
I24
F0.5
sI36
F0.5
ss(I67
I66
tp837
(dp838
I66
F0.5
sI50
F0.1667
sI62
F0.1667
sI69
F0.1667
ss(I73
I60
tp839
(dp840
I72
F0.3333
sI68
F0.3333
sI63
F0.3333
ss(I65
I79
tp841
(dp842
I64
F0.1111
sI65
F0.1111
sI67
F0.2222
sI68
F0.1111
sI76
F0.1111
sI79
F0.2222
sI60
F0.1111
ss(I44
I63
tp843
(dp844
I56
F0.6667
sI61
F0.3333
ss(I50
I38
tp845
(dp846
I50
F0.5
sI45
F0.5
ss(I48
I58
tp847
(dp848
I48
F0.2121
sI50
F0.2727
sI60
F0.2121
sI62
F0.2727
sI46
F0.0303
ss(I64
I48
tp849
(dp850
I50
F0.25
sI67
F0.25
sI62
F0.25
sI55
F0.25
ss(I45
I62
tp851
(dp852
I57
F0.5
sI45
F0.5
ss(I69
I65
tp853
(dp854
I97
F0.0625
sI69
F0.25
sI65
F0.0625
sI86
F0.0625
sI57
F0.3125
sI62
F0.25
ss(I49
I59
tp855
(dp856
I60
F1.0
ss(I93
I91
tp857
(dp858
I84
F0.4444
sI69
F0.1111
sI95
F0.4444
ss(I70
I71
tp859
(dp860
I69
F1.0
ss(I51
I61
tp861
(dp862
I62
F1.0
ss(I58
I64
tp863
(dp864
I65
F0.2326
sI34
F0.2326
sI46
F0.2326
sI56
F0.0233
sI58
F0.2326
sI60
F0.0233
sI61
F0.0233
ss(I51
I29
tp865
(dp866
I32
F0.5
sI51
F0.5
ss(I52
I62
tp867
(dp868
I65
F0.5
sI53
F0.5
ss(I51
I43
tp869
(dp870
I46
F0.5
sI39
F0.5
ss(I62
I74
tp871
(dp872
I65
F0.2
sI58
F0.4
sI68
F0.2
sI60
F0.2
ss(I27
I36
tp873
(dp874
I15
F0.125
sI26
F0.125
sI27
F0.375
sI38
F0.125
sI39
F0.25
ss(I88
I90
tp875
(dp876
I61
F0.5
sI85
F0.5
ss(I58
I51
tp877
(dp878
I56
F0.8
sI58
F0.2
ss(I32
I34
tp879
(dp880
I32
F0.4
sI36
F0.4
sI30
F0.2
ss(I63
I74
tp881
(dp882
I65
F0.5
sI62
F0.5
ss(I55
I57
tp883
(dp884
I62
F0.5
sI55
F0.5
ss(I61
I70
tp885
(dp886
I64
F0.5
sI69
F0.5
ss(I59
I58
tp887
(dp888
I49
F0.3333
sI61
F0.6667
ss(I75
I68
tp889
(dp890
I73
F0.5
sI74
F0.5
ss(I36
I40
tp891
(dp892
I28
F1.0
ss(I60
I61
tp893
(dp894
I64
F0.0909
sI66
F0.0909
sI68
F0.0909
sI73
F0.0909
sI58
F0.3636
sI61
F0.0909
sI63
F0.1818
ss(I22
I15
tp895
(dp896
I27
F0.5
sI15
F0.5
ss(I53
I52
tp897
(dp898
I57
F0.3684
sI67
F0.1316
sI45
F0.3684
sI55
F0.1316
ss(I77
I70
tp899
(dp900
I80
F0.2
sI58
F0.2
sI68
F0.2
sI66
F0.2
sI61
F0.2
ss(I42
I56
tp901
(dp902
I49
F0.5
sI59
F0.5
ss(I38
I34
tp903
(dp904
I41
F1.0
ss(I62
I63
tp905
(dp906
I65
F0.0109
sI66
F0.0435
sI67
F0.087
sI68
F0.0109
sI69
F0.0109
sI70
F0.0652
sI75
F0.0217
sI56
F0.0109
sI57
F0.0109
sI58
F0.0326
sI60
F0.3043
sI62
F0.2609
sI63
F0.1304
ss(I67
I48
tp907
(dp908
I67
F0.5
sI60
F0.5
ss(I39
I43
tp909
(dp910
I27
F0.5
sI39
F0.5
ss(I63
I62
tp911
(dp912
I65
F0.2667
sI66
F0.0267
sI67
F0.0533
sI70
F0.0133
sI74
F0.0133
sI44
F0.0133
sI58
F0.0667
sI60
F0.0133
sI61
F0.0133
sI62
F0.4
sI63
F0.12
ss(I42
I66
tp913
(dp914
I58
F1.0
ss(I55
I68
tp915
(dp916
I67
F0.5
sI60
F0.5
ss(I66
I46
tp917
(dp918
I61
F1.0
ss(I69
I74
tp919
(dp920
I65
F0.2
sI58
F0.3
sI74
F0.2
sI70
F0.1
sI69
F0.2
ss(I84
I93
tp921
(dp922
I88
F1.0
ss(I71
I68
tp923
(dp924
I72
F0.2
sI73
F0.2
sI74
F0.2
sI68
F0.2
sI79
F0.2
ss(I58
I75
tp925
(dp926
I66
F0.2
sI75
F0.2
sI58
F0.2
sI70
F0.2
sI63
F0.2
ss(I39
I31
tp927
(dp928
I27
F0.5
sI39
F0.5
ss(I85
I81
tp929
(dp930
I88
F1.0
ss(I91
I98
tp931
(dp932
I93
F1.0
ss(I46
I27
tp933
(dp934
I27
F0.5
sI39
F0.5
ss(I70
I80
tp935
(dp936
I68
F0.1667
sI69
F0.1667
sI72
F0.1667
sI80
F0.1667
sI81
F0.1667
sI84
F0.1667
ss(I62
I77
tp937
(dp938
I72
F0.5
sI60
F0.5
ss(I60
I69
tp939
(dp940
I64
F0.5
sI52
F0.5
ss(I54
I55
tp941
(dp942
I53
F1.0
ss(I58
I58
tp943
(dp944
I34
F0.0325
sI46
F0.0325
sI52
F0.0602
sI53
F0.0276
sI54
F0.0033
sI55
F0.1984
sI56
F0.0033
sI57
F0.0033
sI58
F0.226
sI60
F0.0894
sI61
F0.0049
sI62
F0.1398
sI63
F0.0195
sI64
F0.0065
sI65
F0.0846
sI66
F0.0211
sI67
F0.013
sI68
F0.0049
sI70
F0.0098
sI74
F0.0016
sI75
F0.0033
sI77
F0.0065
sI80
F0.0016
sI82
F0.0065
ss(I48
I67
tp945
(dp946
I65
F0.0769
sI67
F0.3077
sI36
F0.0769
sI69
F0.0769
sI72
F0.0769
sI60
F0.3077
sI62
F0.0769
ss(I53
I34
tp947
(dp948
I34
F0.2222
sI53
F0.5
sI46
F0.2778
ss(I64
I91
tp949
(dp950
I81
F0.5
sI86
F0.5
ss(I40
I41
tp951
(dp952
I36
F0.125
sI38
F0.75
sI39
F0.125
ss(I64
I38
tp953
(dp954
I64
F0.125
sI57
F0.125
sI45
F0.75
ss(I60
I52
tp955
(dp956
I56
F0.0087
sI58
F0.3304
sI50
F0.3304
sI55
F0.3304
ss(I41
I36
tp957
(dp958
I24
F0.5
sI36
F0.5
ss(I61
I57
tp959
(dp960
I64
F0.4167
sI52
F0.4167
sI45
F0.1667
ss(I29
I22
tp961
(dp962
I27
F1.0
ss(I62
I38
tp963
(dp964
I50
F0.0206
sI38
F0.0165
sI69
F0.4815
sI62
F0.4815
ss(I34
I29
tp965
(dp966
I32
F0.0625
sI34
F0.25
sI36
F0.1875
sI37
F0.125
sI46
F0.25
sI49
F0.125
ss(I64
I85
tp967
(dp968
I65
F0.3333
sI69
F0.3333
sI62
F0.3333
ss(I29
I17
tp969
(dp970
I17
F0.381
sI27
F0.119
sI29
F0.381
sI15
F0.119
ss(I65
I52
tp971
(dp972
I57
F0.35
sI67
F0.125
sI45
F0.35
sI55
F0.125
sI53
F0.05
ss(I76
I77
tp973
(dp974
I74
F0.5
sI86
F0.5
ss(I24
I27
tp975
(dp976
I24
F0.5
sI36
F0.5
ss(I48
I40
tp977
(dp978
I40
F0.25
sI48
F0.25
sI46
F0.25
sI39
F0.25
ss(I72
I53
tp979
(dp980
I72
F0.5
sI65
F0.5
ss(I75
I60
tp981
(dp982
I73
F0.3333
sI66
F0.3333
sI70
F0.3333
ss(I45
I48
tp983
(dp984
I34
F0.5
sI46
F0.5
ss(I27
I28
tp985
(dp986
I39
F1.0
ss(I67
I64
tp987
(dp988
I65
F0.5
sI53
F0.5
ss(I75
I65
tp989
(dp990
I65
F0.2222
sI69
F0.1111
sI70
F0.1111
sI74
F0.2222
sI58
F0.1111
sI62
F0.2222
ss(I70
I56
tp991
(dp992
I60
F1.0
ss(I50
I50
tp993
(dp994
I39
F0.0122
sI41
F0.0244
sI43
F0.0732
sI45
F0.0305
sI46
F0.0244
sI48
F0.0122
sI50
F0.0976
sI51
F0.0061
sI52
F0.2256
sI53
F0.0305
sI55
F0.2378
sI60
F0.2256
ss(I39
I51
tp995
(dp996
I46
F0.5
sI39
F0.5
ss(I68
I65
tp997
(dp998
I64
F0.1579
sI65
F0.0789
sI66
F0.0263
sI67
F0.2632
sI68
F0.0789
sI79
F0.0263
sI58
F0.0263
sI60
F0.2632
sI63
F0.0789
ss(I52
I50
tp999
(dp1000
I65
F0.0741
sI50
F0.0494
sI52
F0.2346
sI53
F0.0741
sI55
F0.284
sI58
F0.0494
sI60
F0.2346
ss(I58
I82
tp1001
(dp1002
I58
F0.5
sI53
F0.5
ss(I45
I65
tp1003
(dp1004
I57
F0.5238
sI45
F0.381
sI61
F0.0952
ss(I46
I62
tp1005
(dp1006
I58
F1.0
ss(I70
I75
tp1007
(dp1008
I66
F0.125
sI69
F0.125
sI70
F0.125
sI72
F0.125
sI75
F0.125
sI84
F0.125
sI58
F0.125
sI63
F0.125
ss(I82
I81
tp1009
(dp1010
I84
F1.0
ss(I84
I74
tp1011
(dp1012
I82
F0.5
sI70
F0.5
ss(I51
I41
tp1013
(dp1014
I50
F1.0
ss(I61
I88
tp1015
(dp1016
I64
F0.5
sI69
F0.5
ss(I53
I43
tp1017
(dp1018
I53
F0.5
sI45
F0.5
ss(I64
I61
tp1019
(dp1020
I64
F0.0204
sI65
F0.1429
sI66
F0.0204
sI70
F0.1429
sI50
F0.1429
sI86
F0.0204
sI56
F0.102
sI60
F0.0408
sI61
F0.0204
sI62
F0.2857
sI63
F0.0612
ss(I86
I64
tp1021
(dp1022
I72
F0.1111
sI65
F0.3333
sI84
F0.1111
sI62
F0.2222
sI70
F0.2222
ss(I60
I51
tp1023
(dp1024
I56
F0.2778
sI58
F0.3333
sI51
F0.1667
sI44
F0.1111
sI61
F0.1111
ss(I34
I58
tp1025
(dp1026
I64
F0.0333
sI65
F0.3333
sI67
F0.1333
sI57
F0.0333
sI58
F0.3333
sI60
F0.1333
ss(I50
I64
tp1027
(dp1028
I49
F0.4615
sI61
F0.5385
ss(I63
I70
tp1029
(dp1030
I65
F0.15
sI66
F0.025
sI69
F0.025
sI70
F0.225
sI72
F0.1
sI74
F0.025
sI58
F0.025
sI62
F0.05
sI63
F0.375
ss(I61
I50
tp1031
(dp1032
I49
F0.0769
sI50
F0.4615
sI45
F0.0769
sI62
F0.3846
ss(I74
I74
tp1033
(dp1034
I65
F0.25
sI58
F0.125
sI74
F0.25
sI70
F0.125
sI69
F0.25
ss(I66
I63
tp1035
(dp1036
I64
F0.0833
sI65
F0.125
sI66
F0.0833
sI68
F0.0417
sI69
F0.0417
sI80
F0.0417
sI56
F0.0833
sI58
F0.25
sI61
F0.125
sI62
F0.0833
sI63
F0.0417
ss(I72
I86
tp1037
(dp1038
I82
F0.5
sI70
F0.5
ss(I36
I36
tp1039
(dp1040
I34
F0.6434
sI36
F0.0233
sI38
F0.0078
sI39
F0.093
sI43
F0.0233
sI46
F0.031
sI15
F0.031
sI48
F0.0233
sI27
F0.124
ss(I51
I68
tp1041
(dp1042
I60
F1.0
ss(I38
I33
tp1043
(dp1044
I31
F1.0
ss(I67
I62
tp1045
(dp1046
I65
F0.1538
sI67
F0.2821
sI69
F0.2949
sI70
F0.0128
sI60
F0.0256
sI62
F0.1282
sI63
F0.1026
ss(I41
I55
tp1047
(dp1048
I38
F1.0
ss(I65
I82
tp1049
(dp1050
I80
F0.5
sI68
F0.5
ss(I53
I54
tp1051
(dp1052
I53
F1.0
ss(I61
I44
tp1053
(dp1054
I58
F0.25
sI51
F0.25
sI42
F0.25
sI63
F0.25
ss(I76
I68
tp1055
(dp1056
I73
F0.6667
sI71
F0.3333
ss(I77
I82
tp1057
(dp1058
I80
F0.5
sI68
F0.5
ss(I72
I60
tp1059
(dp1060
I65
F0.1071
sI66
F0.0357
sI69
F0.0357
sI70
F0.0357
sI72
F0.1071
sI73
F0.0357
sI53
F0.2857
sI41
F0.2857
sI61
F0.0357
sI62
F0.0357
ss(I62
I51
tp1061
(dp1062
I60
F1.0
ss(I69
I60
tp1063
(dp1064
I64
F0.05
sI74
F0.05
sI69
F0.5
sI62
F0.4
ss(I67
I68
tp1065
(dp1066
I65
F0.2857
sI67
F0.0857
sI68
F0.0286
sI70
F0.1714
sI72
F0.0286
sI75
F0.0571
sI77
F0.0571
sI82
F0.0286
sI60
F0.0857
sI62
F0.1429
sI63
F0.0286
ss(I64
I66
tp1067
(dp1068
I56
F0.4
sI66
F0.2
sI60
F0.2
sI63
F0.2
ss(I50
I60
tp1069
(dp1070
I48
F0.0577
sI50
F0.2372
sI52
F0.0577
sI55
F0.2949
sI58
F0.2372
sI60
F0.1154
ss(I26
I24
tp1071
(dp1072
I26
F0.5
sI38
F0.5
ss(I50
I45
tp1073
(dp1074
I39
F0.0588
sI43
F0.1765
sI45
F0.2059
sI46
F0.1176
sI50
F0.3824
sI53
F0.0588
ss(I74
I62
tp1075
(dp1076
I72
F0.2
sI69
F0.4
sI62
F0.4
ss(I68
I72
tp1077
(dp1078
I58
F0.25
sI66
F0.25
sI63
F0.5
ss(I69
I70
tp1079
(dp1080
I65
F0.0625
sI67
F0.3125
sI69
F0.1875
sI70
F0.0625
sI72
F0.0625
sI74
F0.125
sI77
F0.125
sI81
F0.0625
ss(I66
I72
tp1081
(dp1082
I69
F0.5
sI70
F0.5
ss(I80
I66
tp1083
(dp1084
I66
F0.1667
sI67
F0.1667
sI70
F0.1667
sI78
F0.1667
sI79
F0.1667
sI82
F0.1667
ss(I93
I64
tp1085
(dp1086
I69
F1.0
ss(I94
I86
tp1087
(dp1088
I96
F1.0
ss(I33
I69
tp1089
(dp1090
I69
F0.75
sI62
F0.25
ss(I48
I27
tp1091
(dp1092
I48
F0.5
sI36
F0.5
ss(I70
I66
tp1093
(dp1094
I66
F0.1765
sI68
F0.0588
sI70
F0.1765
sI74
F0.0588
sI75
F0.0588
sI80
F0.0588
sI54
F0.1176
sI58
F0.2353
sI63
F0.0588
ss(I15
I27
tp1095
(dp1096
I34
F0.0465
sI36
F0.0465
sI15
F0.2209
sI17
F0.186
sI22
F0.0465
sI24
F0.0465
sI27
F0.2209
sI29
F0.186
ss(I29
I32
tp1097
(dp1098
I53
F0.5
sI29
F0.5
ss(I60
I91
tp1099
(dp1100
I81
F0.5
sI86
F0.5
ss(I15
I36
tp1101
(dp1102
I27
F0.5
sI15
F0.5
ss(I82
I72
tp1103
(dp1104
I65
F0.1
sI68
F0.1
sI72
F0.3
sI77
F0.1
sI84
F0.3
sI56
F0.1
ss(I86
I97
tp1105
(dp1106
I65
F0.25
sI94
F0.25
sI62
F0.25
sI70
F0.25
ss(I52
I49
tp1107
(dp1108
I50
F0.5
sI62
F0.5
ss(I46
I43
tp1109
(dp1110
I45
F1.0
ss(I29
I49
tp1111
(dp1112
I53
F0.5
sI29
F0.5
ss(I62
I65
tp1113
(dp1114
I64
F0.0845
sI65
F0.1268
sI67
F0.169
sI70
F0.0704
sI72
F0.0141
sI74
F0.0141
sI53
F0.0141
sI55
F0.0423
sI57
F0.0282
sI58
F0.0986
sI60
F0.1831
sI62
F0.1268
sI85
F0.0282
ss(I59
I65
tp1115
(dp1116
I60
F1.0
ss(I70
I74
tp1117
(dp1118
I65
F0.375
sI68
F0.125
sI70
F0.125
sI72
F0.125
sI60
F0.125
sI62
F0.125
ss(I34
I53
tp1119
(dp1120
I41
F0.0455
sI53
F0.5909
sI46
F0.3636
ss(I58
I54
tp1121
(dp1122
I66
F0.1667
sI68
F0.0833
sI70
F0.1667
sI80
F0.0833
sI54
F0.1667
sI58
F0.1667
sI59
F0.0833
sI61
F0.0833
ss(I63
I79
tp1123
(dp1124
I72
F0.5
sI60
F0.5
ss(I29
I43
tp1125
(dp1126
I41
F0.5
sI29
F0.5
ss(I85
I62
tp1127
(dp1128
I64
F0.25
sI81
F0.25
sI67
F0.25
sI86
F0.25
ss(I66
I54
tp1129
(dp1130
I66
F0.2
sI68
F0.1
sI70
F0.2
sI80
F0.1
sI54
F0.2
sI58
F0.2
ss(I86
I61
tp1131
(dp1132
I65
F0.3333
sI62
F0.3333
sI70
F0.3333
ss(I38
I26
tp1133
(dp1134
I33
F0.35
sI26
F0.2
sI45
F0.25
sI38
F0.2
ss(I37
I34
tp1135
(dp1136
I49
F0.3333
sI36
F0.3333
sI37
F0.3333
ss(I79
I79
tp1137
(dp1138
I65
F0.5
sI77
F0.5
ss(I76
I67
tp1139
(dp1140
I64
F0.5
sI76
F0.5
ss(I77
I75
tp1141
(dp1142
I58
F0.25
sI54
F0.25
sI66
F0.25
sI70
F0.25
ss(I38
I41
tp1143
(dp1144
I41
F1.0
ss(I62
I58
tp1145
(dp1146
I66
F0.0142
sI68
F0.0071
sI70
F0.0142
sI75
F0.0071
sI55
F0.2801
sI57
F0.0071
sI58
F0.305
sI60
F0.039
sI62
F0.3014
sI63
F0.0248
ss(I45
I34
tp1147
(dp1148
I34
F0.5
sI46
F0.5
ss(I67
I77
tp1149
(dp1150
I64
F0.125
sI67
F0.125
sI68
F0.25
sI76
F0.125
sI79
F0.125
sI80
F0.25
ss(I63
I51
tp1151
(dp1152
I58
F0.3333
sI51
F0.3333
sI62
F0.3333
ss(I24
I15
tp1153
(dp1154
I24
F0.5
sI36
F0.5
ss(I48
I60
tp1155
(dp1156
I64
F0.0588
sI65
F0.0672
sI67
F0.2689
sI36
F0.0672
sI69
F0.0672
sI72
F0.0672
sI52
F0.0588
sI57
F0.0084
sI60
F0.2689
sI62
F0.0672
ss(I66
I67
tp1157
(dp1158
I64
F0.1176
sI66
F0.0588
sI67
F0.4706
sI69
F0.0588
sI45
F0.0588
sI57
F0.1176
sI61
F0.1176
ss(I49
I57
tp1159
(dp1160
I64
F0.5
sI52
F0.5
ss(I75
I79
tp1161
(dp1162
I72
F0.5
sI60
F0.5
ss(I50
I62
tp1163
(dp1164
I64
F0.024
sI67
F0.0411
sI69
F0.4623
sI38
F0.0377
sI57
F0.024
sI59
F0.0034
sI62
F0.4075
ss(I70
I69
tp1165
(dp1166
I64
F0.25
sI65
F0.05
sI67
F0.25
sI68
F0.05
sI70
F0.05
sI72
F0.15
sI60
F0.05
sI61
F0.1
sI63
F0.05
ss(I71
I73
tp1167
(dp1168
I69
F1.0
ss(I17
I15
tp1169
(dp1170
I17
F0.5
sI29
F0.5
ss(I51
I63
tp1171
(dp1172
I56
F0.3333
sI58
F0.3333
sI61
F0.3333
ss(I82
I67
tp1173
(dp1174
I80
F0.5
sI68
F0.5
ss(I52
I56
tp1175
(dp1176
I60
F0.25
sI61
F0.75
ss(I85
I86
tp1177
(dp1178
I86
F1.0
ss(I79
I80
tp1179
(dp1180
I65
F0.25
sI70
F0.125
sI75
F0.125
sI77
F0.25
sI82
F0.125
sI63
F0.125
ss(I46
I50
tp1181
(dp1182
I53
F0.25
sI46
F0.5
sI39
F0.25
ss(I65
I46
tp1183
(dp1184
I65
F0.5
sI58
F0.5
ss(I62
I72
tp1185
(dp1186
I65
F0.2
sI74
F0.2
sI68
F0.2
sI69
F0.2
sI60
F0.2
ss(I27
I38
tp1187
(dp1188
I27
F0.5
sI39
F0.5
ss(I60
I72
tp1189
(dp1190
I65
F0.0385
sI66
F0.0385
sI67
F0.1154
sI36
F0.3077
sI72
F0.0385
sI48
F0.3077
sI58
F0.0385
sI60
F0.0769
sI63
F0.0385
ss(I57
I58
tp1191
(dp1192
I64
F0.0435
sI65
F0.0435
sI45
F0.0435
sI50
F0.0435
sI53
F0.3913
sI57
F0.087
sI63
F0.3478
ss(I81
I85
tp1193
(dp1194
I64
F0.5
sI67
F0.5
ss(I26
I30
tp1195
(dp1196
I24
F1.0
ss(I84
I70
tp1197
(dp1198
I82
F0.5
sI70
F0.5
ss(I58
I49
tp1199
(dp1200
I56
F1.0
ss(I51
I39
tp1201
(dp1202
I51
F1.0
ss(I55
I59
tp1203
(dp1204
I59
F0.25
sI53
F0.25
sI55
F0.5
ss(I29
I36
tp1205
(dp1206
I24
F0.5
sI36
F0.5
ss(I59
I60
tp1207
(dp1208
I59
F1.0
ss(I33
I33
tp1209
(dp1210
I34
F0.5
sI46
F0.5
ss(I75
I70
tp1211
(dp1212
I65
F0.25
sI74
F0.25
sI69
F0.25
sI62
F0.25
ss(I72
I68
tp1213
(dp1214
I64
F0.25
sI73
F0.25
sI68
F0.25
sI71
F0.25
ss(I64
I33
tp1215
(dp1216
I64
F0.5
sI57
F0.5
ss(I60
I63
tp1217
(dp1218
I68
F0.0625
sI70
F0.0313
sI51
F0.0938
sI56
F0.1875
sI58
F0.2813
sI60
F0.0938
sI61
F0.0313
sI62
F0.0313
sI63
F0.1875
ss(I34
I38
tp1219
(dp1220
I36
F1.0
ss(I61
I62
tp1221
(dp1222
I64
F0.15
sI97
F0.025
sI69
F0.15
sI45
F0.05
sI49
F0.05
sI50
F0.3
sI86
F0.025
sI62
F0.25
ss(I77
I68
tp1223
(dp1224
I67
F0.3333
sI75
F0.3333
sI79
F0.3333
ss(I74
I70
tp1225
(dp1226
I65
F0.1
sI66
F0.1
sI69
F0.2
sI70
F0.1
sI74
F0.2
sI75
F0.1
sI58
F0.1
sI63
F0.1
ss(I62
I61
tp1227
(dp1228
I64
F0.5
sI52
F0.5
ss(I36
I48
tp1229
(dp1230
I67
F0.2
sI36
F0.1
sI39
F0.2
sI43
F0.1
sI27
F0.2
sI60
F0.2
ss(I67
I50
tp1231
(dp1232
I67
F0.5
sI69
F0.5
ss(I36
I60
tp1233
(dp1234
I65
F0.1
sI67
F0.3
sI69
F0.1
sI72
F0.1
sI60
F0.3
sI62
F0.1
ss(I63
I56
tp1235
(dp1236
I64
F0.0909
sI66
F0.0909
sI68
F0.0455
sI73
F0.0455
sI51
F0.0455
sI56
F0.0455
sI58
F0.0909
sI60
F0.2727
sI61
F0.1364
sI62
F0.0455
sI63
F0.0909
ss(I27
I31
tp1237
(dp1238
I27
F0.5
sI39
F0.5
ss(I24
I22
tp1239
(dp1240
I24
F0.5
sI36
F0.5
ss(I55
I70
tp1241
(dp1242
I57
F0.5
sI62
F0.5
ss(I72
I48
tp1243
(dp1244
I41
F0.5
sI53
F0.5
ss(I45
I53
tp1245
(dp1246
I57
F0.3333
sI61
F0.0606
sI53
F0.1818
sI46
F0.0909
sI45
F0.3333
ss(I69
I72
tp1247
(dp1248
I74
F0.5
sI69
F0.5
ss(I49
I50
tp1249
(dp1250
I50
F0.5455
sI62
F0.4545
ss(I50
I57
tp1251
(dp1252
I55
F1.0
ss(I71
I70
tp1253
(dp1254
I68
F1.0
ss(I68
I68
tp1255
(dp1256
I64
F0.125
sI73
F0.25
sI67
F0.375
sI68
F0.125
sI71
F0.125
ss(I69
I82
tp1257
(dp1258
I65
F0.5
sI77
F0.5
ss(I82
I58
tp1259
(dp1260
I68
F0.1
sI72
F0.1
sI75
F0.1
sI80
F0.1
sI53
F0.3
sI58
F0.3
ss(I55
I53
tp1261
(dp1262
I69
F0.2
sI53
F0.0571
sI56
F0.2286
sI57
F0.2857
sI58
F0.1143
sI61
F0.0571
sI62
F0.0571
ss(I24
I34
tp1263
(dp1264
I24
F0.1667
sI41
F0.3333
sI36
F0.1667
sI29
F0.3333
ss(I46
I53
tp1265
(dp1266
I34
F0.0238
sI41
F0.0714
sI46
F0.2857
sI48
F0.0476
sI51
F0.0238
sI53
F0.4524
sI29
F0.0952
ss(I37
I49
tp1267
(dp1268
I29
F0.5
sI53
F0.5
ss(I61
I66
tp1269
(dp1270
I64
F0.0625
sI69
F0.0625
sI45
F0.125
sI54
F0.0625
sI56
F0.25
sI58
F0.1875
sI60
F0.125
sI63
F0.125
ss(I57
I67
tp1271
(dp1272
I48
F0.5
sI60
F0.5
ss(I82
I84
tp1273
(dp1274
I65
F0.0714
sI68
F0.0714
sI72
F0.2143
sI77
F0.0714
sI84
F0.5
sI56
F0.0714
ss(I86
I85
tp1275
(dp1276
I88
F0.7273
sI65
F0.0909
sI62
F0.0909
sI70
F0.0909
ss(I58
I56
tp1277
(dp1278
I64
F0.1905
sI49
F0.0476
sI56
F0.2381
sI59
F0.0476
sI60
F0.1905
sI61
F0.2381
sI63
F0.0476
ss(I31
I29
tp1279
(dp1280
I36
F0.0714
sI39
F0.0357
sI41
F0.3929
sI24
F0.0714
sI27
F0.0357
sI29
F0.3929
ss(I55
I48
tp1281
(dp1282
I65
F1.0
ss(I53
I32
tp1283
(dp1284
I53
F0.5
sI29
F0.5
ss(I33
I64
tp1285
(dp1286
I64
F0.3611
sI65
F0.1389
sI58
F0.1389
sI57
F0.3611
ss(I72
I75
tp1287
(dp1288
I58
F0.5
sI70
F0.5
ss(I64
I56
tp1289
(dp1290
I64
F0.1071
sI68
F0.0357
sI72
F0.0357
sI51
F0.0357
sI56
F0.2857
sI58
F0.1071
sI61
F0.2857
sI63
F0.1071
ss(I34
I33
tp1291
(dp1292
I33
F0.0625
sI34
F0.0625
sI36
F0.25
sI41
F0.0625
sI45
F0.0625
sI46
F0.125
sI53
F0.125
sI24
F0.25
ss(I58
I34
tp1293
(dp1294
I65
F0.5
sI58
F0.5
ss(I63
I61
tp1295
(dp1296
I64
F0.2667
sI66
F0.1333
sI68
F0.0667
sI73
F0.0667
sI56
F0.0667
sI58
F0.0667
sI60
F0.1333
sI61
F0.1333
sI62
F0.0667
ss(I97
I69
tp1297
(dp1298
I86
F1.0
ss(I55
I46
tp1299
(dp1300
I53
F1.0
ss(I61
I55
tp1301
(dp1302
I60
F1.0
ss(I39
I50
tp1303
(dp1304
I46
F0.5
sI39
F0.5
ss(I74
I65
tp1305
(dp1306
I72
F0.5
sI60
F0.5
ss(I65
I61
tp1307
(dp1308
I65
F1.0
ss(I96
I62
tp1309
(dp1310
I64
F0.3333
sI67
F0.3333
sI91
F0.3333
ss(I54
I65
tp1311
(dp1312
I58
F0.25
sI54
F0.25
sI66
F0.25
sI70
F0.25
ss(I60
I44
tp1313
(dp1314
I58
F1.0
ss(I34
I27
tp1315
(dp1316
I15
F0.25
sI27
F0.5
sI39
F0.25
ss(I39
I34
tp1317
(dp1318
I34
F0.3333
sI27
F0.3333
sI39
F0.3333
ss(I29
I29
tp1319
(dp1320
I32
F0.0087
sI34
F0.013
sI39
F0.05
sI41
F0.2304
sI43
F0.0609
sI46
F0.013
sI15
F0.0326
sI17
F0.1043
sI51
F0.0087
sI27
F0.0826
sI29
F0.3348
sI31
F0.0609
ss(I76
I79
tp1321
(dp1322
I64
F0.3333
sI72
F0.3333
sI76
F0.3333
ss(I68
I60
tp1323
(dp1324
I65
F0.3103
sI66
F0.1034
sI67
F0.1034
sI68
F0.0345
sI70
F0.0345
sI72
F0.0345
sI73
F0.0345
sI55
F0.1034
sI58
F0.0345
sI60
F0.1034
sI63
F0.1034
ss(I24
I29
tp1325
(dp1326
I26
F0.5
sI38
F0.5
ss(I90
I65
tp1327
(dp1328
I98
F1.0
ss(I45
I46
tp1329
(dp1330
I34
F0.125
sI45
F0.25
sI46
F0.125
sI50
F0.125
sI53
F0.25
sI57
F0.125
ss(I67
I65
tp1331
(dp1332
I64
F0.0097
sI65
F0.1553
sI67
F0.0388
sI68
F0.0874
sI69
F0.0971
sI70
F0.0777
sI48
F0.1553
sI72
F0.0194
sI75
F0.0097
sI76
F0.0097
sI79
F0.0097
sI80
F0.0194
sI57
F0.0485
sI60
F0.0583
sI62
F0.0485
sI36
F0.1553
ss(I64
I77
tp1333
(dp1334
I74
F0.5
sI86
F0.5
ss(I70
I62
tp1335
(dp1336
I65
F0.1613
sI67
F0.0968
sI68
F0.0968
sI70
F0.2258
sI72
F0.129
sI74
F0.0323
sI58
F0.0323
sI60
F0.0968
sI62
F0.129
ss(I50
I48
tp1337
(dp1338
I38
F0.1071
sI41
F0.0714
sI45
F0.1071
sI48
F0.3214
sI50
F0.0714
sI60
F0.3214
ss(I68
I67
tp1339
(dp1340
I65
F0.3077
sI66
F0.0769
sI67
F0.0769
sI68
F0.2308
sI70
F0.0769
sI73
F0.0769
sI77
F0.0769
sI79
F0.0769
ss(I60
I96
tp1341
(dp1342
I65
F1.0
ss(I82
I53
tp1343
(dp1344
I68
F0.1
sI72
F0.1
sI75
F0.1
sI80
F0.1
sI53
F0.3
sI58
F0.3
ss(I66
I58
tp1345
(dp1346
I64
F0.04
sI65
F0.1
sI66
F0.1
sI68
F0.02
sI70
F0.06
sI74
F0.02
sI80
F0.02
sI53
F0.02
sI54
F0.04
sI56
F0.02
sI58
F0.24
sI60
F0.06
sI61
F0.04
sI62
F0.06
sI63
F0.16
ss(I80
I77
tp1347
(dp1348
I66
F0.3333
sI67
F0.3333
sI79
F0.3333
ss(I85
I88
tp1349
(dp1350
I61
F1.0
ss(I24
I41
tp1351
(dp1352
I26
F0.5
sI38
F0.5
ss(I46
I60
tp1353
(dp1354
I48
F0.3684
sI57
F0.1053
sI60
F0.3684
sI53
F0.0526
sI45
F0.1053
ss(I70
I73
tp1355
(dp1356
I78
F0.5
sI70
F0.5
ss(I51
I51
tp1357
(dp1358
I36
F0.1176
sI48
F0.1176
sI50
F0.2353
sI51
F0.0588
sI53
F0.1176
sI56
F0.1176
sI58
F0.0588
sI29
F0.1176
sI62
F0.0588
ss(I82
I79
tp1359
(dp1360
I80
F0.5
sI68
F0.5
ss(I52
I52
tp1361
(dp1362
I58
F0.3333
sI50
F0.3333
sI55
F0.3333
ss(I46
I38
tp1363
(dp1364
I46
F0.5
sI39
F0.5
ss(I53
I41
tp1365
(dp1366
I51
F0.25
sI52
F0.75
ss(I69
I31
tp1367
(dp1368
I67
F0.3333
sI69
F0.5
sI62
F0.1667
ss(I57
I46
tp1369
(dp1370
I64
F0.25
sI57
F0.5
sI45
F0.25
ss(I81
I89
tp1371
(dp1372
I81
F1.0
ss(I73
I68
tp1373
(dp1374
I68
F0.5
sI69
F0.5
ss(I58
I45
tp1375
(dp1376
I65
F0.1786
sI34
F0.1786
sI46
F0.1786
sI48
F0.1429
sI58
F0.1786
sI60
F0.1429
ss(I65
I62
tp1377
(dp1378
I64
F0.1587
sI65
F0.127
sI67
F0.0952
sI68
F0.0476
sI69
F0.0794
sI70
F0.0317
sI72
F0.0159
sI55
F0.0476
sI57
F0.127
sI60
F0.1746
sI62
F0.0635
sI63
F0.0317
ss(I74
I72
tp1379
(dp1380
I72
F0.3333
sI76
F0.6667
ss(I75
I74
tp1381
(dp1382
I65
F0.5
sI62
F0.5
ss(I67
I81
tp1383
(dp1384
I65
F0.3333
sI69
F0.3333
sI62
F0.3333
ss(I27
I29
tp1385
(dp1386
I15
F0.1948
sI26
F0.013
sI27
F0.4935
sI39
F0.2987
ss(I36
I38
tp1387
(dp1388
I34
F0.3835
sI36
F0.6165
ss(I41
I53
tp1389
(dp1390
I48
F0.5
sI41
F0.5
ss(I65
I80
tp1391
(dp1392
I67
F0.5
sI79
F0.5
ss(I77
I80
tp1393
(dp1394
I67
F0.5
sI79
F0.5
ss(I39
I48
tp1395
(dp1396
I27
F0.4
sI46
F0.1
sI39
F0.5
ss(I72
I62
tp1397
(dp1398
I58
F0.5
sI70
F0.5
ss(I62
I49
tp1399
(dp1400
I64
F0.5
sI52
F0.5
ss(I45
I39
tp1401
(dp1402
I50
F0.5
sI45
F0.5
ss(I88
I86
tp1403
(dp1404
I89
F0.6667
sI86
F0.3333
ss(I65
I86
tp1405
(dp1406
I96
F0.5
sI88
F0.25
sI62
F0.25
ss(I67
I70
tp1407
(dp1408
I64
F0.0588
sI65
F0.0588
sI67
F0.1765
sI69
F0.2941
sI70
F0.1765
sI58
F0.0588
sI60
F0.1765
ss(I73
I63
tp1409
(dp1410
I72
F0.3333
sI68
F0.3333
sI63
F0.3333
ss(I65
I74
tp1411
(dp1412
I65
F0.375
sI68
F0.125
sI77
F0.125
sI70
F0.125
sI60
F0.25
ss(I44
I60
tp1413
(dp1414
I56
F0.5
sI42
F0.5
ss(I50
I43
tp1415
(dp1416
I41
F0.087
sI43
F0.2609
sI45
F0.1304
sI48
F0.087
sI50
F0.2609
sI51
F0.0435
sI53
F0.1304
ss(I74
I60
tp1417
(dp1418
I72
F0.5
sI68
F0.5
ss(I68
I74
tp1419
(dp1420
I63
F1.0
ss(I66
I70
tp1421
(dp1422
I65
F0.0833
sI66
F0.1667
sI68
F0.0833
sI70
F0.1667
sI80
F0.0833
sI54
F0.1667
sI58
F0.1667
sI62
F0.0833
ss(I41
I31
tp1423
(dp1424
I41
F0.5
sI29
F0.5
ss(I70
I64
tp1425
(dp1426
I64
F0.1852
sI65
F0.1852
sI67
F0.1852
sI68
F0.1852
sI60
F0.1852
sI61
F0.0741
ss(I51
I56
tp1427
(dp1428
I51
F0.0909
sI56
F0.2727
sI58
F0.1364
sI60
F0.3636
sI61
F0.0909
sI63
F0.0455
ss(I58
I69
tp1429
(dp1430
I65
F0.5
sI60
F0.125
sI70
F0.375
ss(I65
I68
tp1431
(dp1432
I48
F0.15
sI67
F0.2
sI60
F0.45
sI53
F0.15
sI79
F0.05
ss(I46
I41
tp1433
(dp1434
I49
F0.1538
sI34
F0.3077
sI51
F0.0769
sI37
F0.1538
sI46
F0.3077
ss(I29
I15
tp1435
(dp1436
I17
F0.5
sI29
F0.5
ss(I53
I50
tp1437
(dp1438
I53
F0.5
sI46
F0.2
sI45
F0.3
ss(I33
I48
tp1439
(dp1440
I34
F1.0
ss(I57
I55
tp1441
(dp1442
I65
F0.1111
sI48
F0.2593
sI57
F0.1111
sI58
F0.1481
sI60
F0.2593
sI62
F0.1111
ss(I81
I82
tp1443
(dp1444
I65
F0.5
sI77
F0.5
ss(I28
I36
tp1445
(dp1446
I27
F1.0
ss(I58
I52
tp1447
(dp1448
I60
F0.0652
sI58
F0.2681
sI52
F0.0652
sI50
F0.2681
sI55
F0.3333
ss(I86
I88
tp1449
(dp1450
I84
F0.3333
sI85
F0.6667
ss(I63
I73
tp1451
(dp1452
I64
F0.25
sI73
F0.25
sI75
F0.25
sI68
F0.25
ss(I55
I60
tp1453
(dp1454
I64
F0.064
sI65
F0.0183
sI68
F0.003
sI69
F0.003
sI70
F0.0061
sI50
F0.2287
sI52
F0.0274
sI55
F0.2744
sI58
F0.2287
sI60
F0.1189
sI62
F0.0274
ss(I29
I41
tp1455
(dp1456
I34
F0.0184
sI39
F0.0706
sI41
F0.3252
sI43
F0.0859
sI46
F0.0184
sI27
F0.0706
sI29
F0.3252
sI31
F0.0859
ss(I33
I46
tp1457
(dp1458
I34
F0.5
sI46
F0.5
ss(I75
I67
tp1459
(dp1460
I72
F0.2
sI73
F0.2
sI66
F0.2
sI60
F0.2
sI70
F0.2
ss(I88
I89
tp1461
(dp1462
I89
F1.0
ss(I60
I34
tp1463
(dp1464
I48
F0.5
sI36
F0.5
ss(I34
I45
tp1465
(dp1466
I33
F0.0714
sI36
F0.2857
sI45
F0.0714
sI46
F0.1429
sI53
F0.1429
sI24
F0.2857
ss(I67
I41
tp1467
(dp1468
I48
F0.5
sI36
F0.5
ss(I65
I41
tp1469
(dp1470
I72
F0.5
sI65
F0.5
ss(I48
I53
tp1471
(dp1472
I33
F0.125
sI68
F0.0313
sI41
F0.0938
sI45
F0.125
sI46
F0.0938
sI48
F0.2188
sI53
F0.3125
ss(I42
I61
tp1473
(dp1474
I54
F1.0
ss(I63
I65
tp1475
(dp1476
I65
F0.15
sI66
F0.0667
sI69
F0.0167
sI70
F0.2
sI74
F0.0333
sI46
F0.0167
sI51
F0.0167
sI78
F0.0167
sI58
F0.2
sI61
F0.0167
sI62
F0.15
sI63
F0.1167
ss(I53
I77
tp1477
(dp1478
I58
F0.5
sI53
F0.5
ss(I43
I48
tp1479
(dp1480
I43
F1.0
ss(I67
I79
tp1481
(dp1482
I65
F0.5
sI77
F0.5
ss(I39
I46
tp1483
(dp1484
I38
F0.0244
sI39
F0.3415
sI45
F0.0488
sI46
F0.3171
sI50
F0.1707
sI27
F0.0976
ss(I65
I67
tp1485
(dp1486
I64
F0.1042
sI65
F0.0625
sI67
F0.0208
sI68
F0.0833
sI90
F0.0208
sI41
F0.0833
sI76
F0.0104
sI79
F0.0208
sI48
F0.0313
sI69
F0.0208
sI52
F0.0729
sI53
F0.125
sI85
F0.0104
sI55
F0.0104
sI58
F0.0104
sI60
F0.0833
sI61
F0.0521
sI62
F0.125
sI63
F0.0521
ss(I48
I62
tp1487
(dp1488
I58
F0.4286
sI46
F0.4286
sI55
F0.1429
ss(I45
I58
tp1489
(dp1490
I57
F0.5
sI45
F0.5
ss(I66
I65
tp1491
(dp1492
I65
F0.1905
sI66
F0.0952
sI70
F0.1429
sI74
F0.0476
sI54
F0.0476
sI58
F0.1905
sI62
F0.1905
sI63
F0.0952
ss(I67
I85
tp1493
(dp1494
I65
F0.3333
sI69
F0.3333
sI62
F0.3333
ss(I51
I46
tp1495
(dp1496
I46
F0.5
sI39
F0.5
ss(I38
I27
tp1497
(dp1498
I27
F0.5
sI39
F0.5
ss(I71
I75
tp1499
(dp1500
I72
F0.3333
sI74
F0.3333
sI79
F0.3333
ss(I31
I38
tp1501
(dp1502
I38
F1.0
ss(I52
I58
tp1503
(dp1504
I60
F0.2754
sI50
F0.058
sI52
F0.2754
sI58
F0.058
sI55
F0.3333
ss(I56
I61
tp1505
(dp1506
I64
F0.2353
sI66
F0.0196
sI68
F0.0196
sI73
F0.0196
sI51
F0.0196
sI52
F0.0784
sI56
F0.2745
sI58
F0.0392
sI60
F0.0588
sI61
F0.1765
sI63
F0.0588
ss(I46
I48
tp1507
(dp1508
I39
F0.069
sI43
F0.0345
sI45
F0.069
sI46
F0.1379
sI48
F0.3103
sI53
F0.069
sI57
F0.069
sI60
F0.2414
ss(I60
I74
tp1509
(dp1510
I58
F0.5
sI70
F0.5
ss(I58
I63
tp1511
(dp1512
I64
F0.026
sI65
F0.0649
sI66
F0.1818
sI67
F0.026
sI68
F0.013
sI70
F0.026
sI75
F0.026
sI53
F0.013
sI54
F0.0519
sI56
F0.0519
sI58
F0.2078
sI60
F0.0779
sI61
F0.026
sI62
F0.039
sI63
F0.1688
ss(I41
I29
tp1513
(dp1514
I34
F0.0182
sI39
F0.0818
sI41
F0.3212
sI43
F0.0848
sI46
F0.0182
sI27
F0.0697
sI29
F0.3212
sI31
F0.0848
ss(I48
I64
tp1515
(dp1516
I60
F1.0
ss(I29
I34
tp1517
(dp1518
I34
F0.6667
sI39
F0.3333
ss(I53
I37
tp1519
(dp1520
I53
F0.5
sI29
F0.5
ss(I57
I34
tp1521
(dp1522
I64
F0.5
sI57
F0.5
ss(I72
I70
tp1523
(dp1524
I65
F0.1176
sI82
F0.2353
sI74
F0.1176
sI70
F0.2353
sI63
F0.2941
ss(I54
I42
tp1525
(dp1526
I65
F1.0
ss(I60
I57
tp1527
(dp1528
I64
F0.5
sI52
F0.5
ss(I34
I36
tp1529
(dp1530
I32
F0.0204
sI33
F0.0136
sI34
F0.5442
sI36
F0.034
sI38
F0.034
sI24
F0.0272
sI31
F0.3265
ss(I67
I46
tp1531
(dp1532
I48
F0.5
sI36
F0.5
ss(I41
I39
tp1533
(dp1534
I41
F0.5
sI29
F0.5
ss(I65
I34
tp1535
(dp1536
I65
F0.5
sI58
F0.5
ss(I61
I60
tp1537
(dp1538
I64
F0.1176
sI42
F0.0588
sI51
F0.0588
sI56
F0.1176
sI58
F0.1176
sI61
F0.2941
sI63
F0.2353
ss(I38
I38
tp1539
(dp1540
I33
F0.0986
sI36
F0.5493
sI38
F0.0986
sI39
F0.0423
sI45
F0.1127
sI46
F0.0423
sI26
F0.0563
ss(I88
I70
tp1541
(dp1542
I64
F0.5
sI67
F0.5
ss(I34
I30
tp1543
(dp1544
I37
F1.0
ss(I67
I52
tp1545
(dp1546
I65
F0.5
sI53
F0.5
ss(I39
I39
tp1547
(dp1548
I34
F0.0217
sI36
F0.0326
sI39
F0.2337
sI41
F0.1848
sI45
F0.0109
sI46
F0.0924
sI48
F0.0217
sI50
F0.038
sI51
F0.0217
sI27
F0.1576
sI29
F0.1848
ss(I63
I58
tp1549
(dp1550
I64
F0.0196
sI65
F0.1176
sI66
F0.098
sI70
F0.098
sI74
F0.0196
sI44
F0.0196
sI58
F0.2157
sI60
F0.1176
sI61
F0.0196
sI62
F0.0588
sI63
F0.2157
ss(I78
I70
tp1551
(dp1552
I73
F1.0
ss(I68
I55
tp1553
(dp1554
I63
F1.0
ss(I24
I24
tp1555
(dp1556
I15
F0.25
sI27
F0.5
sI39
F0.25
ss(I55
I64
tp1557
(dp1558
I65
F0.2593
sI60
F0.3704
sI53
F0.2593
sI55
F0.1111
ss(I53
I72
tp1559
(dp1560
I72
F0.3333
sI65
F0.3333
sI67
F0.1667
sI60
F0.1667
ss(I36
I24
tp1561
(dp1562
I15
F0.25
sI27
F0.5
sI39
F0.25
ss(I29
I24
tp1563
(dp1564
I24
F0.5
sI36
F0.5
ss(I73
I56
tp1565
(dp1566
I72
F0.3333
sI68
F0.3333
sI63
F0.3333
ss(I64
I72
tp1567
(dp1568
I55
F1.0
ss(I27
I27
tp1569
(dp1570
I34
F0.0351
sI36
F0.0351
sI39
F0.1272
sI41
F0.1491
sI46
F0.0175
sI15
F0.0833
sI48
F0.0175
sI17
F0.0702
sI22
F0.0175
sI24
F0.0175
sI27
F0.2105
sI29
F0.2193
ss(I50
I55
tp1571
(dp1572
I60
F0.1847
sI58
F0.1486
sI52
F0.1847
sI50
F0.1486
sI55
F0.3333
ss(I68
I70
tp1573
(dp1574
I64
F0.1395
sI66
F0.0233
sI67
F0.1628
sI68
F0.0233
sI70
F0.093
sI72
F0.0233
sI42
F0.0233
sI75
F0.0233
sI76
F0.0233
sI77
F0.0233
sI79
F0.0233
sI82
F0.0465
sI58
F0.0698
sI60
F0.2326
sI63
F0.0698
ss(I68
I58
tp1575
(dp1576
I66
F0.1
sI70
F0.1
sI42
F0.1
sI82
F0.1
sI58
F0.2
sI60
F0.1
sI63
F0.3
ss(I67
I96
tp1577
(dp1578
I65
F0.5
sI93
F0.5
ss(I39
I27
tp1579
(dp1580
I34
F0.028
sI36
F0.028
sI38
F0.007
sI39
F0.2028
sI41
F0.2378
sI46
F0.028
sI48
F0.028
sI27
F0.2028
sI29
F0.2378
ss(I80
I72
tp1581
(dp1582
I82
F0.5
sI70
F0.5
ss(I24
I36
tp1583
(dp1584
I15
F0.25
sI27
F0.5
sI39
F0.25
ss(I70
I84
tp1585
(dp1586
I65
F0.1
sI68
F0.1
sI72
F0.3
sI77
F0.1
sI84
F0.3
sI56
F0.1
ss(I89
I91
tp1587
(dp1588
I88
F1.0
ss(I51
I44
tp1589
(dp1590
I51
F0.3333
sI61
F0.3333
sI63
F0.3333
ss(I57
I65
tp1591
(dp1592
I64
F0.0377
sI65
F0.1321
sI69
F0.0755
sI70
F0.0189
sI45
F0.1509
sI57
F0.3962
sI58
F0.0755
sI61
F0.0377
sI62
F0.0755
ss(I65
I70
tp1593
(dp1594
I64
F0.0952
sI65
F0.0794
sI66
F0.0317
sI67
F0.127
sI68
F0.0159
sI70
F0.1111
sI75
F0.0317
sI80
F0.0159
sI55
F0.0159
sI58
F0.0476
sI60
F0.1746
sI62
F0.1429
sI63
F0.1111
ss(I64
I60
tp1595
(dp1596
I65
F0.0962
sI67
F0.1346
sI68
F0.0385
sI70
F0.0962
sI72
F0.0385
sI75
F0.0192
sI50
F0.1346
sI55
F0.1346
sI60
F0.0577
sI62
F0.2308
sI63
F0.0192
ss(I31
I31
tp1597
(dp1598
I38
F1.0
ss(I55
I50
tp1599
(dp1600
I40
F0.0078
sI41
F0.0039
sI48
F0.0078
sI50
F0.0313
sI52
F0.293
sI54
F0.0078
sI55
F0.3242
sI58
F0.0313
sI60
F0.293
ss(I62
I48
tp1601
(dp1602
I48
F0.2647
sI60
F0.2647
sI69
F0.2353
sI62
F0.2353
ss(I53
I46
tp1603
(dp1604
I41
F0.0488
sI46
F0.2683
sI48
F0.0976
sI53
F0.4634
sI58
F0.0488
sI29
F0.0488
sI63
F0.0244
ss(I59
I55
tp1605
(dp1606
I60
F0.6667
sI70
F0.3333
ss(I26
I36
tp1607
(dp1608
I26
F0.5
sI38
F0.5
ss(I72
I77
tp1609
(dp1610
I66
F1.0
ss(I73
I65
tp1611
(dp1612
I70
F1.0
ss(I60
I48
tp1613
(dp1614
I64
F0.0833
sI52
F0.0833
sI67
F0.381
sI60
F0.4167
sI55
F0.0357
ss(I17
I29
tp1615
(dp1616
I17
F0.381
sI27
F0.119
sI29
F0.381
sI15
F0.119
ss(I50
I69
tp1617
(dp1618
I64
F0.0241
sI67
F0.0412
sI69
F0.4639
sI38
F0.0378
sI57
F0.0241
sI62
F0.4089
ss(I60
I46
tp1619
(dp1620
I48
F0.3125
sI36
F0.1667
sI50
F0.1875
sI60
F0.1458
sI62
F0.1875
ss(I43
I46
tp1621
(dp1622
I41
F0.2727
sI50
F0.2727
sI43
F0.2727
sI29
F0.1818
ss(I41
I50
tp1623
(dp1624
I48
F0.2
sI41
F0.4
sI50
F0.2
sI55
F0.2
ss(I50
I67
tp1625
(dp1626
I57
F0.4
sI45
F0.2
sI61
F0.4
ss(I61
I47
tp1627
(dp1628
I60
F1.0
ss(I68
I62
tp1629
(dp1630
I64
F0.2308
sI66
F0.0385
sI67
F0.2308
sI58
F0.0385
sI60
F0.3846
sI63
F0.0769
ss(I24
I31
tp1631
(dp1632
I34
F0.5
sI22
F0.5
ss(I22
I24
tp1633
(dp1634
I24
F0.4444
sI36
F0.4444
sI22
F0.1111
ss(I63
I53
tp1635
(dp1636
I44
F0.1429
sI58
F0.2857
sI51
F0.1429
sI60
F0.2857
sI65
F0.1429
ss(I67
I67
tp1637
(dp1638
I65
F0.016
sI67
F0.3209
sI36
F0.0426
sI69
F0.2535
sI70
F0.0018
sI72
F0.016
sI43
F0.0638
sI77
F0.0018
sI48
F0.0567
sI55
F0.0053
sI58
F0.0035
sI31
F0.0638
sI60
F0.0922
sI62
F0.0479
sI63
F0.0142
ss(I64
I79
tp1639
(dp1640
I64
F0.5
sI76
F0.5
ss(I70
I60
tp1641
(dp1642
I65
F0.1923
sI67
F0.0769
sI68
F0.2692
sI70
F0.0385
sI72
F0.0385
sI44
F0.0385
sI56
F0.0385
sI58
F0.0385
sI60
F0.2692
ss(I88
I84
tp1643
(dp1644
I91
F0.5
sI86
F0.5
ss(I50
I46
tp1645
(dp1646
I50
F0.2381
sI43
F0.1429
sI45
F0.3333
sI38
F0.2381
sI55
F0.0476
ss(I68
I77
tp1647
(dp1648
I63
F0.1667
sI66
F0.3333
sI67
F0.1667
sI58
F0.1667
sI79
F0.1667
ss(I69
I89
tp1649
(dp1650
I65
F0.25
sI81
F0.75
ss(I66
I77
tp1651
(dp1652
I58
F0.4
sI54
F0.2
sI66
F0.2
sI70
F0.2
ss(I41
I27
tp1653
(dp1654
I41
F0.5
sI29
F0.5
ss(I56
I66
tp1655
(dp1656
I56
F0.4286
sI60
F0.2857
sI63
F0.2857
ss(I80
I79
tp1657
(dp1658
I65
F0.25
sI67
F0.25
sI77
F0.25
sI79
F0.25
ss(I93
I67
tp1659
(dp1660
I69
F1.0
ss(I60
I65
tp1661
(dp1662
I64
F0.0355
sI65
F0.2249
sI66
F0.0118
sI67
F0.0533
sI68
F0.0769
sI70
F0.0355
sI72
F0.0237
sI75
F0.0059
sI48
F0.1006
sI53
F0.0059
sI55
F0.0178
sI36
F0.0947
sI58
F0.0473
sI60
F0.2012
sI61
F0.0059
sI62
F0.0533
sI63
F0.0059
ss(I24
I43
tp1663
(dp1664
I34
F0.5
sI22
F0.5
ss(I70
I79
tp1665
(dp1666
I80
F0.2
sI65
F0.2
sI68
F0.4
sI60
F0.2
ss(I51
I53
tp1667
(dp1668
I32
F0.1905
sI39
F0.0476
sI46
F0.0476
sI48
F0.1905
sI50
F0.1429
sI51
F0.1905
sI53
F0.1905
ss(I81
I69
tp1669
(dp1670
I64
F0.1667
sI81
F0.1667
sI82
F0.5
sI76
F0.1667
ss(I43
I41
tp1671
(dp1672
I36
F0.069
sI39
F0.0345
sI41
F0.3966
sI45
F0.0172
sI24
F0.069
sI27
F0.0345
sI29
F0.3793
ss(I95
I93
tp1673
(dp1674
I93
F1.0
ss(I78
I63
tp1675
(dp1676
I80
F0.5
sI68
F0.5
ss(I84
I86
tp1677
(dp1678
I82
F0.8333
sI70
F0.1667
ss(I46
I65
tp1679
(dp1680
I64
F0.0333
sI65
F0.3333
sI67
F0.1333
sI57
F0.0333
sI58
F0.3333
sI60
F0.1333
ss(I56
I49
tp1681
(dp1682
I56
F1.0
ss(I46
I36
tp1683
(dp1684
I45
F1.0
ss(I53
I64
tp1685
(dp1686
I57
F0.3684
sI67
F0.1316
sI45
F0.3684
sI55
F0.1316
ss(I62
I66
tp1687
(dp1688
I66
F0.1818
sI68
F0.0455
sI69
F0.0455
sI70
F0.0909
sI75
F0.0909
sI56
F0.0455
sI58
F0.1364
sI60
F0.0909
sI63
F0.2727
ss(I73
I74
tp1689
(dp1690
I72
F0.2
sI71
F0.8
ss(I36
I51
tp1691
(dp1692
I48
F0.5
sI36
F0.5
ss(I63
I66
tp1693
(dp1694
I65
F0.0833
sI46
F0.0833
sI51
F0.0833
sI58
F0.5833
sI60
F0.0833
sI62
F0.0833
ss(I96
I94
tp1695
(dp1696
I91
F1.0
ss(I29
I46
tp1697
(dp1698
I41
F1.0
ss(I62
I45
tp1699
(dp1700
I69
F0.5
sI62
F0.5
ss(I36
I32
tp1701
(dp1702
I48
F0.3333
sI36
F0.3333
sI39
F0.3333
ss(I43
I39
tp1703
(dp1704
I48
F1.0
ss(I67
I34
tp1705
(dp1706
I48
F0.5
sI36
F0.5
ss(I26
I38
tp1707
(dp1708
I33
F0.35
sI26
F0.2
sI45
F0.25
sI38
F0.2
ss(I32
I29
tp1709
(dp1710
I32
F0.4444
sI34
F0.1111
sI51
F0.4444
ss(I78
I80
tp1711
(dp1712
I80
F0.5
sI68
F0.5
ss(I76
I64
tp1713
(dp1714
I65
F0.5
sI77
F0.5
ss(I89
I88
tp1715
(dp1716
I81
F0.3333
sI91
F0.3333
sI69
F0.3333
ss(I38
I42
tp1717
(dp1718
I34
F1.0
ss(I62
I55
tp1719
(dp1720
I65
F0.0109
sI55
F0.2982
sI57
F0.0109
sI58
F0.2982
sI60
F0.0727
sI62
F0.3091
ss(I67
I72
tp1721
(dp1722
I67
F0.1304
sI36
F0.1739
sI72
F0.3261
sI48
F0.1739
sI60
F0.1087
sI62
F0.087
ss(I73
I61
tp1723
(dp1724
I63
F1.0
ss(I65
I72
tp1725
(dp1726
I65
F0.2047
sI67
F0.0866
sI68
F0.0079
sI72
F0.3386
sI41
F0.126
sI80
F0.0079
sI53
F0.126
sI58
F0.0157
sI60
F0.0787
sI63
F0.0079
ss(I70
I55
tp1727
(dp1728
I65
F1.0
ss(I64
I55
tp1729
(dp1730
I48
F0.0769
sI65
F0.0769
sI60
F0.3846
sI62
F0.2308
sI55
F0.2308
ss(I50
I41
tp1731
(dp1732
I41
F0.4
sI50
F0.4
sI55
F0.2
ss(I74
I58
tp1733
(dp1734
I66
F0.2
sI75
F0.2
sI58
F0.2
sI70
F0.2
sI63
F0.2
ss(I48
I57
tp1735
(dp1736
I64
F0.5
sI52
F0.5
ss(I69
I66
tp1737
(dp1738
I72
F0.1667
sI74
F0.1667
sI77
F0.1667
sI70
F0.3333
sI71
F0.1667
ss(I66
I68
tp1739
(dp1740
I65
F0.1429
sI68
F0.0714
sI69
F0.0714
sI70
F0.0714
sI80
F0.0714
sI58
F0.3571
sI61
F0.0714
sI62
F0.1429
ss(I61
I45
tp1741
(dp1742
I64
F0.4375
sI52
F0.4375
sI45
F0.125
ss(I80
I70
tp1743
(dp1744
I82
F0.3333
sI67
F0.1667
sI70
F0.3333
sI79
F0.1667
ss(I70
I70
tp1745
(dp1746
I65
F0.1392
sI66
F0.038
sI67
F0.0506
sI68
F0.0253
sI69
F0.0506
sI70
F0.2532
sI74
F0.0253
sI75
F0.0253
sI80
F0.0127
sI54
F0.0253
sI55
F0.0127
sI58
F0.0633
sI60
F0.0633
sI62
F0.0506
sI63
F0.1646
ss(I71
I76
tp1747
(dp1748
I68
F1.0
ss(I68
I82
tp1749
(dp1750
I66
F0.1429
sI67
F0.1429
sI70
F0.2857
sI79
F0.1429
sI82
F0.1429
sI58
F0.1429
ss(I51
I58
tp1751
(dp1752
I56
F0.1429
sI58
F0.1429
sI51
F0.1429
sI60
F0.4286
sI50
F0.1429
ss(I58
I67
tp1753
(dp1754
I65
F0.5
sI70
F0.5
ss(I82
I68
tp1755
(dp1756
I80
F0.25
sI81
F0.25
sI68
F0.25
sI69
F0.25
ss(I55
I67
tp1757
(dp1758
I65
F0.5
sI60
F0.25
sI62
F0.25
ss(I65
I54
tp1759
(dp1760
I60
F1.0
ss(I56
I56
tp1761
(dp1762
I64
F0.0721
sI66
F0.018
sI68
F0.009
sI73
F0.009
sI51
F0.0631
sI53
F0.0631
sI56
F0.5495
sI58
F0.0631
sI60
F0.027
sI61
F0.0811
sI63
F0.045
ss(I62
I69
tp1763
(dp1764
I64
F0.0144
sI65
F0.0055
sI67
F0.0188
sI69
F0.3259
sI38
F0.1486
sI50
F0.1596
sI57
F0.0133
sI58
F0.0033
sI61
F0.0022
sI62
F0.3082
ss(I60
I77
tp1765
(dp1766
I58
F0.3333
sI66
F0.3333
sI63
F0.3333
ss(I57
I53
tp1767
(dp1768
I57
F0.5
sI68
F0.0455
sI45
F0.3636
sI61
F0.0909
ss(I47
I46
tp1769
(dp1770
I49
F0.5
sI61
F0.5
ss(I65
I64
tp1771
(dp1772
I64
F0.0515
sI65
F0.1544
sI34
F0.0735
sI67
F0.1029
sI68
F0.0368
sI69
F0.0147
sI45
F0.1029
sI46
F0.0735
sI79
F0.0074
sI58
F0.0735
sI53
F0.0147
sI55
F0.0368
sI57
F0.1029
sI90
F0.0147
sI60
F0.0368
sI61
F0.0515
sI62
F0.0441
sI85
F0.0074
ss(I64
I58
tp1773
(dp1774
I56
F0.4286
sI64
F0.1429
sI60
F0.1429
sI57
F0.1429
sI63
F0.1429
ss(I65
I53
tp1775
(dp1776
I72
F0.4848
sI65
F0.4848
sI53
F0.0303
ss(I55
I62
tp1777
(dp1778
I64
F0.0113
sI65
F0.0113
sI55
F0.3346
sI57
F0.0113
sI58
F0.297
sI59
F0.0038
sI60
F0.0113
sI62
F0.3195
ss(I29
I39
tp1779
(dp1780
I41
F0.5
sI29
F0.5
ss(I59
I59
tp1781
(dp1782
I55
F1.0
ss(I72
I65
tp1783
(dp1784
I65
F0.3008
sI67
F0.1203
sI70
F0.0075
sI72
F0.2331
sI41
F0.1203
sI53
F0.1203
sI60
F0.0902
sI63
F0.0075
ss(I64
I46
tp1785
(dp1786
I64
F0.5
sI57
F0.5
ss(I88
I91
tp1787
(dp1788
I64
F0.5
sI67
F0.5
ss(I60
I60
tp1789
(dp1790
I64
F0.0208
sI65
F0.0915
sI66
F0.0042
sI67
F0.131
sI68
F0.0166
sI69
F0.0208
sI70
F0.0125
sI72
F0.0249
sI75
F0.0021
sI36
F0.0499
sI48
F0.0665
sI50
F0.079
sI52
F0.0146
sI55
F0.1227
sI57
F0.0083
sI58
F0.104
sI59
F0.0166
sI60
F0.1622
sI62
F0.0457
sI63
F0.0062
ss(I52
I65
tp1791
(dp1792
I65
F0.5833
sI53
F0.4167
ss(I67
I43
tp1793
(dp1794
I67
F0.5
sI69
F0.5
ss(I37
I46
tp1795
(dp1796
I49
F0.5
sI37
F0.5
ss(I38
I45
tp1797
(dp1798
I38
F0.25
sI45
F0.25
sI46
F0.25
sI39
F0.25
ss(I62
I62
tp1799
(dp1800
I64
F0.006
sI65
F0.0069
sI67
F0.0155
sI68
F0.0026
sI69
F0.2399
sI70
F0.0043
sI50
F0.1242
sI53
F0.0043
sI55
F0.0708
sI57
F0.0086
sI58
F0.0751
sI38
F0.1156
sI60
F0.0138
sI62
F0.3046
sI63
F0.0078
ss(I88
I65
tp1801
(dp1802
I64
F0.5
sI67
F0.5
ss(I69
I33
tp1803
(dp1804
I69
F0.75
sI62
F0.25
ss(I43
I50
tp1805
(dp1806
I41
F0.069
sI43
F0.3103
sI45
F0.1034
sI48
F0.069
sI50
F0.3103
sI51
F0.0345
sI53
F0.1034
ss(I67
I69
tp1807
(dp1808
I65
F0.008
sI66
F0.0106
sI67
F0.3501
sI69
F0.4032
sI43
F0.0955
sI60
F0.0053
sI62
F0.0318
sI31
F0.0955
ss(I39
I40
tp1809
(dp1810
I38
F0.2
sI46
F0.4
sI39
F0.4
ss(I63
I63
tp1811
(dp1812
I65
F0.0571
sI66
F0.0429
sI67
F0.0571
sI70
F0.0571
sI72
F0.0571
sI51
F0.0143
sI56
F0.0143
sI58
F0.0857
sI60
F0.0286
sI62
F0.2429
sI63
F0.3429
ss(I48
I48
tp1813
(dp1814
I64
F0.1045
sI39
F0.1493
sI40
F0.0299
sI41
F0.1343
sI46
F0.0597
sI48
F0.1642
sI50
F0.0299
sI52
F0.1045
sI53
F0.1045
sI27
F0.1194
ss(I69
I75
tp1815
(dp1816
I74
F0.5
sI69
F0.5
ss(I49
I61
tp1817
(dp1818
I56
F0.2
sI50
F0.4
sI62
F0.4
ss(I70
I86
tp1819
(dp1820
I96
F0.6667
sI88
F0.3333
ss(I43
I67
tp1821
(dp1822
I67
F0.3333
sI69
F0.5
sI62
F0.1667
ss(I50
I58
tp1823
(dp1824
I60
F0.3333
sI52
F0.3333
sI55
F0.3333
ss(I71
I69
tp1825
(dp1826
I72
F0.1111
sI69
F0.8889
ss(I58
I74
tp1827
(dp1828
I65
F0.5
sI60
F0.25
sI62
F0.25
ss(I61
I85
tp1829
(dp1830
I64
F0.5
sI69
F0.5
ss(I56
I63
tp1831
(dp1832
I51
F0.2857
sI60
F0.1429
sI61
F0.1429
sI63
F0.4286
ss(I53
I57
tp1833
(dp1834
I60
F0.8824
sI55
F0.1176
ss(I60
I68
tp1835
(dp1836
I65
F0.1724
sI67
F0.1034
sI68
F0.1379
sI70
F0.1724
sI72
F0.0345
sI75
F0.0345
sI58
F0.0345
sI60
F0.1379
sI62
F0.1724
ss(I57
I62
tp1837
(dp1838
I64
F0.027
sI65
F0.0811
sI69
F0.027
sI70
F0.0811
sI45
F0.2162
sI55
F0.0811
sI57
F0.1622
sI58
F0.0811
sI62
F0.1892
sI63
F0.0541
ss(I54
I54
tp1839
(dp1840
I66
F0.2
sI68
F0.1
sI70
F0.2
sI80
F0.1
sI54
F0.2
sI58
F0.2
ss(I58
I61
tp1841
(dp1842
I66
F0.1429
sI54
F0.0714
sI56
F0.2857
sI58
F0.1429
sI60
F0.0714
sI61
F0.2857
ss(I55
I55
tp1843
(dp1844
I65
F0.0039
sI50
F0.1078
sI52
F0.1091
sI55
F0.3273
sI57
F0.0039
sI58
F0.2104
sI60
F0.1169
sI62
F0.1208
ss(I61
I64
tp1845
(dp1846
I44
F0.0909
sI49
F0.0909
sI56
F0.5455
sI58
F0.0909
sI60
F0.0909
sI63
F0.0909
ss(I62
I86
tp1847
(dp1848
I96
F0.6667
sI88
F0.3333
ss(I49
I46
tp1849
(dp1850
I49
F0.5
sI37
F0.5
ss(I72
I72
tp1851
(dp1852
I65
F0.2294
sI67
F0.1284
sI72
F0.2477
sI41
F0.1468
sI53
F0.1468
sI60
F0.1009
ss(I60
I59
tp1853
(dp1854
I60
F1.0
ss(I34
I34
tp1855
(dp1856
I32
F0.011
sI36
F0.022
sI41
F0.011
sI43
F0.022
sI48
F0.022
sI29
F0.022
sI31
F0.8901
ss(I97
I64
tp1857
(dp1858
I86
F1.0
ss(I53
I51
tp1859
(dp1860
I56
F0.3333
sI58
F0.3333
sI53
F0.1667
sI29
F0.1667
ss(I61
I58
tp1861
(dp1862
I64
F0.1364
sI65
F0.0455
sI66
F0.0455
sI56
F0.5
sI60
F0.0909
sI61
F0.0909
sI63
F0.0909
ss(I77
I64
tp1863
(dp1864
I67
F0.5
sI79
F0.5
ss(I74
I66
tp1865
(dp1866
I66
F0.1111
sI70
F0.1111
sI73
F0.4444
sI75
F0.1111
sI58
F0.1111
sI63
F0.1111
ss(I38
I36
tp1867
(dp1868
I26
F0.1951
sI36
F0.6098
sI38
F0.1951
ss(I62
I33
tp1869
(dp1870
I69
F0.5
sI62
F0.5
ss(I54
I66
tp1871
(dp1872
I66
F0.2
sI68
F0.1
sI70
F0.2
sI80
F0.1
sI54
F0.2
sI58
F0.2
ss(I43
I43
tp1873
(dp1874
I36
F0.0833
sI41
F0.0556
sI43
F0.25
sI45
F0.0833
sI48
F0.25
sI50
F0.1667
sI51
F0.0278
sI53
F0.0833
ss(I78
I68
tp1875
(dp1876
I80
F0.5
sI68
F0.5
ss(I76
I76
tp1877
(dp1878
I65
F0.5
sI77
F0.5
ss(I24
I26
tp1879
(dp1880
I34
F0.6667
sI22
F0.3333
ss(I48
I55
tp1881
(dp1882
I40
F0.25
sI48
F0.25
sI53
F0.5
ss(I38
I62
tp1883
(dp1884
I64
F0.0267
sI57
F0.0267
sI67
F0.0458
sI69
F0.4809
sI62
F0.4198
ss(I15
I34
tp1885
(dp1886
I27
F0.5
sI15
F0.5
ss(I49
I54
tp1887
(dp1888
I61
F1.0
ss(I97
I61
tp1889
(dp1890
I86
F1.0
ss(I70
I59
tp1891
(dp1892
I65
F0.3333
sI53
F0.3333
sI46
F0.3333
ss(I48
I69
tp1893
(dp1894
I64
F0.5
sI52
F0.5
ss(I64
I53
tp1895
(dp1896
I65
F0.5833
sI53
F0.4167
ss(I68
I64
tp1897
(dp1898
I64
F0.1667
sI73
F0.3333
sI66
F0.1667
sI68
F0.1667
sI70
F0.1667
ss(I64
I96
tp1899
(dp1900
I65
F0.5
sI93
F0.5
ss(I45
I66
tp1901
(dp1902
I57
F0.5
sI45
F0.5
ss(I46
I57
tp1903
(dp1904
I48
F0.5
sI60
F0.5
ss(I29
I31
tp1905
(dp1906
I32
F0.0204
sI41
F0.4898
sI29
F0.4898
ss(I60
I67
tp1907
(dp1908
I65
F0.0377
sI67
F0.2877
sI36
F0.1132
sI69
F0.0472
sI70
F0.0047
sI72
F0.0425
sI48
F0.1509
sI55
F0.0142
sI58
F0.0094
sI60
F0.2453
sI62
F0.0472
ss(I82
I80
tp1909
(dp1910
I68
F0.1667
sI69
F0.1667
sI72
F0.1667
sI80
F0.1667
sI81
F0.1667
sI84
F0.1667
ss(I85
I69
tp1911
(dp1912
I86
F1.0
ss(I56
I44
tp1913
(dp1914
I56
F0.25
sI67
F0.25
sI66
F0.25
sI51
F0.25
ss(I27
I41
tp1915
(dp1916
I27
F0.5
sI39
F0.5
ss(I65
I48
tp1917
(dp1918
I41
F0.5
sI53
F0.5
ss(I38
I69
tp1919
(dp1920
I64
F0.0267
sI57
F0.0267
sI67
F0.0458
sI69
F0.4809
sI62
F0.4198
ss(I73
I71
tp1921
(dp1922
I68
F1.0
ss(I86
I67
tp1923
(dp1924
I65
F1.0
ss(I65
I66
tp1925
(dp1926
I65
F0.04
sI66
F0.16
sI68
F0.04
sI70
F0.08
sI75
F0.08
sI56
F0.04
sI58
F0.16
sI60
F0.08
sI62
F0.04
sI63
F0.28
ss(I58
I46
tp1927
(dp1928
I65
F0.4762
sI58
F0.5
sI53
F0.0238
ss(I41
I46
tp1929
(dp1930
I48
F0.5
sI41
F0.5
ss(I65
I57
tp1931
(dp1932
I65
F0.2714
sI34
F0.1429
sI70
F0.0571
sI46
F0.1429
sI55
F0.0429
sI57
F0.0714
sI58
F0.2
sI62
F0.0429
sI63
F0.0286
ss(I61
I51
tp1933
(dp1934
I56
F0.5
sI58
F0.25
sI63
F0.25
ss(I74
I77
tp1935
(dp1936
I72
F0.5
sI60
F0.5
ss(I66
I62
tp1937
(dp1938
I65
F0.3077
sI58
F0.2308
sI74
F0.0769
sI70
F0.0769
sI62
F0.3077
ss(I65
I60
tp1939
(dp1940
I65
F0.3571
sI67
F0.0476
sI68
F0.0714
sI70
F0.0159
sI72
F0.0556
sI41
F0.0635
sI53
F0.0714
sI58
F0.0556
sI60
F0.1825
sI62
F0.0635
sI63
F0.0159
ss(I67
I63
tp1941
(dp1942
I67
F0.3077
sI69
F0.0769
sI62
F0.3077
sI63
F0.3077
ss(I41
I48
tp1943
(dp1944
I48
F0.2105
sI41
F0.4211
sI50
F0.2105
sI53
F0.1579
ss(I69
I63
tp1945
(dp1946
I74
F0.5
sI69
F0.5
ss(I79
I71
tp1947
(dp1948
I65
F0.3333
sI62
F0.3333
sI70
F0.3333
ss(I68
I56
tp1949
(dp1950
I72
F0.25
sI66
F0.25
sI68
F0.25
sI63
F0.25
ss(I48
I46
tp1951
(dp1952
I36
F0.0476
sI46
F0.0476
sI48
F0.2619
sI50
F0.2143
sI53
F0.0476
sI60
F0.1667
sI62
F0.2143
ss(I86
I84
tp1953
(dp1954
I88
F1.0
ss(I62
I50
tp1955
(dp1956
I64
F0.0082
sI69
F0.4776
sI38
F0.0122
sI50
F0.0163
sI52
F0.0082
sI62
F0.4776
ss(I69
I61
tp1957
(dp1958
I65
F0.3182
sI86
F0.0455
sI62
F0.3182
sI70
F0.3182
ss(I49
I47
tp1959
(dp1960
I60
F1.0
ss(I64
I65
tp1961
(dp1962
I64
F0.0333
sI65
F0.2833
sI68
F0.0167
sI69
F0.15
sI70
F0.0833
sI97
F0.0167
sI72
F0.0167
sI74
F0.0167
sI75
F0.0167
sI53
F0.0833
sI86
F0.0333
sI57
F0.1
sI62
F0.15
ss(I26
I27
tp1963
(dp1964
I24
F0.2
sI27
F0.4
sI39
F0.4
ss(I41
I65
tp1965
(dp1966
I72
F0.3333
sI65
F0.3333
sI67
F0.1667
sI60
F0.1667
ss(I68
I79
tp1967
(dp1968
I65
F0.25
sI67
F0.25
sI77
F0.25
sI79
F0.25
ss(I69
I71
tp1969
(dp1970
I81
F0.0769
sI67
F0.7692
sI69
F0.0769
sI62
F0.0769
ss(I66
I75
tp1971
(dp1972
I69
F0.5
sI70
F0.5
ss(I67
I88
tp1973
(dp1974
I89
F1.0
ss(I80
I65
tp1975
(dp1976
I66
F0.25
sI67
F0.25
sI78
F0.25
sI79
F0.25
ss(I53
I56
tp1977
(dp1978
I56
F0.4815
sI51
F0.1481
sI53
F0.2222
sI55
F0.1481
ss(I70
I77
tp1979
(dp1980
I58
F0.25
sI54
F0.25
sI66
F0.25
sI70
F0.25
ss(I58
I70
tp1981
(dp1982
I65
F0.125
sI66
F0.125
sI68
F0.0417
sI70
F0.25
sI75
F0.0417
sI80
F0.0417
sI54
F0.0833
sI58
F0.125
sI62
F0.0417
sI63
F0.125
ss(I82
I75
tp1983
(dp1984
I72
F0.5
sI84
F0.5
ss(I52
I48
tp1985
(dp1986
I50
F0.25
sI67
F0.25
sI62
F0.25
sI55
F0.25
sssS'mode'
p1987
I1
sS'before'
p1988
I0
sb.