ccopy_reg
_reconstructor
p0
(cmarkov_sequences
Markov
p1
c__builtin__
object
p2
Ntp3
Rp4
(dp5
S'after'
p6
I1
sS'state_dict'
p7
(dp8
(F0.0
tp9
(dp10
F-0.75
F0.03143977246521639
sF-0.25
F0.34376201091552
sF-2.5
F0.005304020293642863
sF-46.5
F7.686985932815743e-05
sF-0.5
F0.2405257898378046
sF-18.5
F0.0002306095779844723
sF-0.1667
F0.019524944269351988
sF-1.5
F0.04765931278345761
sF-6.25
F7.686985932815743e-05
sF-1.75
F0.0009993081712660467
sF-59.6667
F7.686985932815743e-05
sF-3.5
F0.0009224383119378892
sF-2.25
F0.0006149588746252595
sF-32.5
F7.686985932815743e-05
sF-155.3333
F7.686985932815743e-05
sF-50.6666
F7.686985932815743e-05
sF-6.5
F0.00038434929664078716
sF-5.6667
F0.0002306095779844723
sF-63.0
F0.00015373971865631486
sF-3.6667
F7.686985932815743e-05
sF-11.75
F7.686985932815743e-05
sF-5.75
F0.0011530478899223614
sF-26.5
F7.686985932815743e-05
sF-2.6667
F0.0002306095779844723
sF-48.75
F7.686985932815743e-05
sF-3.25
F7.686985932815743e-05
sF-36.5
F7.686985932815743e-05
sF-9.5
F0.00015373971865631486
sF-5.5
F0.0004612191559689446
sF-0.6667
F0.00015373971865631486
sF-128.5
F7.686985932815743e-05
sF-9.75
F0.00015373971865631486
sF-0.3334
F0.00038434929664078716
sF-22.5
F7.686985932815743e-05
sF-45.75
F7.686985932815743e-05
sF-1.25
F0.0009993081712660467
sF-3.3333
F0.0006918287339534168
sF-12.75
F0.00015373971865631486
sF-177.0
F7.686985932815743e-05
sF-61.25
F7.686985932815743e-05
sF-156.0
F7.686985932815743e-05
sF-154.0
F7.686985932815743e-05
sF-27.3333
F7.686985932815743e-05
sF-59.75
F7.686985932815743e-05
sF-0.3333
F0.0015373971865631486
sF-1.6667
F0.0007686985932815743
sF-4.0
F0.014220923975709125
sF-0.0833
F0.019371204550695673
sF-58.25
F7.686985932815743e-05
sF-84.0
F7.686985932815743e-05
sF-75.0
F7.686985932815743e-05
sF-72.0
F7.686985932815743e-05
sF-23.5
F7.686985932815743e-05
sF-57.0
F7.686985932815743e-05
sF-56.0
F7.686985932815743e-05
sF-53.0
F0.00015373971865631486
sF-52.0
F0.00015373971865631486
sF-51.0
F7.686985932815743e-05
sF-51.6667
F7.686985932815743e-05
sF-48.0
F7.686985932815743e-05
sF-2.75
F0.00030747943731262973
sF-40.0
F0.00015373971865631486
sF-37.0
F7.686985932815743e-05
sF-36.0
F0.00015373971865631486
sF-35.0
F7.686985932815743e-05
sF-3.75
F0.00015373971865631486
sF-33.0
F0.00030747943731262973
sF-11.5
F0.00015373971865631486
sF-30.0
F7.686985932815743e-05
sF-239.75
F7.686985932815743e-05
sF-27.0
F0.00015373971865631486
sF-27.5
F7.686985932815743e-05
sF-24.0
F7.686985932815743e-05
sF-23.0
F0.00015373971865631486
sF-21.0
F0.0006918287339534168
sF-20.0
F7.686985932815743e-05
sF-18.0
F0.000538089015297102
sF-15.0
F7.686985932815743e-05
sF-12.0
F0.0031516642324544548
sF-2.0
F0.018986855254054885
sF-10.0
F0.0002306095779844723
sF-9.0
F0.000538089015297102
sF-8.0
F0.0008455684526097317
sF-7.0
F0.0009993081712660467
sF-6.0
F0.008378814666769159
sF-5.0
F0.0019986163425320933
sF-4.5
F0.0004612191559689446
sF-3.0
F0.02336843723575986
sF-1.0
F0.2027826889076793
sssS'mode'
p11
I1
sS'before'
p12
I0
sb.