ccopy_reg
_reconstructor
p0
(cmarkov_sequences
Markov
p1
c__builtin__
object
p2
Ntp3
Rp4
(dp5
S'after'
p6
I1
sS'state_dict'
p7
(dp8
((F0.0
tp9
(F63.25
tp10
tp11
(dp12
F0.25
F0.5
sF63.0
F0.5
ss((F0.0
tp13
(F15.0
tp14
tp15
(dp16
F9.0
F0.1667
sF3.0
F0.3333
sF12.0
F0.3333
sF6.0
F0.1667
ss((F0.0
tp17
(F33.5
tp18
tp19
(dp20
F0.5
F0.3333
sF33.0
F0.3333
sF32.5
F0.1667
sF1.0
F0.1667
ss((F0.0
tp21
(F6.25
tp22
tp23
(dp24
F0.25
F0.5
sF3.0
F0.1667
sF6.0
F0.3333
ss((F0.0
tp25
(F7.5
tp26
tp27
(dp28
F3.5
F0.0625
sF0.5
F0.25
sF4.0
F0.1875
sF7.0
F0.5
ss((F0.0
tp29
(F11.0
tp30
tp31
(dp32
F10.0
F0.2
sF6.0
F0.8
ss((F0.0
tp33
(F0.6667
tp34
tp35
(dp36
F0.3334
F0.4444
sF0.3333
F0.5556
ss((F0.0
tp37
(F2.0
tp38
tp39
(dp40
F1.5
F0.0853
sF1.0
F0.7776
sF0.5
F0.1279
sF0.25
F0.0021
sF0.75
F0.0015
sF1.25
F0.0021
sF1.75
F0.0036
ss((F0.0
tp41
(F63.0
tp42
tp43
(dp44
F6.0
F1.0
ss((F0.0
tp45
(F15.5
tp46
tp47
(dp48
F15.0
F1.0
ss((F0.0
tp49
(F52.25
tp50
tp51
(dp52
F0.25
F1.0
ss((F0.0
tp53
(F24.0
tp54
tp55
(dp56
F0.5
F0.0278
sF1.0
F0.0278
sF3.0
F0.1667
sF4.0
F0.0278
sF23.5
F0.0278
sF12.0
F0.4722
sF21.0
F0.2222
sF23.0
F0.0278
ss((F0.0
tp57
(F54.0
tp58
tp59
(dp60
F1.0
F0.5
sF53.0
F0.5
ss((F0.0
tp61
(F43.5
tp62
tp63
(dp64
F40.0
F1.0
ss((F0.0
tp65
(F50.0
tp66
tp67
(dp68
F1.25
F1.0
ss((F0.0
tp69
(F64.0
tp70
tp71
(dp72
F56.0
F0.3333
sF1.0
F0.3333
sF63.0
F0.3333
ss((F0.0
tp73
(F76.0
tp74
tp75
(dp76
F72.0
F0.5
sF4.0
F0.5
ss((F0.0
tp77
(F2.5
tp78
tp79
(dp80
F0.5
F0.0443
sF1.0
F0.3326
sF2.0
F0.02
sF0.25
F0.0133
sF1.75
F0.0133
sF1.5
F0.5765
ss((F0.0
tp81
(F1.0
tp82
tp83
(dp84
F0.75
F0.1621
sF0.5
F0.8007
sF0.25
F0.0367
sF0.3333
F0.0005
ss((F0.0
tp85
(F13.0
tp86
tp87
(dp88
F0.25
F0.25
sF1.0
F0.125
sF12.0
F0.375
sF12.75
F0.25
ss((F0.0
tp89
(F27.0
tp90
tp91
(dp92
F26.5
F0.5
sF3.0
F0.5
ss((F0.0
tp93
(F4.0
tp94
tp95
(dp96
F0.5
F0.0202
sF1.0
F0.1984
sF2.0
F0.3806
sF3.0
F0.1498
sF3.5
F0.0364
sF2.75
F0.004
sF1.5
F0.0972
sF2.5
F0.1053
sF3.75
F0.0081
ss((F0.0
tp97
(F53.0
tp98
tp99
(dp100
F52.0
F1.0
ss((F0.0
tp101
(F30.0
tp102
tp103
(dp104
F3.0
F1.0
ss((F0.0
tp105
(F0.25
tp106
tp107
(dp108
F0.1667
F0.5203
sF0.0833
F0.4797
ss((F0.0
tp109
(F0.5833
tp110
tp111
(dp112
F0.25
F0.25
sF0.3333
F0.75
ss((F0.0
tp113
(F1.75
tp114
tp115
(dp116
F0.75
F0.1007
sF1.0
F0.7535
sF0.5
F0.0208
sF1.5
F0.0382
sF0.25
F0.0868
ss((F0.0
tp117
(F40.0
tp118
tp119
(dp120
F4.0
F1.0
ss((F0.0
tp121
(F52.0
tp122
tp123
(dp124
F1.0
F0.5
sF51.0
F0.5
ss((F0.0
tp125
(F75.25
tp126
tp127
(dp128
F0.25
F1.0
ss((F0.0
tp129
(F59.75
tp130
tp131
(dp132
F0.0833
F1.0
ss((F0.0
tp133
(F3.0
tp134
tp135
(dp136
F0.5
F0.0811
sF1.0
F0.1514
sF2.0
F0.3081
sF1.5
F0.3622
sF0.25
F0.0054
sF0.75
F0.0054
sF2.6667
F0.0027
sF2.75
F0.0054
sF2.5
F0.0784
ss((F0.0
tp137
(F129.5
tp138
tp139
(dp140
F1.0
F1.0
ss((F0.0
tp141
(F6.5
tp142
tp143
(dp144
F1.0
F0.6667
sF4.0
F0.3333
ss((F0.0
tp145
(F25.0
tp146
tp147
(dp148
F24.0
F1.0
ss((F0.0
tp149
(F51.0
tp150
tp151
(dp152
F3.0
F1.0
ss((F0.0
tp153
(F53.1667
tp154
tp155
(dp156
F51.6667
F1.0
ss((F0.0
tp157
(F3.1667
tp158
tp159
(dp160
F1.5
F1.0
ss((F0.0
tp161
(F10.25
tp162
tp163
(dp164
F0.25
F1.0
ss((F0.0
tp165
(F77.0
tp166
tp167
(dp168
F75.0
F1.0
ss((F0.0
tp169
(F29.0
tp170
tp171
(dp172
F1.5
F0.3333
sF27.5
F0.3333
sF1.6667
F0.3333
ss((F0.0
tp173
(F38.5
tp174
tp175
(dp176
F36.5
F1.0
ss((F0.0
tp177
(F4.75
tp178
tp179
(dp180
F4.0
F1.0
ss((F0.0
tp181
(F2.6667
tp182
tp183
(dp184
F2.5
F1.0
ss((F0.0
tp185
(F0.75
tp186
tp187
(dp188
F0.25
F0.5274
sF0.5
F0.4719
sF0.6667
F0.0007
ss((F0.0
tp189
(F28.0
tp190
tp191
(dp192
F27.0
F1.0
ss((F0.0
tp193
(F41.0
tp194
tp195
(dp196
F37.0
F1.0
ss((F0.0
tp197
(F7.25
tp198
tp199
(dp200
F7.0
F1.0
ss((F0.0
tp201
(F62.25
tp202
tp203
(dp204
F61.25
F1.0
ss((F0.0
tp205
(F5.9167
tp206
tp207
(dp208
F0.25
F1.0
ss((F0.0
tp209
(F3.75
tp210
tp211
(dp212
F3.5
F0.4
sF0.25
F0.4
sF3.0
F0.2
ss((F0.0
tp213
(F15.75
tp214
tp215
(dp216
F6.0
F1.0
ss((F0.0
tp217
(F53.25
tp218
tp219
(dp220
F0.25
F1.0
ss((F0.0
tp221
(F36.5
tp222
tp223
(dp224
F0.5
F1.0
ss((F0.0
tp225
(F6.9167
tp226
tp227
(dp228
F1.25
F1.0
ss((F0.0
tp229
(F5.5
tp230
tp231
(dp232
F4.5
F0.069
sF1.0
F0.069
sF3.0
F0.069
sF4.0
F0.1379
sF5.0
F0.3448
sF0.5
F0.3103
ss((F0.0
tp233
(F178.5
tp234
tp235
(dp236
F1.5
F1.0
ss((F0.0
tp237
(F11.75
tp238
tp239
(dp240
F0.25
F0.5
sF11.5
F0.5
ss((F0.0
tp241
(F58.75
tp242
tp243
(dp244
F58.25
F1.0
ss((F0.0
tp245
(F6.0
tp246
tp247
(dp248
F0.25
F0.0583
sF5.75
F0.05
sF2.0
F0.0042
sF3.0
F0.7375
sF4.0
F0.0375
sF5.0
F0.0583
sF1.5
F0.0083
sF1.0
F0.0208
sF3.3333
F0.0042
sF5.6667
F0.0042
sF5.5
F0.0167
ss((F0.0
tp249
(F46.75
tp250
tp251
(dp252
F45.75
F0.5
sF0.25
F0.5
ss((F0.0
tp253
(F16.0
tp254
tp255
(dp256
F8.0
F0.2857
sF1.0
F0.1429
sF10.0
F0.2857
sF12.0
F0.2857
ss((F0.0
tp257
(F49.75
tp258
tp259
(dp260
F48.75
F1.0
ss((F0.0
tp261
(F8.5
tp262
tp263
(dp264
F4.5
F0.2857
sF2.0
F0.7143
ss((F0.0
tp265
(F5.0
tp266
tp267
(dp268
F0.5
F0.037
sF1.0
F0.2593
sF2.0
F0.0556
sF3.0
F0.4259
sF4.0
F0.0741
sF1.6667
F0.1481
ss((F0.0
tp269
(F2.75
tp270
tp271
(dp272
F0.75
F0.1667
sF0.25
F0.3889
sF2.0
F0.4444
ss((F0.0
tp273
(F61.1667
tp274
tp275
(dp276
F59.6667
F1.0
ss((F0.0
tp277
(F12.3333
tp278
tp279
(dp280
F0.3333
F1.0
ss((F0.0
tp281
(F54.3333
tp282
tp283
(dp284
F3.6667
F1.0
ss((F0.0
tp285
(F31.0
tp286
tp287
(dp288
F30.0
F1.0
ss((F0.0
tp289
(F22.0
tp290
tp291
(dp292
F1.0
F0.6
sF20.0
F0.2
sF21.0
F0.2
ss((F0.0
tp293
(F58.5
tp294
tp295
(dp296
F0.25
F1.0
ss((F0.0
tp297
(F18.0
tp298
tp299
(dp300
F12.0
F0.5217
sF6.0
F0.4783
ss((F0.0
tp301
(F5.25
tp302
tp303
(dp304
F3.25
F0.1667
sF4.5
F0.3333
sF0.25
F0.5
ss((F0.0
tp305
(F44.0
tp306
tp307
(dp308
F40.0
F0.5
sF4.0
F0.5
ss((F0.0
tp309
(F58.0
tp310
tp311
(dp312
F48.0
F1.0
ss((F0.0
tp313
(F0.8333
tp314
tp315
(dp316
F0.5
F0.8
sF0.3333
F0.2
ss((F0.0
tp317
(F0.4167
tp318
tp319
(dp320
F0.3334
F1.0
ss((F0.0
tp321
(F22.5
tp322
tp323
(dp324
F18.5
F1.0
ss((F0.0
tp325
(F9.5
tp326
tp327
(dp328
F0.5
F0.5
sF9.0
F0.5
ss((F0.0
tp329
(F7.0
tp330
tp331
(dp332
F1.0
F0.65
sF3.0
F0.05
sF4.0
F0.1
sF5.0
F0.025
sF6.0
F0.175
ss((F0.0
tp333
(F21.0
tp334
tp335
(dp336
F18.0
F1.0
ss((F0.0
tp337
(F17.0
tp338
tp339
(dp340
F12.0
F1.0
ss((F0.0
tp341
(F51.75
tp342
tp343
(dp344
F0.0833
F1.0
ss((F0.0
tp345
(F3.25
tp346
tp347
(dp348
F1.5
F0.25
sF0.25
F0.1786
sF3.0
F0.0357
sF2.25
F0.2857
sF2.5
F0.25
ss((F0.0
tp349
(F4.25
tp350
tp351
(dp352
F0.25
F0.5
sF0.5
F0.3333
sF4.0
F0.1667
ss((F0.0
tp353
(F8.0
tp354
tp355
(dp356
F1.0
F0.06
sF3.0
F0.0267
sF4.0
F0.9133
ss((F0.0
tp357
(F4.3333
tp358
tp359
(dp360
F1.0
F1.0
ss((F0.0
tp361
(F20.0
tp362
tp363
(dp364
F8.0
F1.0
ss((F0.0
tp365
(F69.0
tp366
tp367
(dp368
F57.0
F1.0
ss((F0.0
tp369
(F34.0
tp370
tp371
(dp372
F1.0
F1.0
ss((F0.0
tp373
(F46.0
tp374
tp375
(dp376
F0.25
F1.0
ss((F0.0
tp377
(F60.0
tp378
tp379
(dp380
F0.25
F0.3333
sF59.75
F0.3333
sF4.0
F0.3333
ss((F0.0
tp381
(F3.6667
tp382
tp383
(dp384
F1.0
F0.3333
sF2.6667
F0.6667
ss((F0.0
tp385
(F0.6666
tp386
tp387
(dp388
F0.3333
F1.0
ss((F0.0
tp389
(F40.5
tp390
tp391
(dp392
F0.5
F1.0
ss((F0.0
tp393
(F6.75
tp394
tp395
(dp396
F1.0
F1.0
ss((F0.0
tp397
(F54.75
tp398
tp399
(dp400
F52.0
F1.0
ss((F0.0
tp401
(F1.6667
tp402
tp403
(dp404
F1.0
F0.5
sF0.6667
F0.5
ss((F0.0
tp405
(F0.3333
tp406
tp407
(dp408
F0.25
F0.48
sF0.0833
F0.52
ss((F0.0
tp409
(F29.5
tp410
tp411
(dp412
F3.0
F1.0
ss((F0.0
tp413
(F19.0
tp414
tp415
(dp416
F0.5
F0.1111
sF1.0
F0.7778
sF18.0
F0.1111
ss((F0.0
tp417
(F33.0
tp418
tp419
(dp420
F3.0
F1.0
ss((F0.0
tp421
(F5.75
tp422
tp423
(dp424
F2.75
F0.125
sF0.25
F0.25
sF3.0
F0.125
sF5.6667
F0.25
sF5.5
F0.25
ss((F0.0
tp425
(F36.0
tp426
tp427
(dp428
F1.0
F0.5
sF35.0
F0.5
ss((F0.0
tp429
(F85.0
tp430
tp431
(dp432
F1.0
F1.0
ss((F0.0
tp433
(F62.0
tp434
tp435
(dp436
F0.75
F1.0
ss((F0.0
tp437
(F46.6667
tp438
tp439
(dp440
F46.5
F1.0
ss((F0.0
tp441
(F0.5
tp442
tp443
(dp444
F0.25
F0.9975
sF0.1667
F0.0012
sF0.3333
F0.0012
ss((F0.0
tp445
(F6.6667
tp446
tp447
(dp448
F6.5
F0.8333
sF3.0
F0.1667
ss((F0.0
tp449
(F56.0
tp450
tp451
(dp452
F4.0
F1.0
ss((F0.0
tp453
(F1.5
tp454
tp455
(dp456
F0.75
F0.0235
sF1.0
F0.5138
sF0.5
F0.4576
sF1.25
F0.0051
ss((F0.0
tp457
(F1.3333
tp458
tp459
(dp460
F1.0
F0.5
sF0.3333
F0.5
ss((F0.0
tp461
(F12.25
tp462
tp463
(dp464
F6.25
F0.3333
sF0.25
F0.6667
ss((F0.0
tp465
(F9.0
tp466
tp467
(dp468
F1.0
F0.0339
sF3.0
F0.322
sF5.0
F0.0169
sF6.0
F0.6271
ss((F0.0
tp469
(F18.6667
tp470
tp471
(dp472
F18.5
F1.0
ss((F0.0
tp473
(F35.0
tp474
tp475
(dp476
F33.0
F1.0
ss((F0.0
tp477
(F4.8333
tp478
tp479
(dp480
F3.3333
F1.0
ss((F0.0
tp481
(F7.75
tp482
tp483
(dp484
F5.75
F1.0
ss((F0.0
tp485
(F61.0
tp486
tp487
(dp488
F53.0
F1.0
ss((F0.0
tp489
(F87.0
tp490
tp491
(dp492
F84.0
F1.0
ss((F0.0
tp493
(F130.0
tp494
tp495
(dp496
F128.5
F1.0
ss((F0.0
tp497
(F0.3334
tp498
tp499
(dp500
F0.1667
F1.0
ss((F0.0
tp501
(F6.3333
tp502
tp503
(dp504
F0.0833
F1.0
ss((F0.0
tp505
(F10.5
tp506
tp507
(dp508
F1.0
F1.0
ss((F0.0
tp509
(F28.8333
tp510
tp511
(dp512
F27.3333
F1.0
ss((F0.0
tp513
(F39.5
tp514
tp515
(dp516
F36.0
F1.0
ss((F0.0
tp517
(F178.0
tp518
tp519
(dp520
F177.0
F1.0
ss((F0.0
tp521
(F3.5
tp522
tp523
(dp524
F2.5
F0.1875
sF0.5
F0.1563
sF2.0
F0.0625
sF3.0
F0.4688
sF1.0
F0.125
ss((F0.0
tp525
(F2.25
tp526
tp527
(dp528
F1.25
F0.0357
sF1.0
F0.0536
sF2.0
F0.1429
sF1.5
F0.0179
sF0.5
F0.0357
sF0.75
F0.1607
sF0.25
F0.5536
ss((F0.0
tp529
(F240.0
tp530
tp531
(dp532
F239.75
F1.0
ss((F0.0
tp533
(F1.25
tp534
tp535
(dp536
F0.25
F0.5693
sF1.0
F0.1199
sF0.75
F0.0712
sF0.5
F0.2397
ss((F0.0
tp537
(F13.75
tp538
tp539
(dp540
F11.75
F1.0
ss((F0.0
tp541
(F10.0
tp542
tp543
(dp544
F9.5
F0.5
sF9.75
F0.5
ss((F0.0
tp545
(F155.0
tp546
tp547
(dp548
F1.0
F0.5
sF154.0
F0.5
ss((F0.0
tp549
(F19.5
tp550
tp551
(dp552
F1.0
F1.0
ss((F0.0
tp553
(F33.25
tp554
tp555
(dp556
F33.0
F1.0
ss((F0.0
tp557
(F4.5
tp558
tp559
(dp560
F0.5
F0.5714
sF4.0
F0.4286
ss((F0.0
tp561
(F23.5
tp562
tp563
(dp564
F0.5
F0.3333
sF1.0
F0.3333
sF23.0
F0.3333
ss((F0.0
tp565
(F156.8333
tp566
tp567
(dp568
F155.3333
F1.0
ss((F0.0
tp569
(F53.3333
tp570
tp571
(dp572
F50.6666
F1.0
ss((F0.0
tp573
(F23.0
tp574
tp575
(dp576
F22.5
F1.0
ss((F0.0
tp577
(F37.5
tp578
tp579
(dp580
F1.0
F1.0
ss((F0.0
tp581
(F240.75
tp582
tp583
(dp584
F1.0
F1.0
ss((F0.0
tp585
(F12.0
tp586
tp587
(dp588
F0.25
F0.0185
sF3.0
F0.0185
sF4.0
F0.0926
sF6.0
F0.7593
sF8.0
F0.0926
sF9.0
F0.0185
ss((F0.0
tp589
(F157.0
tp590
tp591
(dp592
F1.6667
F1.0
ss((F0.0
tp593
(F38.0
tp594
tp595
(dp596
F1.0
F0.5
sF36.0
F0.5
ss((F0.0
tp597
(F12.75
tp598
tp599
(dp600
F12.0
F1.0
sssS'mode'
p601
I2
sS'before'
p602
I1
sb.