ccopy_reg
_reconstructor
p0
(cmarkov_sequences
Markov
p1
c__builtin__
object
p2
Ntp3
Rp4
(dp5
S'after'
p6
I0
sS'state_dict'
p7
(dp8
(I32
tp9
(dp10
I32
F0.25
sI34
F0.2083
sI51
F0.1667
sI29
F0.2083
sI53
F0.1667
ss(I59
tp11
(dp12
I65
F0.08
sI42
F0.04
sI50
F0.04
sI55
F0.12
sI58
F0.08
sI59
F0.32
sI60
F0.32
ss(I86
tp13
(dp14
I64
F0.1111
sI97
F0.0278
sI67
F0.0278
sI69
F0.0556
sI76
F0.0278
sI84
F0.1111
sI85
F0.25
sI88
F0.3333
sI60
F0.0278
sI61
F0.0278
ss(I97
tp15
(dp16
I64
F0.2
sI98
F0.4
sI61
F0.2
sI69
F0.2
ss(I34
tp17
(dp18
I32
F0.0025
sI33
F0.0452
sI34
F0.2186
sI36
F0.3618
sI38
F0.0025
sI39
F0.0327
sI41
F0.0201
sI45
F0.0352
sI46
F0.0226
sI15
F0.0101
sI53
F0.0327
sI24
F0.0151
sI58
F0.0754
sI27
F0.0201
sI29
F0.0251
sI30
F0.005
sI65
F0.0754
ss(I61
tp19
(dp20
I44
F0.0116
sI45
F0.052
sI47
F0.0058
sI49
F0.0116
sI50
F0.0925
sI51
F0.0173
sI52
F0.0173
sI55
F0.0116
sI56
F0.1214
sI57
F0.0405
sI58
F0.0809
sI59
F0.0116
sI60
F0.052
sI61
F0.0694
sI62
F0.1387
sI63
F0.0289
sI64
F0.0578
sI65
F0.0405
sI66
F0.0636
sI69
F0.0405
sI70
F0.0116
sI72
F0.0058
sI77
F0.0058
sI85
F0.0058
sI88
F0.0058
ss(I72
tp21
(dp22
I36
F0.032
sI41
F0.064
sI48
F0.032
sI53
F0.064
sI60
F0.056
sI62
F0.004
sI63
F0.024
sI64
F0.008
sI65
F0.268
sI67
F0.104
sI68
F0.008
sI69
F0.004
sI70
F0.052
sI71
F0.008
sI72
F0.188
sI73
F0.02
sI74
F0.028
sI75
F0.004
sI76
F0.004
sI77
F0.004
sI82
F0.02
sI86
F0.004
ss(I36
tp23
(dp24
I32
F0.0085
sI34
F0.0406
sI67
F0.0855
sI36
F0.235
sI37
F0.0043
sI38
F0.2842
sI39
F0.0128
sI40
F0.0021
sI41
F0.0171
sI43
F0.0214
sI46
F0.0214
sI15
F0.0085
sI48
F0.0427
sI51
F0.0043
sI52
F0.0064
sI22
F0.0085
sI24
F0.0171
sI27
F0.0171
sI60
F0.0855
sI29
F0.0171
sI31
F0.0598
ss(I63
tp25
(dp26
I46
F0.003
sI51
F0.0089
sI53
F0.0119
sI54
F0.0089
sI56
F0.0504
sI57
F0.0653
sI58
F0.089
sI60
F0.0623
sI61
F0.0267
sI62
F0.1662
sI63
F0.1573
sI64
F0.0178
sI65
F0.0979
sI66
F0.0326
sI67
F0.0534
sI68
F0.0326
sI70
F0.0682
sI72
F0.0297
sI73
F0.0059
sI74
F0.003
sI77
F0.0059
sI79
F0.003
ss(I74
tp27
(dp28
I64
F0.025
sI65
F0.025
sI66
F0.125
sI69
F0.175
sI70
F0.1
sI71
F0.025
sI72
F0.075
sI74
F0.1
sI75
F0.075
sI76
F0.075
sI77
F0.025
sI58
F0.025
sI60
F0.025
sI62
F0.075
sI63
F0.05
ss(I38
tp29
(dp30
I33
F0.0073
sI34
F0.0092
sI36
F0.0604
sI69
F0.2454
sI38
F0.1044
sI39
F0.0165
sI40
F0.011
sI41
F0.0037
sI42
F0.0018
sI45
F0.011
sI50
F0.0348
sI24
F0.0147
sI26
F0.022
sI27
F0.0073
sI62
F0.2454
sI31
F0.2051
ss(I49
tp31
(dp32
I66
F0.0185
sI37
F0.037
sI42
F0.0185
sI45
F0.1296
sI34
F0.037
sI46
F0.037
sI47
F0.0185
sI49
F0.0556
sI50
F0.2222
sI54
F0.0185
sI57
F0.0926
sI58
F0.0185
sI59
F0.0185
sI61
F0.0556
sI62
F0.2222
ss(I76
tp33
(dp34
I64
F0.0714
sI65
F0.0714
sI67
F0.0714
sI68
F0.2143
sI69
F0.0714
sI74
F0.1429
sI76
F0.0714
sI77
F0.0714
sI79
F0.1429
sI81
F0.0714
ss(I24
tp35
(dp36
I34
F0.16
sI36
F0.1067
sI41
F0.1067
sI43
F0.0533
sI46
F0.1067
sI15
F0.0533
sI22
F0.0533
sI24
F0.1067
sI26
F0.04
sI27
F0.0533
sI29
F0.1067
sI31
F0.0533
ss(I51
tp37
(dp38
I64
F0.0114
sI32
F0.0455
sI68
F0.0114
sI39
F0.0455
sI41
F0.0341
sI43
F0.0114
sI44
F0.0227
sI46
F0.0114
sI29
F0.0455
sI48
F0.0341
sI50
F0.0114
sI51
F0.1364
sI53
F0.1818
sI56
F0.1932
sI58
F0.0455
sI60
F0.1023
sI61
F0.0114
sI63
F0.0455
ss(I78
tp39
(dp40
I80
F0.4
sI68
F0.2
sI70
F0.2
sI63
F0.2
ss(I89
tp41
(dp42
I64
F0.1
sI88
F0.6
sI91
F0.2
sI67
F0.1
ss(I15
tp43
(dp44
I34
F0.0303
sI36
F0.0303
sI15
F0.3258
sI17
F0.1136
sI22
F0.0303
sI24
F0.0303
sI27
F0.3258
sI29
F0.1136
ss(I26
tp45
(dp46
I36
F0.1569
sI38
F0.2353
sI39
F0.0784
sI24
F0.1569
sI26
F0.2353
sI27
F0.1176
sI30
F0.0196
ss(I53
tp47
(dp48
I29
F0.0093
sI32
F0.0047
sI33
F0.0186
sI34
F0.0302
sI37
F0.0047
sI41
F0.0093
sI43
F0.007
sI45
F0.0442
sI46
F0.0628
sI48
F0.0465
sI49
F0.0047
sI50
F0.0116
sI51
F0.0233
sI52
F0.0442
sI53
F0.2023
sI54
F0.0047
sI55
F0.0349
sI56
F0.0628
sI57
F0.0419
sI58
F0.0721
sI60
F0.0093
sI62
F0.0209
sI64
F0.0442
sI65
F0.0907
sI66
F0.0023
sI67
F0.0163
sI70
F0.007
sI72
F0.0558
sI77
F0.007
sI82
F0.007
ss(I64
tp49
(dp50
I33
F0.0645
sI34
F0.004
sI38
F0.0141
sI45
F0.0726
sI46
F0.004
sI48
F0.0282
sI49
F0.0141
sI50
F0.0383
sI53
F0.0141
sI55
F0.0423
sI56
F0.0383
sI57
F0.1472
sI58
F0.0161
sI60
F0.0484
sI61
F0.0484
sI62
F0.0786
sI63
F0.0101
sI64
F0.1573
sI65
F0.0645
sI66
F0.0121
sI67
F0.006
sI68
F0.0141
sI69
F0.0242
sI70
F0.0101
sI72
F0.004
sI76
F0.002
sI77
F0.002
sI79
F0.002
sI81
F0.004
sI85
F0.002
sI88
F0.004
sI91
F0.004
sI96
F0.004
ss(I91
tp51
(dp52
I96
F0.0526
sI65
F0.1053
sI98
F0.1053
sI84
F0.0526
sI88
F0.2105
sI89
F0.2632
sI93
F0.2105
ss(I28
tp53
(dp54
I36
F1.0
ss(I55
tp55
(dp56
I64
F0.018
sI65
F0.0095
sI67
F0.0063
sI68
F0.0032
sI70
F0.0011
sI41
F0.0021
sI46
F0.0032
sI48
F0.0032
sI50
F0.093
sI52
F0.0973
sI53
F0.0254
sI55
F0.2865
sI57
F0.0032
sI58
F0.1892
sI59
F0.0085
sI60
F0.1512
sI62
F0.0994
ss(I66
tp57
(dp58
I64
F0.063
sI65
F0.0709
sI66
F0.0709
sI67
F0.126
sI68
F0.063
sI70
F0.0315
sI72
F0.0157
sI74
F0.0079
sI75
F0.0157
sI77
F0.0157
sI46
F0.0079
sI80
F0.0236
sI54
F0.0236
sI56
F0.0394
sI58
F0.2047
sI60
F0.0709
sI61
F0.0079
sI62
F0.0315
sI63
F0.1102
ss(I93
tp59
(dp60
I64
F0.0588
sI67
F0.0588
sI91
F0.5294
sI95
F0.3529
ss(I30
tp61
(dp62
I32
F0.6667
sI33
F0.3333
ss(I41
tp63
(dp64
I65
F0.0418
sI34
F0.0139
sI36
F0.0139
sI38
F0.0139
sI39
F0.0592
sI72
F0.0418
sI41
F0.3118
sI43
F0.0488
sI46
F0.0052
sI48
F0.0192
sI50
F0.0105
sI53
F0.0105
sI55
F0.0017
sI24
F0.0139
sI27
F0.0592
sI29
F0.2927
sI31
F0.0418
ss(I68
tp65
(dp66
I48
F0.0079
sI54
F0.0079
sI55
F0.0079
sI56
F0.0157
sI57
F0.0079
sI58
F0.0394
sI60
F0.1496
sI62
F0.0866
sI63
F0.0236
sI64
F0.0157
sI65
F0.1732
sI66
F0.0236
sI67
F0.0709
sI68
F0.0551
sI70
F0.1654
sI71
F0.0079
sI72
F0.0236
sI73
F0.0236
sI74
F0.0079
sI77
F0.0236
sI78
F0.0157
sI79
F0.0157
sI82
F0.0315
ss(I95
tp67
(dp68
I97
F0.3333
sI93
F0.6667
ss(I43
tp69
(dp70
I34
F0.0102
sI67
F0.1837
sI36
F0.051
sI69
F0.1837
sI39
F0.0051
sI41
F0.1531
sI43
F0.1122
sI45
F0.0153
sI46
F0.0306
sI48
F0.0204
sI50
F0.0765
sI52
F0.0153
sI29
F0.1429
ss(I70
tp71
(dp72
I53
F0.0044
sI54
F0.0132
sI55
F0.0088
sI56
F0.0044
sI57
F0.0176
sI58
F0.0749
sI59
F0.0044
sI60
F0.0485
sI62
F0.0705
sI63
F0.0705
sI64
F0.0529
sI65
F0.1101
sI66
F0.0264
sI67
F0.0661
sI68
F0.022
sI69
F0.0529
sI70
F0.1806
sI71
F0.0044
sI72
F0.0661
sI73
F0.0088
sI74
F0.0176
sI75
F0.0132
sI77
F0.0044
sI79
F0.0088
sI80
F0.0132
sI84
F0.022
sI86
F0.0132
ss(I81
tp73
(dp74
I64
F0.0357
sI67
F0.0357
sI69
F0.1786
sI70
F0.0357
sI81
F0.4643
sI82
F0.0357
sI85
F0.0357
sI89
F0.1429
sI60
F0.0357
ss(I45
tp75
(dp76
I64
F0.1561
sI33
F0.0186
sI66
F0.0037
sI34
F0.0074
sI69
F0.0483
sI38
F0.0706
sI39
F0.0074
sI43
F0.0149
sI45
F0.1413
sI46
F0.0372
sI48
F0.0297
sI50
F0.0781
sI53
F0.0743
sI57
F0.2119
sI58
F0.0074
sI26
F0.0223
sI61
F0.0149
sI62
F0.0037
sI65
F0.052
ss(I56
tp77
(dp78
I64
F0.0513
sI65
F0.0043
sI66
F0.0128
sI70
F0.0085
sI44
F0.0171
sI49
F0.0043
sI82
F0.0043
sI51
F0.0598
sI53
F0.0897
sI55
F0.0342
sI56
F0.406
sI58
F0.0769
sI60
F0.0812
sI61
F0.1197
sI62
F0.0043
sI63
F0.0256
ss(I47
tp79
(dp80
I46
F1.0
ss(I58
tp81
(dp82
I33
F0.0088
sI34
F0.0177
sI42
F0.0009
sI45
F0.0159
sI46
F0.0194
sI48
F0.0079
sI49
F0.0009
sI50
F0.0362
sI51
F0.0044
sI52
F0.0415
sI53
F0.0265
sI54
F0.0044
sI55
F0.1527
sI56
F0.0115
sI57
F0.0371
sI58
F0.2189
sI60
F0.113
sI61
F0.0088
sI62
F0.1024
sI63
F0.0362
sI64
F0.0115
sI65
F0.0768
sI66
F0.0177
sI67
F0.0018
sI68
F0.0044
sI69
F0.0035
sI70
F0.0079
sI72
F0.0018
sI74
F0.0018
sI75
F0.0009
sI77
F0.0044
sI82
F0.0026
ss(I85
tp83
(dp84
I65
F0.0556
sI69
F0.0556
sI81
F0.2222
sI86
F0.4444
sI88
F0.0556
sI62
F0.1667
ss(I96
tp85
(dp86
I65
F0.25
sI91
F0.125
sI94
F0.125
sI62
F0.25
sI70
F0.25
ss(I22
tp87
(dp88
I24
F0.2778
sI27
F0.2222
sI36
F0.2222
sI22
F0.0556
sI15
F0.2222
ss(I33
tp89
(dp90
I64
F0.2628
sI33
F0.0073
sI34
F0.0292
sI69
F0.0876
sI38
F0.0949
sI41
F0.0146
sI45
F0.0803
sI46
F0.0146
sI48
F0.0292
sI53
F0.0584
sI57
F0.2628
sI26
F0.0584
ss(I60
tp91
(dp92
I34
F0.0067
sI36
F0.0269
sI41
F0.0067
sI44
F0.0008
sI46
F0.0202
sI48
F0.0378
sI49
F0.0017
sI50
F0.0463
sI51
F0.0093
sI52
F0.0328
sI53
F0.0286
sI55
F0.1135
sI56
F0.0109
sI57
F0.0059
sI58
F0.0934
sI59
F0.0034
sI60
F0.2035
sI61
F0.0059
sI62
F0.0984
sI63
F0.0227
sI64
F0.0177
sI65
F0.0749
sI66
F0.0025
sI67
F0.0841
sI68
F0.0118
sI69
F0.0059
sI70
F0.0118
sI72
F0.0109
sI74
F0.0008
sI75
F0.0008
sI77
F0.0008
sI91
F0.0017
sI96
F0.0008
ss(I98
tp93
(dp94
I90
F0.5
sI93
F0.5
ss(I62
tp95
(dp96
I31
F0.0067
sI33
F0.0022
sI36
F0.0045
sI38
F0.0673
sI43
F0.0067
sI45
F0.0022
sI46
F0.0017
sI48
F0.0095
sI49
F0.0067
sI50
F0.0679
sI51
F0.0006
sI52
F0.0079
sI53
F0.0129
sI54
F0.0006
sI55
F0.0611
sI57
F0.0067
sI58
F0.0606
sI60
F0.0404
sI61
F0.0056
sI62
F0.2743
sI63
F0.0376
sI64
F0.0275
sI65
F0.0286
sI66
F0.0039
sI67
F0.0275
sI69
F0.217
sI70
F0.005
sI72
F0.0011
sI74
F0.0017
sI75
F0.0011
sI77
F0.0006
sI79
F0.0006
sI86
F0.0017
ss(I73
tp97
(dp98
I65
F0.0417
sI68
F0.125
sI71
F0.0417
sI72
F0.0833
sI74
F0.2083
sI75
F0.1667
sI76
F0.0833
sI78
F0.0417
sI56
F0.0417
sI60
F0.0417
sI61
F0.0417
sI63
F0.0833
ss(I37
tp99
(dp100
I49
F0.2
sI34
F0.4
sI37
F0.2
sI46
F0.2
ss(I48
tp101
(dp102
I27
F0.0133
sI32
F0.0066
sI34
F0.0066
sI36
F0.0365
sI39
F0.0133
sI40
F0.0133
sI41
F0.0299
sI43
F0.0332
sI46
F0.0731
sI48
F0.1163
sI50
F0.0598
sI51
F0.0199
sI53
F0.0498
sI55
F0.0199
sI57
F0.0233
sI58
F0.0565
sI60
F0.186
sI62
F0.0399
sI64
F0.01
sI65
F0.01
sI67
F0.1595
sI69
F0.0233
ss(I75
tp103
(dp104
I64
F0.0417
sI65
F0.125
sI67
F0.0833
sI68
F0.0833
sI70
F0.0833
sI72
F0.0417
sI74
F0.0417
sI77
F0.125
sI79
F0.0417
sI82
F0.0417
sI58
F0.0833
sI60
F0.0417
sI62
F0.125
sI63
F0.0417
ss(I39
tp105
(dp106
I34
F0.0249
sI36
F0.053
sI38
F0.028
sI39
F0.3146
sI40
F0.0093
sI41
F0.0903
sI43
F0.0062
sI45
F0.0156
sI46
F0.0779
sI48
F0.0312
sI50
F0.0062
sI51
F0.0093
sI24
F0.0125
sI26
F0.0125
sI27
F0.2243
sI29
F0.0779
sI31
F0.0062
ss(I50
tp107
(dp108
I64
F0.0194
sI67
F0.0055
sI69
F0.1997
sI38
F0.0069
sI39
F0.0097
sI41
F0.0083
sI43
F0.0166
sI45
F0.0236
sI46
F0.0153
sI48
F0.0194
sI49
F0.0194
sI50
F0.0902
sI51
F0.0153
sI52
F0.0846
sI55
F0.1165
sI57
F0.0028
sI58
F0.0513
sI60
F0.0777
sI61
F0.0166
sI62
F0.2011
ss(I77
tp109
(dp110
I64
F0.0357
sI65
F0.0357
sI67
F0.1071
sI68
F0.0714
sI69
F0.0714
sI70
F0.0714
sI75
F0.0357
sI76
F0.0357
sI79
F0.1071
sI80
F0.0357
sI81
F0.0357
sI82
F0.0357
sI53
F0.1786
sI58
F0.1429
ss(I88
tp111
(dp112
I65
F0.0294
sI70
F0.0294
sI84
F0.2353
sI85
F0.1176
sI86
F0.3529
sI89
F0.1176
sI90
F0.0588
sI91
F0.0294
sI62
F0.0294
ss(I52
tp113
(dp114
I65
F0.0205
sI48
F0.0411
sI49
F0.0205
sI50
F0.1701
sI52
F0.1114
sI53
F0.0293
sI55
F0.2463
sI56
F0.0117
sI58
F0.1349
sI60
F0.1525
sI61
F0.0205
sI62
F0.0411
ss(I79
tp115
(dp116
I65
F0.2105
sI67
F0.0526
sI68
F0.2105
sI71
F0.0526
sI77
F0.2105
sI79
F0.0526
sI80
F0.2105
ss(I90
tp117
(dp118
I65
F0.25
sI91
F0.25
sI69
F0.25
sI62
F0.25
ss(I27
tp119
(dp120
I34
F0.0245
sI36
F0.0436
sI38
F0.0109
sI39
F0.1935
sI41
F0.0627
sI43
F0.0054
sI46
F0.0109
sI15
F0.1172
sI48
F0.0218
sI17
F0.0409
sI22
F0.0109
sI24
F0.0218
sI26
F0.0109
sI27
F0.3106
sI28
F0.0027
sI29
F0.1063
sI31
F0.0054
ss(I54
tp121
(dp122
I65
F0.0417
sI66
F0.125
sI70
F0.125
sI42
F0.0417
sI77
F0.0417
sI54
F0.125
sI55
F0.0833
sI56
F0.0417
sI58
F0.3333
sI61
F0.0417
ss(I65
tp123
(dp124
I33
F0.0112
sI34
F0.0224
sI36
F0.0089
sI41
F0.0179
sI45
F0.0112
sI46
F0.0224
sI48
F0.0089
sI52
F0.0235
sI53
F0.019
sI54
F0.0011
sI55
F0.0213
sI57
F0.0291
sI58
F0.1141
sI60
F0.0861
sI61
F0.0011
sI62
F0.0313
sI63
F0.0358
sI64
F0.0716
sI65
F0.2103
sI66
F0.0101
sI67
F0.066
sI68
F0.0179
sI69
F0.0257
sI70
F0.038
sI72
F0.0727
sI74
F0.0045
sI75
F0.0034
sI76
F0.0011
sI79
F0.0045
sI80
F0.0011
sI81
F0.0022
sI82
F0.0011
sI86
F0.0045
ss(I29
tp125
(dp126
I32
F0.0031
sI34
F0.0092
sI17
F0.0982
sI37
F0.0031
sI39
F0.0521
sI41
F0.2515
sI43
F0.0368
sI46
F0.0061
sI15
F0.0245
sI49
F0.0031
sI51
F0.0031
sI53
F0.0123
sI22
F0.0015
sI24
F0.0123
sI36
F0.0123
sI27
F0.0767
sI29
F0.3558
sI31
F0.0383
ss(I40
tp127
(dp128
I40
F0.2222
sI41
F0.4444
sI55
F0.1111
sI48
F0.2222
ss(I67
tp129
(dp130
I31
F0.0262
sI34
F0.0087
sI36
F0.0349
sI38
F0.0131
sI41
F0.0087
sI43
F0.0262
sI46
F0.0087
sI48
F0.0349
sI50
F0.0131
sI52
F0.0076
sI53
F0.0164
sI55
F0.0033
sI56
F0.0011
sI58
F0.0142
sI60
F0.1245
sI62
F0.0469
sI63
F0.0098
sI64
F0.0076
sI65
F0.0622
sI66
F0.0131
sI67
F0.2598
sI68
F0.0175
sI69
F0.1758
sI70
F0.012
sI72
F0.0349
sI77
F0.0044
sI79
F0.0011
sI80
F0.0044
sI81
F0.0011
sI85
F0.0011
sI88
F0.0022
sI91
F0.0022
sI96
F0.0022
ss(I94
tp131
(dp132
I86
F1.0
ss(I31
tp133
(dp134
I34
F0.3696
sI67
F0.1032
sI69
F0.1032
sI38
F0.0344
sI41
F0.0802
sI46
F0.0057
sI29
F0.0802
sI31
F0.2235
ss(I42
tp135
(dp136
I66
F0.1667
sI68
F0.1667
sI44
F0.1667
sI46
F0.1667
sI56
F0.1667
sI61
F0.1667
ss(I69
tp137
(dp138
I31
F0.022
sI33
F0.0073
sI36
F0.0049
sI38
F0.0832
sI43
F0.022
sI45
F0.0073
sI48
F0.0049
sI50
F0.0826
sI55
F0.0049
sI57
F0.0031
sI60
F0.0061
sI61
F0.0049
sI62
F0.2312
sI63
F0.0006
sI64
F0.011
sI65
F0.0043
sI66
F0.0024
sI67
F0.1162
sI69
F0.3566
sI70
F0.0067
sI71
F0.0073
sI72
F0.0006
sI73
F0.0006
sI74
F0.0037
sI75
F0.0006
sI82
F0.0006
sI89
F0.0031
sI93
F0.0012
ss(I80
tp139
(dp140
I65
F0.0909
sI66
F0.1364
sI67
F0.0909
sI70
F0.1364
sI72
F0.0455
sI77
F0.0909
sI78
F0.0909
sI79
F0.0909
sI82
F0.1364
sI54
F0.0455
sI58
F0.0455
ss(I17
tp141
(dp142
I17
F0.4
sI27
F0.1
sI29
F0.4
sI15
F0.1
ss(I44
tp143
(dp144
I68
F0.1
sI70
F0.1
sI58
F0.2
sI60
F0.2
sI61
F0.1
sI63
F0.3
ss(I71
tp145
(dp146
I68
F0.1429
sI69
F0.4286
sI70
F0.0476
sI72
F0.0952
sI73
F0.1905
sI75
F0.0476
sI76
F0.0476
ss(I82
tp147
(dp148
I67
F0.0294
sI68
F0.0588
sI72
F0.1471
sI75
F0.0294
sI79
F0.0294
sI80
F0.0882
sI81
F0.1176
sI84
F0.2647
sI53
F0.1176
sI58
F0.1176
ss(I46
tp149
(dp150
I27
F0.0137
sI29
F0.0205
sI33
F0.0341
sI34
F0.041
sI36
F0.0137
sI38
F0.0102
sI39
F0.099
sI40
F0.0068
sI41
F0.0239
sI42
F0.0034
sI43
F0.0137
sI45
F0.1126
sI46
F0.1433
sI48
F0.0614
sI50
F0.0137
sI51
F0.0137
sI53
F0.099
sI57
F0.0205
sI58
F0.1024
sI60
F0.0341
sI62
F0.0034
sI63
F0.0034
sI65
F0.1024
sI70
F0.0102
ss(I57
tp151
(dp152
I64
F0.1696
sI65
F0.0639
sI66
F0.0044
sI67
F0.0154
sI69
F0.0419
sI38
F0.0154
sI33
F0.0705
sI45
F0.1013
sI46
F0.0088
sI48
F0.0022
sI34
F0.0044
sI50
F0.0198
sI53
F0.033
sI55
F0.0308
sI57
F0.2269
sI58
F0.0925
sI60
F0.0154
sI62
F0.0485
sI63
F0.0352
ss(I84
tp153
(dp154
I65
F0.0323
sI70
F0.129
sI74
F0.0323
sI82
F0.3871
sI84
F0.129
sI86
F0.1613
sI93
F0.129
sssS'mode'
p155
I0
sS'before'
p156
I1
sb.