ccopy_reg
_reconstructor
p0
(cmarkov_sequences
Markov
p1
c__builtin__
object
p2
Ntp3
Rp4
(dp5
S'after'
p6
I0
sS'state_dict'
p7
(dp8
(F0.0
F20.0
tp9
(dp10
F22.0
F1.0
ss(F0.0
F7.0
tp11
(dp12
F7.25
F0.3846
sF7.5
F0.6154
ss(F0.0
F10.0
tp13
(dp14
F16.0
F0.6667
sF11.0
F0.3333
ss(F0.0
F30.0
tp15
(dp16
F31.0
F1.0
ss(F0.0
F27.5
tp17
(dp18
F29.0
F1.0
ss(F0.0
F18.5
tp19
(dp20
F22.5
F0.3333
sF18.6667
F0.6667
ss(F0.0
F4.0
tp21
(dp22
F4.75
F0.0109
sF4.5
F0.0328
sF5.0
F0.0219
sF6.0
F0.0492
sF7.0
F0.0219
sF8.0
F0.7486
sF60.0
F0.0055
sF44.0
F0.0055
sF12.0
F0.0273
sF4.25
F0.0055
sF76.0
F0.0055
sF40.0
F0.0055
sF56.0
F0.0055
sF24.0
F0.0055
sF5.5
F0.0219
sF6.5
F0.0109
sF7.5
F0.0164
ss(F0.0
F239.75
tp23
(dp24
F240.0
F1.0
ss(F0.0
F3.3333
tp25
(dp26
F4.8333
F0.8889
sF6.0
F0.1111
ss(F0.0
F11.5
tp27
(dp28
F11.75
F1.0
ss(F0.0
F26.5
tp29
(dp30
F27.0
F1.0
ss(F0.0
F3.5
tp31
(dp32
F7.5
F0.0833
sF3.75
F0.1667
sF4.0
F0.75
ss(F0.0
F6.25
tp33
(dp34
F12.25
F1.0
ss(F0.0
F1.0
tp35
(dp36
F1.75
F0.0826
sF2.5
F0.0571
sF2.0
F0.5761
sF3.0
F0.0213
sF4.0
F0.0186
sF5.0
F0.0053
sF2.25
F0.0011
sF7.0
F0.0099
sF8.0
F0.0034
sF9.0
F0.0008
sF13.0
F0.0004
sF16.0
F0.0004
sF19.0
F0.0027
sF22.0
F0.0011
sF24.0
F0.0004
sF155.0
F0.0004
sF1.3333
F0.0011
sF10.5
F0.0008
sF34.0
F0.0008
sF1.25
F0.0122
sF36.0
F0.0004
sF6.0
F0.0019
sF38.0
F0.0004
sF1.5
F0.1914
sF52.0
F0.0004
sF54.0
F0.0004
sF6.75
F0.0004
sF3.6667
F0.0004
sF19.5
F0.0008
sF64.0
F0.0004
sF23.5
F0.0004
sF85.0
F0.0004
sF3.5
F0.0015
sF37.5
F0.0004
sF4.3333
F0.0004
sF33.5
F0.0004
sF240.75
F0.0004
sF129.5
F0.0004
sF1.6667
F0.0004
sF6.5
F0.0015
sF5.5
F0.0008
ss(F0.0
F45.75
tp37
(dp38
F46.75
F1.0
ss(F0.0
F154.0
tp39
(dp40
F155.0
F1.0
ss(F0.0
F52.0
tp41
(dp42
F54.75
F0.5
sF53.0
F0.5
ss(F0.0
F3.75
tp43
(dp44
F4.0
F1.0
ss(F0.0
F32.5
tp45
(dp46
F33.5
F1.0
ss(F0.0
F2.5
tp47
(dp48
F3.5
F0.087
sF3.25
F0.1014
sF3.0
F0.4203
sF4.0
F0.3768
sF2.6667
F0.0145
ss(F0.0
F27.0
tp49
(dp50
F28.0
F1.0
ss(F0.0
F36.5
tp51
(dp52
F38.5
F1.0
ss(F0.0
F36.0
tp53
(dp54
F39.5
F0.5
sF38.0
F0.5
ss(F0.0
F21.0
tp55
(dp56
F24.0
F0.8889
sF22.0
F0.1111
ss(F0.0
F3.6667
tp57
(dp58
F54.3333
F1.0
ss(F0.0
F24.0
tp59
(dp60
F25.0
F1.0
ss(F0.0
F50.6666
tp61
(dp62
F53.3333
F1.0
ss(F0.0
F33.0
tp63
(dp64
F33.5
F0.5
sF33.25
F0.25
sF35.0
F0.25
ss(F0.0
F84.0
tp65
(dp66
F87.0
F1.0
ss(F0.0
F59.75
tp67
(dp68
F60.0
F1.0
ss(F0.0
F18.0
tp69
(dp70
F19.0
F0.1429
sF21.0
F0.8571
ss(F0.0
F1.25
tp71
(dp72
F2.25
F0.1538
sF1.5
F0.3846
sF2.0
F0.3077
sF50.0
F0.0769
sF6.9167
F0.0769
ss(F0.0
F5.0
tp73
(dp74
F5.5
F0.3846
sF9.0
F0.0385
sF6.0
F0.5385
sF7.0
F0.0385
ss(F0.0
F8.0
tp75
(dp76
F16.0
F0.2222
sF12.0
F0.5556
sF20.0
F0.2222
ss(F0.0
F9.5
tp77
(dp78
F10.0
F1.0
ss(F0.0
F9.75
tp79
(dp80
F10.0
F1.0
ss(F0.0
F155.3333
tp81
(dp82
F156.8333
F1.0
ss(F0.0
F0.25
tp83
(dp84
F1.25
F0.034
sF4.25
F0.0007
sF2.0
F0.0009
sF75.25
F0.0002
sF2.75
F0.0016
sF1.0
F0.0161
sF0.5833
F0.0002
sF12.0
F0.0002
sF13.0
F0.0004
sF3.0
F0.0004
sF0.3333
F0.0269
sF0.75
F0.1704
sF5.9167
F0.0004
sF0.5
F0.7241
sF11.75
F0.0004
sF6.0
F0.0031
sF46.0
F0.0002
sF58.5
F0.0002
sF60.0
F0.0002
sF1.75
F0.0056
sF12.25
F0.0004
sF46.75
F0.0002
sF63.25
F0.0002
sF3.75
F0.0004
sF2.25
F0.0069
sF5.75
F0.0004
sF6.25
F0.0007
sF2.5
F0.0013
sF3.25
F0.0011
sF53.25
F0.0002
sF10.25
F0.0004
sF52.25
F0.0002
sF5.25
F0.0007
ss(F0.0
F0.1667
tp85
(dp86
F0.25
F0.5039
sF0.3334
F0.4803
sF0.5
F0.0157
ss(F0.0
F58.25
tp87
(dp88
F58.75
F1.0
ss(F0.0
F2.0
tp89
(dp90
F8.5
F0.0205
sF3.5
F0.0082
sF3.0
F0.4672
sF4.0
F0.3852
sF5.0
F0.0123
sF6.0
F0.0041
sF2.25
F0.0328
sF2.75
F0.0328
sF2.5
F0.0369
ss(F0.0
F27.3333
tp91
(dp92
F28.8333
F1.0
ss(F0.0
F53.0
tp93
(dp94
F61.0
F0.5
sF54.0
F0.5
ss(F0.0
F1.6667
tp95
(dp96
F157.0
F0.1
sF5.0
F0.8
sF29.0
F0.1
ss(F0.0
F56.0
tp97
(dp98
F64.0
F1.0
ss(F0.0
F177.0
tp99
(dp100
F178.0
F1.0
ss(F0.0
F2.6667
tp101
(dp102
F3.0
F0.3333
sF3.6667
F0.6667
ss(F0.0
F15.0
tp103
(dp104
F15.5
F1.0
ss(F0.0
F1.75
tp105
(dp106
F2.5
F0.4615
sF2.0
F0.5385
ss(F0.0
F23.5
tp107
(dp108
F24.0
F1.0
ss(F0.0
F37.0
tp109
(dp110
F41.0
F1.0
ss(F0.0
F0.3333
tp111
(dp112
F0.5
F0.2
sF1.0
F0.05
sF0.5833
F0.15
sF1.3333
F0.15
sF0.8333
F0.05
sF12.3333
F0.05
sF0.6667
F0.25
sF0.6666
F0.1
ss(F0.0
F0.5
tp113
(dp114
F2.5
F0.0064
sF1.0
F0.5034
sF2.0
F0.0798
sF3.0
F0.0096
sF4.0
F0.0016
sF5.0
F0.0006
sF0.75
F0.2182
sF0.8333
F0.0013
sF4.5
F0.0026
sF19.0
F0.0003
sF24.0
F0.0003
sF9.5
F0.0013
sF1.25
F0.0205
sF1.5
F0.1435
sF4.25
F0.0006
sF1.75
F0.0019
sF23.5
F0.0003
sF3.5
F0.0016
sF2.25
F0.0006
sF33.5
F0.0006
sF36.5
F0.0003
sF40.5
F0.0003
sF5.5
F0.0029
sF7.5
F0.0013
ss(F0.0
F40.0
tp115
(dp116
F43.5
F0.5
sF44.0
F0.5
ss(F0.0
F3.25
tp117
(dp118
F5.25
F1.0
ss(F0.0
F22.5
tp119
(dp120
F23.0
F1.0
ss(F0.0
F51.6667
tp121
(dp122
F53.1667
F1.0
ss(F0.0
F12.0
tp123
(dp124
F12.75
F0.025
sF13.0
F0.075
sF15.0
F0.1
sF16.0
F0.05
sF17.0
F0.025
sF18.0
F0.3
sF24.0
F0.425
ss(F0.0
F63.0
tp125
(dp126
F64.0
F0.5
sF63.25
F0.5
ss(F0.0
F61.25
tp127
(dp128
F62.25
F1.0
ss(F0.0
F12.75
tp129
(dp130
F13.0
F1.0
ss(F0.0
F46.5
tp131
(dp132
F46.6667
F1.0
ss(F0.0
F5.75
tp133
(dp134
F7.75
F0.1429
sF6.0
F0.8571
ss(F0.0
F48.75
tp135
(dp136
F49.75
F1.0
ss(F0.0
F6.0
tp137
(dp138
F6.25
F0.0187
sF15.75
F0.0187
sF7.0
F0.0654
sF9.0
F0.3458
sF11.0
F0.0374
sF12.0
F0.3832
sF15.0
F0.0187
sF18.0
F0.1028
sF63.0
F0.0093
ss(F0.0
F75.0
tp139
(dp140
F77.0
F1.0
ss(F0.0
F9.0
tp141
(dp142
F9.5
F0.5714
sF12.0
F0.1429
sF15.0
F0.2857
ss(F0.0
F2.25
tp143
(dp144
F3.25
F1.0
ss(F0.0
F1.5
tp145
(dp146
F1.75
F0.0178
sF2.5
F0.4214
sF2.0
F0.269
sF3.0
F0.2172
sF4.0
F0.0389
sF6.0
F0.0032
sF178.5
F0.0016
sF29.0
F0.0016
sF3.1667
F0.0162
sF2.25
F0.0016
sF3.25
F0.0113
ss(F0.0
F3.0
tp147
(dp148
F5.75
F0.0033
sF33.0
F0.0033
sF4.0
F0.1229
sF5.0
F0.0764
sF6.0
F0.588
sF7.0
F0.0066
sF8.0
F0.0133
sF9.0
F0.0631
sF30.0
F0.0066
sF12.0
F0.0033
sF3.25
F0.0033
sF15.0
F0.0133
sF51.0
F0.0033
sF6.6667
F0.0033
sF3.5
F0.0498
sF24.0
F0.0199
sF29.5
F0.0033
sF27.0
F0.0033
sF5.5
F0.0066
sF3.75
F0.0033
sF6.25
F0.0033
ss(F0.0
F72.0
tp149
(dp150
F76.0
F1.0
ss(F0.0
F4.5
tp151
(dp152
F5.5
F0.3333
sF5.25
F0.3333
sF8.5
F0.3333
ss(F0.0
F0.6667
tp153
(dp154
F0.75
F0.5
sF1.6667
F0.5
ss(F0.0
F57.0
tp155
(dp156
F69.0
F1.0
ss(F0.0
F5.5
tp157
(dp158
F5.75
F0.3333
sF6.0
F0.6667
ss(F0.0
F48.0
tp159
(dp160
F58.0
F1.0
ss(F0.0
F0.0833
tp161
(dp162
F0.25
F0.4701
sF6.3333
F0.004
sF51.75
F0.004
sF59.75
F0.004
sF0.3333
F0.5179
ss(F0.0
F11.75
tp163
(dp164
F13.75
F1.0
ss(F0.0
F59.6667
tp165
(dp166
F61.1667
F1.0
ss(F0.0
F128.5
tp167
(dp168
F130.0
F1.0
ss(F0.0
F51.0
tp169
(dp170
F52.0
F1.0
ss(F0.0
F0.3334
tp171
(dp172
F0.4167
F0.2
sF0.6667
F0.8
ss(F0.0
F5.6667
tp173
(dp174
F5.75
F0.6667
sF6.0
F0.3333
ss(F0.0
F23.0
tp175
(dp176
F23.5
F0.5
sF24.0
F0.5
ss(F0.0
F0.75
tp177
(dp178
F1.75
F0.0713
sF1.0
F0.7813
sF2.0
F0.0074
sF3.0
F0.0049
sF2.75
F0.0074
sF1.5
F0.0565
sF1.25
F0.0467
sF62.0
F0.0025
sF2.25
F0.0221
ss(F0.0
F6.5
tp179
(dp180
F6.6667
F1.0
ss(F0.0
F2.75
tp181
(dp182
F5.75
F0.25
sF3.0
F0.5
sF4.0
F0.25
ss(F0.0
F35.0
tp183
(dp184
F36.0
F1.0
sssS'mode'
p185
I0
sS'before'
p186
I2
sb.