ccopy_reg
_reconstructor
p0
(cmarkov_sequences
Markov
p1
c__builtin__
object
p2
Ntp3
Rp4
(dp5
S'after'
p6
I1
sS'state_dict'
p7
(dp8
(F0.0
tp9
(dp10
F-0.75
F0.0314
sF-0.25
F0.3438
sF-2.5
F0.0053
sF-46.5
F0.0001
sF-0.5
F0.2405
sF-18.5
F0.0002
sF-0.1667
F0.0195
sF-1.5
F0.0477
sF-6.25
F0.0001
sF-1.75
F0.001
sF-59.6667
F0.0001
sF-3.5
F0.0009
sF-2.25
F0.0006
sF-32.5
F0.0001
sF-155.3333
F0.0001
sF-50.6666
F0.0001
sF-6.5
F0.0004
sF-5.6667
F0.0002
sF-63.0
F0.0002
sF-3.6667
F0.0001
sF-11.75
F0.0001
sF-5.75
F0.0012
sF-26.5
F0.0001
sF-2.6667
F0.0002
sF-48.75
F0.0001
sF-3.25
F0.0001
sF-36.5
F0.0001
sF-9.5
F0.0002
sF-5.5
F0.0005
sF-0.6667
F0.0002
sF-128.5
F0.0001
sF-9.75
F0.0002
sF-0.3334
F0.0004
sF-22.5
F0.0001
sF-45.75
F0.0001
sF-1.25
F0.001
sF-3.3333
F0.0007
sF-12.75
F0.0002
sF-177.0
F0.0001
sF-61.25
F0.0001
sF-156.0
F0.0001
sF-154.0
F0.0001
sF-27.3333
F0.0001
sF-59.75
F0.0001
sF-0.3333
F0.0015
sF-1.6667
F0.0008
sF-4.0
F0.0142
sF-0.0833
F0.0194
sF-58.25
F0.0001
sF-84.0
F0.0001
sF-75.0
F0.0001
sF-72.0
F0.0001
sF-23.5
F0.0001
sF-57.0
F0.0001
sF-56.0
F0.0001
sF-53.0
F0.0002
sF-52.0
F0.0002
sF-51.0
F0.0001
sF-51.6667
F0.0001
sF-48.0
F0.0001
sF-2.75
F0.0003
sF-40.0
F0.0002
sF-37.0
F0.0001
sF-36.0
F0.0002
sF-35.0
F0.0001
sF-3.75
F0.0002
sF-33.0
F0.0003
sF-11.5
F0.0002
sF-30.0
F0.0001
sF-239.75
F0.0001
sF-27.0
F0.0002
sF-27.5
F0.0001
sF-24.0
F0.0001
sF-23.0
F0.0002
sF-21.0
F0.0007
sF-20.0
F0.0001
sF-18.0
F0.0005
sF-15.0
F0.0001
sF-12.0
F0.0032
sF-2.0
F0.019
sF-10.0
F0.0002
sF-9.0
F0.0005
sF-8.0
F0.0008
sF-7.0
F0.001
sF-6.0
F0.0084
sF-5.0
F0.002
sF-4.5
F0.0005
sF-3.0
F0.0234
sF-1.0
F0.2028
sssS'mode'
p11
I1
sS'before'
p12
I0
sb.