ccopy_reg
_reconstructor
p0
(cmarkov_sequences
Markov
p1
c__builtin__
object
p2
Ntp3
Rp4
(dp5
S'after'
p6
I1
sS'state_dict'
p7
(dp8
(I32
tp9
(dp10
I32
F0.2609
sI34
F0.0435
sI36
F0.1739
sI48
F0.087
sI51
F0.1739
sI53
F0.087
sI29
F0.087
sI30
F0.087
ss(I59
tp11
(dp12
I70
F0.0417
sI49
F0.0417
sI55
F0.3333
sI59
F0.3333
sI60
F0.1667
sI61
F0.0833
ss(I86
tp13
(dp14
I65
F0.1081
sI70
F0.0811
sI72
F0.027
sI84
F0.1351
sI62
F0.0811
sI88
F0.3243
sI94
F0.027
sI85
F0.2162
ss(I97
tp15
(dp16
I86
F0.3333
sI95
F0.6667
ss(I34
tp17
(dp18
I15
F0.0102
sI24
F0.0305
sI27
F0.0229
sI29
F0.0153
sI31
F0.3282
sI32
F0.0127
sI33
F0.0102
sI34
F0.2214
sI36
F0.0483
sI37
F0.0102
sI38
F0.0127
sI39
F0.0204
sI41
F0.0204
sI43
F0.0051
sI45
F0.0051
sI46
F0.0305
sI48
F0.0051
sI49
F0.0051
sI53
F0.0331
sI57
F0.0051
sI58
F0.0509
sI60
F0.0204
sI64
F0.0051
sI65
F0.0509
sI67
F0.0204
ss(I61
tp19
(dp20
I64
F0.1678
sI65
F0.007
sI66
F0.007
sI69
F0.0559
sI97
F0.007
sI73
F0.007
sI42
F0.007
sI86
F0.007
sI44
F0.007
sI45
F0.028
sI49
F0.021
sI50
F0.0839
sI51
F0.007
sI52
F0.049
sI54
F0.007
sI56
F0.1958
sI58
F0.0699
sI60
F0.049
sI61
F0.0839
sI62
F0.0699
sI63
F0.0629
ss(I72
tp21
(dp22
I64
F0.0078
sI65
F0.2529
sI66
F0.0078
sI67
F0.1245
sI68
F0.0117
sI69
F0.0039
sI70
F0.0584
sI71
F0.0078
sI72
F0.1829
sI73
F0.0078
sI74
F0.0117
sI75
F0.0039
sI80
F0.0039
sI82
F0.0195
sI53
F0.0934
sI41
F0.0934
sI58
F0.0078
sI60
F0.0506
sI61
F0.0039
sI62
F0.0078
sI63
F0.0389
ss(I36
tp23
(dp24
I65
F0.0166
sI34
F0.2988
sI67
F0.0664
sI36
F0.2282
sI69
F0.0166
sI38
F0.0685
sI39
F0.0353
sI72
F0.0166
sI60
F0.0664
sI43
F0.0207
sI46
F0.0083
sI15
F0.0083
sI48
F0.0228
sI22
F0.0083
sI41
F0.0166
sI24
F0.0166
sI26
F0.0166
sI27
F0.0332
sI28
F0.0021
sI29
F0.0166
sI62
F0.0166
ss(I63
tp25
(dp26
I44
F0.0095
sI46
F0.0032
sI51
F0.0127
sI56
F0.019
sI57
F0.0508
sI58
F0.1302
sI60
F0.0857
sI61
F0.0159
sI62
F0.2127
sI63
F0.1683
sI64
F0.0159
sI65
F0.1016
sI66
F0.0444
sI67
F0.0286
sI68
F0.0095
sI69
F0.0032
sI70
F0.0508
sI72
F0.019
sI73
F0.0063
sI74
F0.0063
sI75
F0.0032
sI78
F0.0032
ss(I74
tp27
(dp28
I65
F0.093
sI66
F0.0233
sI68
F0.0233
sI69
F0.1395
sI70
F0.093
sI72
F0.1628
sI73
F0.1163
sI74
F0.093
sI75
F0.0233
sI76
F0.0465
sI84
F0.0233
sI58
F0.0465
sI60
F0.0233
sI62
F0.0698
sI63
F0.0233
ss(I38
tp29
(dp30
I64
F0.0125
sI33
F0.0233
sI34
F0.0018
sI67
F0.0215
sI36
F0.2384
sI69
F0.2437
sI38
F0.1022
sI39
F0.0161
sI41
F0.0143
sI45
F0.0341
sI46
F0.0054
sI50
F0.009
sI57
F0.0125
sI26
F0.0215
sI27
F0.0072
sI62
F0.2151
sI31
F0.0215
ss(I49
tp31
(dp32
I64
F0.1273
sI37
F0.0364
sI29
F0.0364
sI49
F0.0545
sI50
F0.2545
sI52
F0.1273
sI53
F0.0364
sI56
F0.0182
sI58
F0.0182
sI60
F0.0364
sI61
F0.0364
sI62
F0.2182
ss(I76
tp33
(dp34
I64
F0.0833
sI65
F0.0833
sI71
F0.0833
sI72
F0.0833
sI73
F0.1667
sI74
F0.25
sI76
F0.0833
sI77
F0.0833
sI86
F0.0833
ss(I24
tp35
(dp36
I34
F0.08
sI36
F0.1067
sI38
F0.1067
sI39
F0.0533
sI41
F0.1067
sI15
F0.0533
sI22
F0.0667
sI24
F0.1067
sI26
F0.1067
sI27
F0.1067
sI29
F0.1067
ss(I51
tp37
(dp38
I32
F0.044
sI36
F0.022
sI39
F0.033
sI46
F0.044
sI29
F0.022
sI48
F0.0659
sI50
F0.1209
sI51
F0.1319
sI53
F0.1099
sI56
F0.1538
sI58
F0.0549
sI60
F0.1209
sI61
F0.033
sI62
F0.011
sI63
F0.033
ss(I78
tp39
(dp40
I80
F0.4
sI73
F0.2
sI68
F0.4
ss(I89
tp41
(dp42
I88
F0.2222
sI81
F0.2222
sI91
F0.2778
sI69
F0.2778
ss(I15
tp43
(dp44
I34
F0.0299
sI36
F0.0299
sI15
F0.3209
sI17
F0.1194
sI22
F0.0299
sI24
F0.0299
sI27
F0.3209
sI29
F0.1194
ss(I26
tp45
(dp46
I33
F0.1633
sI38
F0.2449
sI39
F0.0816
sI45
F0.1224
sI24
F0.0612
sI26
F0.2449
sI27
F0.0816
ss(I53
tp47
(dp48
I29
F0.0185
sI32
F0.0093
sI33
F0.0185
sI34
F0.0301
sI41
F0.0139
sI45
F0.0463
sI46
F0.0671
sI48
F0.0347
sI51
F0.037
sI52
F0.0231
sI53
F0.2014
sI55
F0.0556
sI56
F0.0486
sI57
F0.0347
sI58
F0.0694
sI60
F0.0787
sI62
F0.0532
sI63
F0.0093
sI64
F0.0162
sI65
F0.0394
sI67
F0.0347
sI70
F0.0023
sI72
F0.037
sI77
F0.0116
sI82
F0.0093
ss(I64
tp49
(dp50
I33
F0.0687
sI45
F0.0802
sI48
F0.0057
sI50
F0.0267
sI51
F0.0019
sI53
F0.0363
sI55
F0.0324
sI56
F0.0229
sI57
F0.1469
sI58
F0.0248
sI60
F0.0401
sI61
F0.0191
sI62
F0.0935
sI63
F0.0115
sI64
F0.1489
sI65
F0.1221
sI66
F0.0153
sI67
F0.0134
sI68
F0.0038
sI69
F0.0344
sI70
F0.0229
sI72
F0.0038
sI74
F0.0019
sI75
F0.0019
sI76
F0.0019
sI77
F0.0019
sI81
F0.0019
sI86
F0.0076
sI89
F0.0038
sI93
F0.0019
sI97
F0.0019
ss(I91
tp51
(dp52
I64
F0.087
sI96
F0.0435
sI67
F0.087
sI88
F0.0435
sI89
F0.1739
sI90
F0.087
sI60
F0.087
sI93
F0.3913
ss(I28
tp53
(dp54
I27
F1.0
ss(I55
tp55
(dp56
I64
F0.0218
sI65
F0.0197
sI67
F0.0031
sI68
F0.001
sI69
F0.0083
sI70
F0.0021
sI40
F0.0021
sI41
F0.001
sI48
F0.0062
sI50
F0.0872
sI52
F0.0872
sI53
F0.0156
sI54
F0.0021
sI55
F0.2814
sI56
F0.0083
sI57
F0.0145
sI58
F0.1796
sI59
F0.0031
sI60
F0.1402
sI61
F0.0021
sI62
F0.1132
ss(I66
tp57
(dp58
I64
F0.0496
sI65
F0.0744
sI66
F0.0744
sI67
F0.0992
sI68
F0.0248
sI69
F0.0331
sI70
F0.0496
sI42
F0.0083
sI45
F0.0083
sI80
F0.0248
sI49
F0.0083
sI74
F0.0413
sI53
F0.0083
sI54
F0.0248
sI56
F0.0248
sI57
F0.0165
sI58
F0.1653
sI60
F0.0248
sI61
F0.0909
sI62
F0.0579
sI63
F0.0909
ss(I93
tp59
(dp60
I98
F0.125
sI91
F0.25
sI84
F0.25
sI69
F0.125
sI95
F0.25
ss(I30
tp61
(dp62
I34
F0.6667
sI26
F0.3333
ss(I41
tp63
(dp64
I24
F0.0141
sI27
F0.0405
sI29
F0.2887
sI31
F0.0493
sI33
F0.0035
sI34
F0.0141
sI36
F0.0141
sI38
F0.0035
sI39
F0.0511
sI40
F0.0141
sI41
F0.3151
sI43
F0.0528
sI46
F0.0123
sI48
F0.0158
sI50
F0.0106
sI51
F0.0053
sI53
F0.007
sI55
F0.0035
sI60
F0.0141
sI65
F0.0282
sI67
F0.0141
sI72
F0.0282
ss(I68
tp65
(dp66
I42
F0.0085
sI44
F0.0085
sI51
F0.0085
sI55
F0.0256
sI58
F0.0427
sI60
F0.1197
sI63
F0.094
sI64
F0.0598
sI65
F0.1368
sI66
F0.0684
sI67
F0.1368
sI68
F0.0598
sI70
F0.0427
sI71
F0.0256
sI72
F0.0171
sI73
F0.0256
sI75
F0.0171
sI76
F0.0256
sI77
F0.0171
sI78
F0.0085
sI79
F0.0342
sI82
F0.0171
ss(I95
tp67
(dp68
I93
F1.0
ss(I43
tp69
(dp70
I67
F0.1212
sI36
F0.0505
sI69
F0.1818
sI39
F0.0101
sI41
F0.1414
sI43
F0.1111
sI45
F0.0202
sI46
F0.0202
sI48
F0.0505
sI50
F0.0606
sI51
F0.0051
sI53
F0.0152
sI24
F0.0202
sI27
F0.0101
sI29
F0.1212
sI62
F0.0606
ss(I70
tp71
(dp72
I44
F0.0043
sI46
F0.013
sI53
F0.013
sI54
F0.013
sI55
F0.0043
sI56
F0.0087
sI58
F0.039
sI60
F0.0606
sI61
F0.0087
sI62
F0.039
sI63
F0.0996
sI64
F0.0216
sI65
F0.1472
sI66
F0.0173
sI67
F0.0476
sI68
F0.0909
sI69
F0.0476
sI70
F0.1775
sI71
F0.0043
sI72
F0.0563
sI74
F0.0173
sI75
F0.0087
sI77
F0.0087
sI78
F0.0043
sI80
F0.013
sI81
F0.0043
sI84
F0.0173
sI88
F0.0043
sI96
F0.0087
ss(I81
tp73
(dp74
I64
F0.0714
sI65
F0.0714
sI67
F0.0357
sI76
F0.0357
sI77
F0.0357
sI81
F0.4643
sI82
F0.1429
sI85
F0.1429
ss(I45
tp75
(dp76
I64
F0.125
sI33
F0.0382
sI34
F0.0486
sI69
F0.0417
sI38
F0.0208
sI39
F0.0174
sI43
F0.0104
sI45
F0.1319
sI46
F0.1146
sI49
F0.0243
sI50
F0.059
sI53
F0.066
sI57
F0.1597
sI58
F0.0625
sI61
F0.0313
sI62
F0.0139
sI65
F0.0347
ss(I56
tp77
(dp78
I64
F0.0798
sI66
F0.021
sI67
F0.0042
sI68
F0.0084
sI70
F0.0042
sI73
F0.0042
sI42
F0.0042
sI51
F0.0714
sI52
F0.0168
sI53
F0.1134
sI54
F0.0042
sI56
F0.3992
sI58
F0.0546
sI60
F0.0546
sI61
F0.0882
sI63
F0.0714
ss(I47
tp79
(dp80
I49
F0.5
sI61
F0.5
ss(I58
tp81
(dp82
I34
F0.0262
sI44
F0.0017
sI45
F0.0017
sI46
F0.0262
sI48
F0.0149
sI49
F0.0009
sI50
F0.0324
sI51
F0.0035
sI52
F0.0402
sI53
F0.0271
sI54
F0.007
sI55
F0.1566
sI56
F0.0157
sI57
F0.0367
sI58
F0.217
sI59
F0.0017
sI60
F0.0971
sI61
F0.0122
sI62
F0.0945
sI63
F0.0262
sI64
F0.007
sI65
F0.0892
sI66
F0.0227
sI67
F0.0114
sI68
F0.0044
sI70
F0.0149
sI74
F0.0009
sI75
F0.0017
sI77
F0.0035
sI80
F0.0009
sI82
F0.0035
ss(I85
tp83
(dp84
I64
F0.0588
sI67
F0.0588
sI81
F0.0588
sI86
F0.5294
sI88
F0.2353
sI61
F0.0588
ss(I96
tp85
(dp86
I64
F0.3333
sI67
F0.3333
sI91
F0.1667
sI60
F0.1667
ss(I22
tp87
(dp88
I36
F0.2222
sI15
F0.2222
sI22
F0.0556
sI24
F0.2222
sI27
F0.2222
sI29
F0.0556
ss(I33
tp89
(dp90
I64
F0.2177
sI65
F0.068
sI34
F0.1224
sI69
F0.0816
sI38
F0.0272
sI33
F0.0068
sI62
F0.0272
sI45
F0.034
sI46
F0.068
sI53
F0.0544
sI57
F0.2177
sI58
F0.068
sI30
F0.0068
ss(I60
tp91
(dp92
I36
F0.0345
sI44
F0.0017
sI46
F0.0086
sI48
F0.0482
sI50
F0.0482
sI51
F0.0078
sI52
F0.0448
sI53
F0.0034
sI55
F0.1232
sI56
F0.0164
sI57
F0.006
sI58
F0.1102
sI59
F0.0069
sI60
F0.2084
sI61
F0.0078
sI62
F0.062
sI63
F0.0181
sI64
F0.0207
sI65
F0.0663
sI66
F0.0078
sI67
F0.0982
sI68
F0.0164
sI69
F0.0086
sI70
F0.0095
sI72
F0.0121
sI73
F0.0009
sI74
F0.0009
sI75
F0.0009
sI81
F0.0009
sI86
F0.0009
ss(I98
tp93
(dp94
I97
F0.5
sI91
F0.5
ss(I62
tp95
(dp96
I38
F0.0752
sI45
F0.0006
sI46
F0.0006
sI48
F0.0067
sI49
F0.0067
sI50
F0.0814
sI52
F0.0079
sI53
F0.0051
sI55
F0.0528
sI56
F0.0006
sI57
F0.0124
sI58
F0.0651
sI60
F0.0657
sI61
F0.0135
sI62
F0.2746
sI63
F0.0314
sI64
F0.0219
sI65
F0.0157
sI66
F0.0022
sI67
F0.0241
sI68
F0.0062
sI69
F0.2122
sI70
F0.009
sI72
F0.0006
sI74
F0.0017
sI75
F0.0017
sI85
F0.0017
sI88
F0.0006
sI90
F0.0011
sI96
F0.0011
ss(I73
tp97
(dp98
I68
F0.1765
sI69
F0.0588
sI70
F0.1176
sI71
F0.2353
sI72
F0.2941
sI63
F0.1176
ss(I37
tp99
(dp100
I49
F0.2
sI37
F0.2
sI36
F0.2
sI29
F0.2
sI53
F0.2
ss(I48
tp101
(dp102
I27
F0.0251
sI33
F0.0125
sI36
F0.0627
sI39
F0.0313
sI40
F0.0125
sI41
F0.0345
sI43
F0.0125
sI45
F0.0251
sI46
F0.0564
sI48
F0.1097
sI50
F0.0439
sI51
F0.0094
sI52
F0.0439
sI53
F0.0627
sI55
F0.0094
sI57
F0.0031
sI58
F0.0282
sI60
F0.1411
sI62
F0.0533
sI64
F0.0439
sI65
F0.0251
sI67
F0.1003
sI68
F0.0031
sI69
F0.0251
sI72
F0.0251
ss(I75
tp103
(dp104
I65
F0.125
sI66
F0.0833
sI69
F0.0417
sI70
F0.125
sI71
F0.0417
sI72
F0.0417
sI73
F0.1667
sI74
F0.125
sI77
F0.0417
sI82
F0.0417
sI58
F0.0417
sI60
F0.0417
sI62
F0.0833
ss(I39
tp105
(dp106
I34
F0.0408
sI36
F0.0188
sI38
F0.0282
sI39
F0.3166
sI41
F0.1066
sI43
F0.0031
sI45
F0.0063
sI46
F0.0909
sI48
F0.0125
sI50
F0.0219
sI51
F0.0125
sI26
F0.0125
sI27
F0.2226
sI29
F0.1066
ss(I50
tp107
(dp108
I38
F0.0263
sI39
F0.0028
sI41
F0.0083
sI43
F0.0207
sI45
F0.029
sI46
F0.0055
sI48
F0.0249
sI49
F0.0166
sI50
F0.0899
sI51
F0.0014
sI52
F0.0802
sI53
F0.0069
sI55
F0.1217
sI57
F0.0124
sI58
F0.0567
sI59
F0.0014
sI60
F0.0761
sI61
F0.0221
sI62
F0.1674
sI64
F0.0263
sI67
F0.0166
sI69
F0.1867
ss(I77
tp109
(dp110
I64
F0.027
sI66
F0.0541
sI67
F0.1081
sI68
F0.0811
sI70
F0.027
sI72
F0.027
sI74
F0.027
sI75
F0.0811
sI76
F0.027
sI79
F0.1081
sI80
F0.0541
sI53
F0.0811
sI54
F0.027
sI58
F0.1351
sI60
F0.027
sI61
F0.027
sI62
F0.027
sI63
F0.0541
ss(I88
tp111
(dp112
I64
F0.0588
sI67
F0.0588
sI85
F0.0294
sI86
F0.3529
sI89
F0.3529
sI91
F0.1176
sI61
F0.0294
ss(I52
tp113
(dp114
I65
F0.0605
sI67
F0.0202
sI36
F0.0086
sI43
F0.0086
sI50
F0.1758
sI52
F0.1095
sI53
F0.0548
sI55
F0.2651
sI58
F0.1354
sI60
F0.1124
sI61
F0.0086
sI62
F0.0403
ss(I79
tp115
(dp116
I64
F0.0455
sI65
F0.1818
sI67
F0.0455
sI68
F0.0909
sI70
F0.0909
sI75
F0.0455
sI76
F0.0909
sI77
F0.1364
sI79
F0.0455
sI80
F0.0909
sI82
F0.0455
sI62
F0.0455
sI63
F0.0455
ss(I90
tp117
(dp118
I88
F0.5
sI98
F0.5
ss(I27
tp119
(dp120
I34
F0.0216
sI36
F0.0216
sI38
F0.0108
sI39
F0.1941
sI41
F0.0916
sI46
F0.0108
sI15
F0.1159
sI48
F0.0108
sI17
F0.0431
sI22
F0.0108
sI24
F0.0108
sI26
F0.0162
sI27
F0.3073
sI29
F0.1348
ss(I54
tp121
(dp122
I65
F0.0417
sI66
F0.125
sI68
F0.0417
sI70
F0.125
sI80
F0.0417
sI49
F0.0417
sI53
F0.0833
sI54
F0.125
sI58
F0.2083
sI62
F0.0417
sI63
F0.125
ss(I65
tp123
(dp124
I34
F0.0339
sI41
F0.0271
sI45
F0.0158
sI46
F0.0339
sI48
F0.0034
sI52
F0.0079
sI53
F0.0441
sI54
F0.0011
sI55
F0.0102
sI56
F0.0011
sI57
F0.0328
sI58
F0.0983
sI59
F0.0023
sI60
F0.1006
sI61
F0.0079
sI62
F0.0576
sI63
F0.0373
sI64
F0.0362
sI65
F0.2124
sI66
F0.0102
sI67
F0.0644
sI68
F0.0249
sI69
F0.0079
sI70
F0.0282
sI72
F0.0757
sI73
F0.0011
sI74
F0.0011
sI75
F0.0034
sI76
F0.0011
sI77
F0.0011
sI79
F0.0045
sI80
F0.0023
sI84
F0.0011
sI85
F0.0011
sI88
F0.0011
sI90
F0.0023
sI91
F0.0023
sI96
F0.0023
ss(I29
tp125
(dp126
I32
F0.0078
sI34
F0.0155
sI36
F0.0124
sI39
F0.0388
sI41
F0.2609
sI43
F0.0435
sI46
F0.0093
sI15
F0.0233
sI17
F0.0994
sI51
F0.0062
sI53
F0.0062
sI24
F0.0124
sI27
F0.0606
sI29
F0.3602
sI31
F0.0435
ss(I40
tp127
(dp128
I36
F0.05
sI38
F0.3
sI39
F0.15
sI40
F0.2
sI46
F0.1
sI48
F0.2
ss(I67
tp129
(dp130
I31
F0.039
sI36
F0.0433
sI43
F0.039
sI48
F0.0519
sI50
F0.0043
sI53
F0.0076
sI55
F0.0065
sI57
F0.0076
sI58
F0.0022
sI60
F0.1082
sI62
F0.053
sI63
F0.0195
sI64
F0.0032
sI65
F0.0639
sI66
F0.0173
sI67
F0.2576
sI68
F0.0097
sI69
F0.2056
sI70
F0.0162
sI72
F0.0281
sI75
F0.0022
sI76
F0.0011
sI77
F0.0032
sI79
F0.0011
sI80
F0.0022
sI81
F0.0011
sI82
F0.0011
sI86
F0.0011
sI89
F0.0022
sI93
F0.0011
ss(I94
tp131
(dp132
I96
F1.0
ss(I31
tp133
(dp134
I67
F0.0692
sI36
F0.0807
sI69
F0.1037
sI38
F0.3228
sI39
F0.0058
sI41
F0.0692
sI24
F0.0115
sI27
F0.0058
sI29
F0.072
sI62
F0.0346
sI31
F0.2248
ss(I42
tp135
(dp136
I38
F0.1667
sI46
F0.1667
sI49
F0.1667
sI54
F0.1667
sI58
F0.1667
sI59
F0.1667
ss(I69
tp137
(dp138
I31
F0.0221
sI33
F0.0074
sI38
F0.0823
sI43
F0.0221
sI45
F0.008
sI48
F0.0043
sI50
F0.0885
sI57
F0.0117
sI58
F0.0025
sI60
F0.0043
sI61
F0.0043
sI62
F0.2377
sI64
F0.0074
sI65
F0.0141
sI67
F0.0989
sI69
F0.3581
sI70
F0.0074
sI71
F0.0055
sI72
F0.0006
sI74
F0.0043
sI76
F0.0006
sI77
F0.0012
sI81
F0.0031
sI85
F0.0006
sI86
F0.0012
sI90
F0.0012
sI97
F0.0006
ss(I80
tp139
(dp140
I65
F0.0476
sI66
F0.1429
sI67
F0.1905
sI70
F0.1429
sI77
F0.0476
sI78
F0.0952
sI79
F0.1905
sI82
F0.1429
ss(I17
tp141
(dp142
I17
F0.4051
sI27
F0.0949
sI29
F0.4051
sI15
F0.0949
ss(I44
tp143
(dp144
I56
F0.4
sI42
F0.1
sI51
F0.2
sI60
F0.1
sI61
F0.2
ss(I71
tp145
(dp146
I68
F0.0526
sI69
F0.6316
sI70
F0.0526
sI72
F0.1053
sI73
F0.0526
sI74
F0.0526
sI79
F0.0526
ss(I82
tp147
(dp148
I65
F0.0278
sI68
F0.1111
sI69
F0.0278
sI72
F0.1389
sI75
F0.0278
sI77
F0.0278
sI80
F0.0833
sI81
F0.0278
sI84
F0.3333
sI53
F0.0833
sI56
F0.0278
sI58
F0.0833
ss(I46
tp149
(dp150
I24
F0.0286
sI27
F0.0143
sI29
F0.0143
sI31
F0.0071
sI33
F0.0071
sI34
F0.0321
sI36
F0.0357
sI37
F0.0071
sI39
F0.0893
sI41
F0.0107
sI42
F0.0036
sI43
F0.0214
sI45
F0.0357
sI46
F0.15
sI47
F0.0036
sI48
F0.0786
sI49
F0.0071
sI50
F0.0393
sI51
F0.0036
sI53
F0.0964
sI55
F0.0107
sI57
F0.0143
sI58
F0.0786
sI60
F0.0857
sI62
F0.0107
sI63
F0.0036
sI64
F0.0071
sI65
F0.0714
sI66
F0.0036
sI67
F0.0286
ss(I57
tp151
(dp152
I64
F0.1674
sI65
F0.0596
sI68
F0.0023
sI69
F0.0115
sI70
F0.0092
sI33
F0.0826
sI45
F0.1307
sI46
F0.0138
sI48
F0.0161
sI49
F0.0115
sI50
F0.0046
sI53
F0.0413
sI55
F0.0069
sI57
F0.2362
sI58
F0.0963
sI60
F0.0161
sI61
F0.0161
sI62
F0.0275
sI63
F0.0505
ss(I84
tp153
(dp154
I70
F0.1613
sI82
F0.2903
sI84
F0.129
sI86
F0.129
sI88
F0.2581
sI91
F0.0323
sssS'mode'
p155
I1
sS'before'
p156
I0
sb.