ccopy_reg
_reconstructor
p0
(cmarkov_sequences
Markov
p1
c__builtin__
object
p2
Ntp3
Rp4
(dp5
S'after'
p6
I2
sS'state_dict'
p7
(dp8
(F0.0
F20.0
tp9
(dp10
F-4.0
F1.0
ss(F0.0
F7.0
tp11
(dp12
F-0.5
F0.3076923076923077
sF-1.0
F0.6923076923076923
ss(F0.0
F10.0
tp13
(dp14
F-48.0
F0.3333333333333333
sF-0.25
F0.6666666666666666
ss(F0.0
F30.0
tp15
(dp16
F-3.0
F1.0
ss(F0.0
F27.5
tp17
(dp18
F-1.5
F1.0
ss(F0.0
F18.5
tp19
(dp20
F-0.5
F0.3333333333333333
sF-1.0
F0.6666666666666666
ss(F0.0
F4.0
tp21
(dp22
F-0.25
F0.016666666666666666
sF-3.5
F0.005555555555555556
sF-5.0
F0.005555555555555556
sF-0.5
F0.044444444444444446
sF-8.0
F0.027777777777777776
sF-4.5
F0.011111111111111112
sF-72.0
F0.005555555555555556
sF-12.0
F0.011111111111111112
sF-1.0
F0.07777777777777778
sF-40.0
F0.005555555555555556
sF-37.0
F0.005555555555555556
sF-4.0
F0.7611111111111111
sF-3.0
F0.011111111111111112
sF-2.0
F0.005555555555555556
sF-18.5
F0.005555555555555556
ss(F0.0
F239.75
tp23
(dp24
F-1.0
F1.0
ss(F0.0
F3.3333
tp25
(dp26
F-1.0
F0.1111111111111111
sF-1.6667
F0.8888888888888888
ss(F0.0
F11.5
tp27
(dp28
F-0.25
F1.0
ss(F0.0
F26.5
tp29
(dp30
F-3.0
F1.0
ss(F0.0
F3.5
tp31
(dp32
F-0.5
F0.4166666666666667
sF-0.25
F0.16666666666666666
sF-36.0
F0.08333333333333333
sF-4.0
F0.25
sF-40.0
F0.08333333333333333
ss(F0.0
F6.25
tp33
(dp34
F-0.0833
F1.0
ss(F0.0
F1.0
tp35
(dp36
F-0.25
F0.0579047619047619
sF-1.25
F0.0007619047619047619
sF-61.25
F0.00038095238095238096
sF-0.6667
F0.00038095238095238096
sF-0.5
F0.17066666666666666
sF-0.75
F0.011047619047619047
sF-45.75
F0.00038095238095238096
sF-1.5
F0.09904761904761905
sF-63.0
F0.00038095238095238096
sF-2.6667
F0.0007619047619047619
sF-53.0
F0.00038095238095238096
sF-52.0
F0.00038095238095238096
sF-51.0
F0.00038095238095238096
sF-177.0
F0.00038095238095238096
sF-48.75
F0.00038095238095238096
sF-32.5
F0.00038095238095238096
sF-35.0
F0.00038095238095238096
sF-2.25
F0.0030476190476190477
sF-2.5
F0.002285714285714286
sF-30.0
F0.00038095238095238096
sF-27.0
F0.0007619047619047619
sF-154.0
F0.00038095238095238096
sF-24.0
F0.00038095238095238096
sF-0.3333
F0.001142857142857143
sF-21.0
F0.00038095238095238096
sF-18.0
F0.00038095238095238096
sF-12.0
F0.001142857142857143
sF-2.0
F0.04342857142857143
sF-10.0
F0.00038095238095238096
sF-23.0
F0.00038095238095238096
sF-6.0
F0.0026666666666666666
sF-5.0
F0.005333333333333333
sF-4.0
F0.0015238095238095239
sF-3.0
F0.014095238095238095
sF-1.0
F0.5767619047619048
sF-4.5
F0.0007619047619047619
ss(F0.0
F45.75
tp37
(dp38
F-0.25
F1.0
ss(F0.0
F154.0
tp39
(dp40
F-1.0
F1.0
ss(F0.0
F52.0
tp41
(dp42
F-0.25
F0.5
sF-4.0
F0.5
ss(F0.0
F3.75
tp43
(dp44
F-0.5
F1.0
ss(F0.0
F32.5
tp45
(dp46
F-1.0
F1.0
ss(F0.0
F2.5
tp47
(dp48
F-0.5
F0.43478260869565216
sF-0.25
F0.10144927536231885
sF-1.5
F0.34782608695652173
sF-4.0
F0.028985507246376812
sF-3.0
F0.028985507246376812
sF-1.0
F0.057971014492753624
ss(F0.0
F27.0
tp49
(dp50
F-3.0
F1.0
ss(F0.0
F36.5
tp51
(dp52
F-1.0
F1.0
ss(F0.0
F36.0
tp53
(dp54
F-0.5
F0.5
sF-4.0
F0.5
ss(F0.0
F21.0
tp55
(dp56
F-3.0
F0.6666666666666666
sF-1.0
F0.3333333333333333
ss(F0.0
F3.6667
tp57
(dp58
F-3.0
F1.0
ss(F0.0
F24.0
tp59
(dp60
F-3.0
F1.0
ss(F0.0
F50.6666
tp61
(dp62
F-3.6667
F1.0
ss(F0.0
F33.0
tp63
(dp64
F-0.5
F0.5
sF-1.0
F0.5
ss(F0.0
F84.0
tp65
(dp66
F-1.0
F1.0
ss(F0.0
F59.75
tp67
(dp68
F-0.25
F1.0
ss(F0.0
F18.0
tp69
(dp70
F-1.0
F1.0
ss(F0.0
F1.25
tp71
(dp72
F-0.75
F0.23076923076923078
sF-0.5
F0.46153846153846156
sF-1.0
F0.23076923076923078
sF-2.75
F0.07692307692307693
ss(F0.0
F5.0
tp73
(dp74
F-0.5
F0.34615384615384615
sF-0.25
F0.11538461538461539
sF-12.0
F0.038461538461538464
sF-6.0
F0.15384615384615385
sF-3.0
F0.15384615384615385
sF-1.0
F0.19230769230769232
ss(F0.0
F8.0
tp75
(dp76
F-8.0
F0.18181818181818182
sF-56.0
F0.09090909090909091
sF-53.0
F0.09090909090909091
sF-4.0
F0.45454545454545453
sF-1.0
F0.18181818181818182
ss(F0.0
F9.5
tp77
(dp78
F-1.0
F1.0
ss(F0.0
F9.75
tp79
(dp80
F-6.0
F1.0
ss(F0.0
F155.3333
tp81
(dp82
F-1.6667
F1.0
ss(F0.0
F0.25
tp83
(dp84
F-0.75
F0.0711727842435094
sF-59.75
F0.00022381378692927484
sF-1.75
F0.001566696508504924
sF-63.0
F0.00022381378692927484
sF-0.5
F0.15241718889883618
sF-9.75
F0.0004476275738585497
sF-11.5
F0.0004476275738585497
sF-0.0833
F0.02909579230080573
sF-33.0
F0.00022381378692927484
sF-5.75
F0.0026857654431512983
sF-1.5
F0.0024619516562220233
sF-1.25
F0.0011190689346463742
sF-12.75
F0.0004476275738585497
sF-2.75
F0.0004476275738585497
sF-3.5
F0.0004476275738585497
sF-3.75
F0.0004476275738585497
sF-239.75
F0.00022381378692927484
sF-0.3333
F0.0006714413607878246
sF-1.0
F0.007162041181736795
sF-7.0
F0.0011190689346463742
sF-6.0
F0.0004476275738585497
sF-0.25
F0.7238137869292749
sF-4.0
F0.00022381378692927484
sF-3.0
F0.00022381378692927484
sF-2.0
F0.0017905102954341987
sF-5.5
F0.0004476275738585497
ss(F0.0
F0.1667
tp85
(dp86
F-2.5
F0.003952569169960474
sF-18.5
F0.007905138339920948
sF-6.5
F0.019762845849802372
sF-0.0833
F0.466403162055336
sF-0.3333
F0.015810276679841896
sF-0.1667
F0.48221343873517786
sF-46.5
F0.003952569169960474
ss(F0.0
F58.25
tp87
(dp88
F-0.25
F1.0
ss(F0.0
F2.0
tp89
(dp90
F-3.25
F0.0040650406504065045
sF-0.5
F0.08130081300813008
sF-36.5
F0.0040650406504065045
sF-5.0
F0.0040650406504065045
sF-4.0
F0.036585365853658534
sF-11.75
F0.0040650406504065045
sF-36.0
F0.0040650406504065045
sF-20.0
F0.0040650406504065045
sF-0.75
F0.012195121951219513
sF-2.0
F0.3821138211382114
sF-75.0
F0.0040650406504065045
sF-33.0
F0.0040650406504065045
sF-5.75
F0.008130081300813009
sF-3.0
F0.09349593495934959
sF-1.0
F0.22764227642276422
sF-0.25
F0.12601626016260162
ss(F0.0
F27.3333
tp91
(dp92
F-1.6667
F1.0
ss(F0.0
F53.0
tp93
(dp94
F-0.25
F0.5
sF-1.0
F0.5
ss(F0.0
F1.6667
tp95
(dp96
F-1.5
F1.0
ss(F0.0
F56.0
tp97
(dp98
F-4.0
F1.0
ss(F0.0
F177.0
tp99
(dp100
F-1.5
F1.0
ss(F0.0
F2.6667
tp101
(dp102
F-50.6666
F0.3333333333333333
sF-3.3333
F0.3333333333333333
sF-1.0
F0.3333333333333333
ss(F0.0
F15.0
tp103
(dp104
F-1.0
F1.0
ss(F0.0
F1.75
tp105
(dp106
F-1.5
F0.5384615384615384
sF-0.5
F0.15384615384615385
sF-0.25
F0.3076923076923077
ss(F0.0
F23.5
tp107
(dp108
F-0.5
F1.0
ss(F0.0
F37.0
tp109
(dp110
F-1.0
F1.0
ss(F0.0
F0.3333
tp111
(dp112
F-0.25
F0.05
sF-0.5
F0.2
sF-5.6667
F0.05
sF-2.6667
F0.05
sF-0.3333
F0.1
sF-0.3334
F0.2
sF-0.1667
F0.2
sF-1.0
F0.15
ss(F0.0
F0.5
tp113
(dp114
F-1.5
F0.05312
sF-0.5
F0.50272
sF-5.5
F0.00128
sF-0.75
F0.00608
sF-9.5
F0.00064
sF-33.0
F0.00064
sF-22.5
F0.00032
sF-26.5
F0.00032
sF-23.0
F0.00032
sF-3.5
F0.00288
sF-2.5
F0.00928
sF-58.25
F0.00032
sF-23.5
F0.00032
sF-0.3333
F0.00032
sF-15.0
F0.00032
sF-1.0
F0.16096
sF-9.0
F0.00128
sF-7.0
F0.00256
sF-5.0
F0.0032
sF-4.0
F0.00192
sF-3.0
F0.0048
sF-2.0
F0.00288
sF-0.25
F0.24352
ss(F0.0
F40.0
tp115
(dp116
F-0.5
F0.5
sF-4.0
F0.5
ss(F0.0
F3.25
tp117
(dp118
F-3.0
F1.0
ss(F0.0
F22.5
tp119
(dp120
F-1.0
F1.0
ss(F0.0
F51.6667
tp121
(dp122
F-0.0833
F1.0
ss(F0.0
F12.0
tp123
(dp124
F-0.25
F0.05128205128205128
sF-57.0
F0.02564102564102564
sF-0.3333
F0.02564102564102564
sF-12.0
F0.4358974358974359
sF-8.0
F0.05128205128205128
sF-6.0
F0.28205128205128205
sF-3.0
F0.10256410256410256
sF-1.0
F0.02564102564102564
ss(F0.0
F63.0
tp125
(dp126
F-0.25
F0.5
sF-1.0
F0.5
ss(F0.0
F61.25
tp127
(dp128
F-0.75
F1.0
ss(F0.0
F12.75
tp129
(dp130
F-0.25
F1.0
ss(F0.0
F46.5
tp131
(dp132
F-0.25
F1.0
ss(F0.0
F5.75
tp133
(dp134
F-0.25
F0.9333333333333333
sF-1.0
F0.06666666666666667
ss(F0.0
F48.75
tp135
(dp136
F-1.25
F1.0
ss(F0.0
F6.0
tp137
(dp138
F-6.25
F0.009433962264150943
sF-0.25
F0.02830188679245283
sF-12.0
F0.11320754716981132
sF-10.0
F0.018867924528301886
sF-9.0
F0.018867924528301886
sF-6.0
F0.3867924528301887
sF-3.0
F0.1792452830188679
sF-1.0
F0.24528301886792453
ss(F0.0
F75.0
tp139
(dp140
F-0.25
F1.0
ss(F0.0
F9.0
tp141
(dp142
F-0.5
F0.5714285714285714
sF-6.0
F0.2857142857142857
sF-3.0
F0.14285714285714285
ss(F0.0
F2.25
tp143
(dp144
F-0.25
F0.75
sF-0.75
F0.25
ss(F0.0
F1.5
tp145
(dp146
F-1.5
F0.21859706362153344
sF-0.5
F0.4061990212071778
sF-128.5
F0.0016313213703099511
sF-0.25
F0.040783034257748776
sF-27.5
F0.0016313213703099511
sF-59.6667
F0.0016313213703099511
sF-51.6667
F0.0016313213703099511
sF-27.3333
F0.0016313213703099511
sF-3.3333
F0.013050570962479609
sF-1.0
F0.24469820554649266
sF-2.5
F0.04241435562805873
sF-155.3333
F0.0016313213703099511
sF-4.0
F0.0065252854812398045
sF-2.0
F0.0032626427406199023
sF-0.75
F0.01468189233278956
ss(F0.0
F3.0
tp147
(dp148
F-2.75
F0.0033222591362126247
sF-0.25
F0.016611295681063124
sF-0.5
F0.016611295681063124
sF-21.0
F0.026578073089700997
sF-84.0
F0.0033222591362126247
sF-18.0
F0.019933554817275746
sF-12.0
F0.013289036544850499
sF-1.0
F0.16279069767441862
sF-9.0
F0.0033222591362126247
sF-6.0
F0.12292358803986711
sF-4.0
F0.013289036544850499
sF-3.0
F0.5880398671096345
sF-2.0
F0.009966777408637873
ss(F0.0
F72.0
tp149
(dp150
F-4.0
F1.0
ss(F0.0
F4.5
tp151
(dp152
F-1.5
F0.3333333333333333
sF-0.5
F0.3333333333333333
sF-1.0
F0.3333333333333333
ss(F0.0
F0.6667
tp153
(dp154
F-0.3333
F0.5
sF-1.0
F0.5
ss(F0.0
F57.0
tp155
(dp156
F-6.0
F1.0
ss(F0.0
F5.5
tp157
(dp158
F-0.25
F0.3333333333333333
sF-1.0
F0.6666666666666666
ss(F0.0
F48.0
tp159
(dp160
F-3.0
F1.0
ss(F0.0
F0.0833
tp161
(dp162
F-0.1667
F0.5079365079365079
sF-0.3334
F0.003968253968253968
sF-5.6667
F0.007936507936507936
sF-0.6667
F0.003968253968253968
sF-0.25
F0.47619047619047616
ss(F0.0
F11.75
tp163
(dp164
F-0.25
F1.0
ss(F0.0
F59.6667
tp165
(dp166
F-0.0833
F1.0
ss(F0.0
F128.5
tp167
(dp168
F-1.0
F1.0
ss(F0.0
F51.0
tp169
(dp170
F-1.0
F1.0
ss(F0.0
F0.3334
tp171
(dp172
F-0.3333
F1.0
ss(F0.0
F5.6667
tp173
(dp174
F-1.25
F0.3333333333333333
sF-0.25
F0.6666666666666666
ss(F0.0
F23.0
tp175
(dp176
F-0.5
F0.5
sF-1.0
F0.5
ss(F0.0
F0.75
tp177
(dp178
F-1.25
F0.00980392156862745
sF-0.25
F0.17647058823529413
sF-1.75
F0.014705882352941176
sF-4.5
F0.004901960784313725
sF-0.75
F0.056372549019607844
sF-1.5
F0.0024509803921568627
sF-12.0
F0.0024509803921568627
sF-2.0
F0.0196078431372549
sF-2.5
F0.01715686274509804
sF-4.0
F0.004901960784313725
sF-3.0
F0.0024509803921568627
sF-1.0
F0.5318627450980392
sF-0.5
F0.1568627450980392
ss(F0.0
F6.5
tp179
(dp180
F-2.0
F1.0
ss(F0.0
F2.75
tp181
(dp182
F-0.25
F0.5
sF-52.0
F0.25
sF-3.0
F0.25
ss(F0.0
F35.0
tp183
(dp184
F-1.0
F1.0
sssS'mode'
p185
I1
sS'before'
p186
I0
sb.