ccopy_reg
_reconstructor
p0
(cmarkov_sequences
Markov
p1
c__builtin__
object
p2
Ntp3
Rp4
(dp5
S'after'
p6
I0
sS'state_dict'
p7
(dp8
(F0.0
F20.0
tp9
(dp10
F22.0
F1.0
ss(F0.0
F7.0
tp11
(dp12
F7.25
F0.38461538461538464
sF7.5
F0.6153846153846154
ss(F0.0
F10.0
tp13
(dp14
F16.0
F0.6666666666666666
sF11.0
F0.3333333333333333
ss(F0.0
F30.0
tp15
(dp16
F31.0
F1.0
ss(F0.0
F27.5
tp17
(dp18
F29.0
F1.0
ss(F0.0
F18.5
tp19
(dp20
F22.5
F0.3333333333333333
sF18.6667
F0.6666666666666666
ss(F0.0
F4.0
tp21
(dp22
F4.75
F0.01092896174863388
sF4.5
F0.03278688524590164
sF5.0
F0.02185792349726776
sF6.0
F0.04918032786885246
sF7.0
F0.02185792349726776
sF8.0
F0.7486338797814208
sF60.0
F0.00546448087431694
sF44.0
F0.00546448087431694
sF12.0
F0.0273224043715847
sF4.25
F0.00546448087431694
sF76.0
F0.00546448087431694
sF40.0
F0.00546448087431694
sF56.0
F0.00546448087431694
sF24.0
F0.00546448087431694
sF5.5
F0.02185792349726776
sF6.5
F0.01092896174863388
sF7.5
F0.01639344262295082
ss(F0.0
F239.75
tp23
(dp24
F240.0
F1.0
ss(F0.0
F3.3333
tp25
(dp26
F4.8333
F0.8888888888888888
sF6.0
F0.1111111111111111
ss(F0.0
F11.5
tp27
(dp28
F11.75
F1.0
ss(F0.0
F26.5
tp29
(dp30
F27.0
F1.0
ss(F0.0
F3.5
tp31
(dp32
F7.5
F0.08333333333333333
sF3.75
F0.16666666666666666
sF4.0
F0.75
ss(F0.0
F6.25
tp33
(dp34
F12.25
F1.0
ss(F0.0
F1.0
tp35
(dp36
F1.75
F0.08257229832572298
sF2.5
F0.05707762557077625
sF2.0
F0.576103500761035
sF3.0
F0.0213089802130898
sF4.0
F0.018645357686453576
sF5.0
F0.00532724505327245
sF2.25
F0.001141552511415525
sF7.0
F0.00989345509893455
sF8.0
F0.003424657534246575
sF9.0
F0.00076103500761035
sF13.0
F0.000380517503805175
sF16.0
F0.000380517503805175
sF19.0
F0.002663622526636225
sF22.0
F0.001141552511415525
sF24.0
F0.000380517503805175
sF155.0
F0.000380517503805175
sF1.3333
F0.001141552511415525
sF10.5
F0.00076103500761035
sF34.0
F0.00076103500761035
sF1.25
F0.0121765601217656
sF36.0
F0.000380517503805175
sF6.0
F0.001902587519025875
sF38.0
F0.000380517503805175
sF1.5
F0.19140030441400305
sF52.0
F0.000380517503805175
sF54.0
F0.000380517503805175
sF6.75
F0.000380517503805175
sF3.6667
F0.000380517503805175
sF19.5
F0.00076103500761035
sF64.0
F0.000380517503805175
sF23.5
F0.000380517503805175
sF85.0
F0.000380517503805175
sF3.5
F0.0015220700152207
sF37.5
F0.000380517503805175
sF4.3333
F0.000380517503805175
sF33.5
F0.000380517503805175
sF240.75
F0.000380517503805175
sF129.5
F0.000380517503805175
sF1.6667
F0.000380517503805175
sF6.5
F0.0015220700152207
sF5.5
F0.00076103500761035
ss(F0.0
F45.75
tp37
(dp38
F46.75
F1.0
ss(F0.0
F154.0
tp39
(dp40
F155.0
F1.0
ss(F0.0
F52.0
tp41
(dp42
F54.75
F0.5
sF53.0
F0.5
ss(F0.0
F3.75
tp43
(dp44
F4.0
F1.0
ss(F0.0
F32.5
tp45
(dp46
F33.5
F1.0
ss(F0.0
F2.5
tp47
(dp48
F3.5
F0.08695652173913043
sF3.25
F0.10144927536231885
sF3.0
F0.42028985507246375
sF4.0
F0.37681159420289856
sF2.6667
F0.014492753623188406
ss(F0.0
F27.0
tp49
(dp50
F28.0
F1.0
ss(F0.0
F36.5
tp51
(dp52
F38.5
F1.0
ss(F0.0
F36.0
tp53
(dp54
F39.5
F0.5
sF38.0
F0.5
ss(F0.0
F21.0
tp55
(dp56
F24.0
F0.8888888888888888
sF22.0
F0.1111111111111111
ss(F0.0
F3.6667
tp57
(dp58
F54.3333
F1.0
ss(F0.0
F24.0
tp59
(dp60
F25.0
F1.0
ss(F0.0
F50.6666
tp61
(dp62
F53.3333
F1.0
ss(F0.0
F33.0
tp63
(dp64
F33.5
F0.5
sF33.25
F0.25
sF35.0
F0.25
ss(F0.0
F84.0
tp65
(dp66
F87.0
F1.0
ss(F0.0
F59.75
tp67
(dp68
F60.0
F1.0
ss(F0.0
F18.0
tp69
(dp70
F19.0
F0.14285714285714285
sF21.0
F0.8571428571428571
ss(F0.0
F1.25
tp71
(dp72
F2.25
F0.15384615384615385
sF1.5
F0.38461538461538464
sF2.0
F0.3076923076923077
sF50.0
F0.07692307692307693
sF6.9167
F0.07692307692307693
ss(F0.0
F5.0
tp73
(dp74
F5.5
F0.38461538461538464
sF9.0
F0.038461538461538464
sF6.0
F0.5384615384615384
sF7.0
F0.038461538461538464
ss(F0.0
F8.0
tp75
(dp76
F16.0
F0.2222222222222222
sF12.0
F0.5555555555555556
sF20.0
F0.2222222222222222
ss(F0.0
F9.5
tp77
(dp78
F10.0
F1.0
ss(F0.0
F9.75
tp79
(dp80
F10.0
F1.0
ss(F0.0
F155.3333
tp81
(dp82
F156.8333
F1.0
ss(F0.0
F0.25
tp83
(dp84
F1.25
F0.03403493058665472
sF4.25
F0.0006717420510523958
sF2.0
F0.0008956560680698612
sF75.25
F0.0002239140170174653
sF2.75
F0.001567398119122257
sF1.0
F0.0161218092252575
sF0.5833
F0.0002239140170174653
sF12.0
F0.0002239140170174653
sF13.0
F0.0004478280340349306
sF3.0
F0.0004478280340349306
sF0.3333
F0.026869682042095836
sF0.75
F0.1703985669502911
sF5.9167
F0.0004478280340349306
sF0.5
F0.7241379310344828
sF11.75
F0.0004478280340349306
sF6.0
F0.003134796238244514
sF46.0
F0.0002239140170174653
sF58.5
F0.0002239140170174653
sF60.0
F0.0002239140170174653
sF1.75
F0.005597850425436633
sF12.25
F0.0004478280340349306
sF46.75
F0.0002239140170174653
sF63.25
F0.0002239140170174653
sF3.75
F0.0004478280340349306
sF2.25
F0.006941334527541424
sF5.75
F0.0004478280340349306
sF6.25
F0.0006717420510523958
sF2.5
F0.0013434841021047917
sF3.25
F0.0011195700850873264
sF53.25
F0.0002239140170174653
sF10.25
F0.0004478280340349306
sF52.25
F0.0002239140170174653
sF5.25
F0.0006717420510523958
ss(F0.0
F0.1667
tp85
(dp86
F0.25
F0.5039370078740157
sF0.3334
F0.48031496062992124
sF0.5
F0.015748031496062992
ss(F0.0
F58.25
tp87
(dp88
F58.75
F1.0
ss(F0.0
F2.0
tp89
(dp90
F8.5
F0.020491803278688523
sF3.5
F0.00819672131147541
sF3.0
F0.4672131147540984
sF4.0
F0.38524590163934425
sF5.0
F0.012295081967213115
sF6.0
F0.004098360655737705
sF2.25
F0.03278688524590164
sF2.75
F0.03278688524590164
sF2.5
F0.036885245901639344
ss(F0.0
F27.3333
tp91
(dp92
F28.8333
F1.0
ss(F0.0
F53.0
tp93
(dp94
F61.0
F0.5
sF54.0
F0.5
ss(F0.0
F1.6667
tp95
(dp96
F157.0
F0.1
sF5.0
F0.8
sF29.0
F0.1
ss(F0.0
F56.0
tp97
(dp98
F64.0
F1.0
ss(F0.0
F177.0
tp99
(dp100
F178.0
F1.0
ss(F0.0
F2.6667
tp101
(dp102
F3.0
F0.3333333333333333
sF3.6667
F0.6666666666666666
ss(F0.0
F15.0
tp103
(dp104
F15.5
F1.0
ss(F0.0
F1.75
tp105
(dp106
F2.5
F0.46153846153846156
sF2.0
F0.5384615384615384
ss(F0.0
F23.5
tp107
(dp108
F24.0
F1.0
ss(F0.0
F37.0
tp109
(dp110
F41.0
F1.0
ss(F0.0
F0.3333
tp111
(dp112
F0.5
F0.2
sF1.0
F0.05
sF0.5833
F0.15
sF1.3333
F0.15
sF0.8333
F0.05
sF12.3333
F0.05
sF0.6667
F0.25
sF0.6666
F0.1
ss(F0.0
F0.5
tp113
(dp114
F2.5
F0.006408202499198975
sF1.0
F0.5033643063120795
sF2.0
F0.07978212111502724
sF3.0
F0.009612303748798462
sF4.0
F0.0016020506247997437
sF5.0
F0.0006408202499198974
sF0.75
F0.2181992950977251
sF0.8333
F0.001281640499839795
sF4.5
F0.00256328099967959
sF19.0
F0.0003204101249599487
sF24.0
F0.0003204101249599487
sF9.5
F0.001281640499839795
sF1.25
F0.02050624799743672
sF1.5
F0.14354373598205702
sF4.25
F0.0006408202499198974
sF1.75
F0.0019224607497596924
sF23.5
F0.0003204101249599487
sF3.5
F0.0016020506247997437
sF2.25
F0.0006408202499198974
sF33.5
F0.0006408202499198974
sF36.5
F0.0003204101249599487
sF40.5
F0.0003204101249599487
sF5.5
F0.0028836911246395386
sF7.5
F0.001281640499839795
ss(F0.0
F40.0
tp115
(dp116
F43.5
F0.5
sF44.0
F0.5
ss(F0.0
F3.25
tp117
(dp118
F5.25
F1.0
ss(F0.0
F22.5
tp119
(dp120
F23.0
F1.0
ss(F0.0
F51.6667
tp121
(dp122
F53.1667
F1.0
ss(F0.0
F12.0
tp123
(dp124
F12.75
F0.025
sF13.0
F0.075
sF15.0
F0.1
sF16.0
F0.05
sF17.0
F0.025
sF18.0
F0.3
sF24.0
F0.425
ss(F0.0
F63.0
tp125
(dp126
F64.0
F0.5
sF63.25
F0.5
ss(F0.0
F61.25
tp127
(dp128
F62.25
F1.0
ss(F0.0
F12.75
tp129
(dp130
F13.0
F1.0
ss(F0.0
F46.5
tp131
(dp132
F46.6667
F1.0
ss(F0.0
F5.75
tp133
(dp134
F7.75
F0.14285714285714285
sF6.0
F0.8571428571428571
ss(F0.0
F48.75
tp135
(dp136
F49.75
F1.0
ss(F0.0
F6.0
tp137
(dp138
F6.25
F0.018691588785046728
sF15.75
F0.018691588785046728
sF7.0
F0.06542056074766354
sF9.0
F0.34579439252336447
sF11.0
F0.037383177570093455
sF12.0
F0.38317757009345793
sF15.0
F0.018691588785046728
sF18.0
F0.102803738317757
sF63.0
F0.009345794392523364
ss(F0.0
F75.0
tp139
(dp140
F77.0
F1.0
ss(F0.0
F9.0
tp141
(dp142
F9.5
F0.5714285714285714
sF12.0
F0.14285714285714285
sF15.0
F0.2857142857142857
ss(F0.0
F2.25
tp143
(dp144
F3.25
F1.0
ss(F0.0
F1.5
tp145
(dp146
F1.75
F0.017828200972447326
sF2.5
F0.4213938411669368
sF2.0
F0.26904376012965964
sF3.0
F0.2171799027552674
sF4.0
F0.03889789303079417
sF6.0
F0.0032414910858995136
sF178.5
F0.0016207455429497568
sF29.0
F0.0016207455429497568
sF3.1667
F0.01620745542949757
sF2.25
F0.0016207455429497568
sF3.25
F0.011345218800648298
ss(F0.0
F3.0
tp147
(dp148
F5.75
F0.0033222591362126247
sF33.0
F0.0033222591362126247
sF4.0
F0.12292358803986711
sF5.0
F0.07641196013289037
sF6.0
F0.5880398671096345
sF7.0
F0.006644518272425249
sF8.0
F0.013289036544850499
sF9.0
F0.06312292358803986
sF30.0
F0.006644518272425249
sF12.0
F0.0033222591362126247
sF3.25
F0.0033222591362126247
sF15.0
F0.013289036544850499
sF51.0
F0.0033222591362126247
sF6.6667
F0.0033222591362126247
sF3.5
F0.04983388704318937
sF24.0
F0.019933554817275746
sF29.5
F0.0033222591362126247
sF27.0
F0.0033222591362126247
sF5.5
F0.006644518272425249
sF3.75
F0.0033222591362126247
sF6.25
F0.0033222591362126247
ss(F0.0
F72.0
tp149
(dp150
F76.0
F1.0
ss(F0.0
F4.5
tp151
(dp152
F5.5
F0.3333333333333333
sF5.25
F0.3333333333333333
sF8.5
F0.3333333333333333
ss(F0.0
F0.6667
tp153
(dp154
F0.75
F0.5
sF1.6667
F0.5
ss(F0.0
F57.0
tp155
(dp156
F69.0
F1.0
ss(F0.0
F5.5
tp157
(dp158
F5.75
F0.3333333333333333
sF6.0
F0.6666666666666666
ss(F0.0
F48.0
tp159
(dp160
F58.0
F1.0
ss(F0.0
F0.0833
tp161
(dp162
F0.25
F0.4701195219123506
sF6.3333
F0.00398406374501992
sF51.75
F0.00398406374501992
sF59.75
F0.00398406374501992
sF0.3333
F0.5179282868525896
ss(F0.0
F11.75
tp163
(dp164
F13.75
F1.0
ss(F0.0
F59.6667
tp165
(dp166
F61.1667
F1.0
ss(F0.0
F128.5
tp167
(dp168
F130.0
F1.0
ss(F0.0
F51.0
tp169
(dp170
F52.0
F1.0
ss(F0.0
F0.3334
tp171
(dp172
F0.4167
F0.2
sF0.6667
F0.8
ss(F0.0
F5.6667
tp173
(dp174
F5.75
F0.6666666666666666
sF6.0
F0.3333333333333333
ss(F0.0
F23.0
tp175
(dp176
F23.5
F0.5
sF24.0
F0.5
ss(F0.0
F0.75
tp177
(dp178
F1.75
F0.07125307125307126
sF1.0
F0.7813267813267813
sF2.0
F0.007371007371007371
sF3.0
F0.004914004914004914
sF2.75
F0.007371007371007371
sF1.5
F0.056511056511056514
sF1.25
F0.04668304668304668
sF62.0
F0.002457002457002457
sF2.25
F0.022113022113022112
ss(F0.0
F6.5
tp179
(dp180
F6.6667
F1.0
ss(F0.0
F2.75
tp181
(dp182
F5.75
F0.25
sF3.0
F0.5
sF4.0
F0.25
ss(F0.0
F35.0
tp183
(dp184
F36.0
F1.0
sssS'mode'
p185
I0
sS'before'
p186
I2
sb.