ccopy_reg
_reconstructor
p0
(cmarkov_sequences
Markov
p1
c__builtin__
object
p2
Ntp3
Rp4
(dp5
S'after'
p6
I2
sS'state_dict'
p7
(dp8
(F0.0
F20.0
tp9
(dp10
F-4.0
F1.0
ss(F0.0
F7.0
tp11
(dp12
F-0.5
F0.3077
sF-1.0
F0.6923
ss(F0.0
F10.0
tp13
(dp14
F-48.0
F0.3333
sF-0.25
F0.6667
ss(F0.0
F30.0
tp15
(dp16
F-3.0
F1.0
ss(F0.0
F27.5
tp17
(dp18
F-1.5
F1.0
ss(F0.0
F18.5
tp19
(dp20
F-0.5
F0.3333
sF-1.0
F0.6667
ss(F0.0
F4.0
tp21
(dp22
F-0.25
F0.0167
sF-3.5
F0.0056
sF-5.0
F0.0056
sF-0.5
F0.0444
sF-8.0
F0.0278
sF-4.5
F0.0111
sF-72.0
F0.0056
sF-12.0
F0.0111
sF-1.0
F0.0778
sF-40.0
F0.0056
sF-37.0
F0.0056
sF-4.0
F0.7611
sF-3.0
F0.0111
sF-2.0
F0.0056
sF-18.5
F0.0056
ss(F0.0
F239.75
tp23
(dp24
F-1.0
F1.0
ss(F0.0
F3.3333
tp25
(dp26
F-1.0
F0.1111
sF-1.6667
F0.8889
ss(F0.0
F11.5
tp27
(dp28
F-0.25
F1.0
ss(F0.0
F26.5
tp29
(dp30
F-3.0
F1.0
ss(F0.0
F3.5
tp31
(dp32
F-0.5
F0.4167
sF-0.25
F0.1667
sF-36.0
F0.0833
sF-4.0
F0.25
sF-40.0
F0.0833
ss(F0.0
F6.25
tp33
(dp34
F-0.0833
F1.0
ss(F0.0
F1.0
tp35
(dp36
F-0.25
F0.0579
sF-1.25
F0.0008
sF-61.25
F0.0004
sF-0.6667
F0.0004
sF-0.5
F0.1707
sF-0.75
F0.011
sF-45.75
F0.0004
sF-1.5
F0.099
sF-63.0
F0.0004
sF-2.6667
F0.0008
sF-53.0
F0.0004
sF-52.0
F0.0004
sF-51.0
F0.0004
sF-177.0
F0.0004
sF-48.75
F0.0004
sF-32.5
F0.0004
sF-35.0
F0.0004
sF-2.25
F0.003
sF-2.5
F0.0023
sF-30.0
F0.0004
sF-27.0
F0.0008
sF-154.0
F0.0004
sF-24.0
F0.0004
sF-0.3333
F0.0011
sF-21.0
F0.0004
sF-18.0
F0.0004
sF-12.0
F0.0011
sF-2.0
F0.0434
sF-10.0
F0.0004
sF-23.0
F0.0004
sF-6.0
F0.0027
sF-5.0
F0.0053
sF-4.0
F0.0015
sF-3.0
F0.0141
sF-1.0
F0.5768
sF-4.5
F0.0008
ss(F0.0
F45.75
tp37
(dp38
F-0.25
F1.0
ss(F0.0
F154.0
tp39
(dp40
F-1.0
F1.0
ss(F0.0
F52.0
tp41
(dp42
F-0.25
F0.5
sF-4.0
F0.5
ss(F0.0
F3.75
tp43
(dp44
F-0.5
F1.0
ss(F0.0
F32.5
tp45
(dp46
F-1.0
F1.0
ss(F0.0
F2.5
tp47
(dp48
F-0.5
F0.4348
sF-0.25
F0.1014
sF-1.5
F0.3478
sF-4.0
F0.029
sF-3.0
F0.029
sF-1.0
F0.058
ss(F0.0
F27.0
tp49
(dp50
F-3.0
F1.0
ss(F0.0
F36.5
tp51
(dp52
F-1.0
F1.0
ss(F0.0
F36.0
tp53
(dp54
F-0.5
F0.5
sF-4.0
F0.5
ss(F0.0
F21.0
tp55
(dp56
F-3.0
F0.6667
sF-1.0
F0.3333
ss(F0.0
F3.6667
tp57
(dp58
F-3.0
F1.0
ss(F0.0
F24.0
tp59
(dp60
F-3.0
F1.0
ss(F0.0
F50.6666
tp61
(dp62
F-3.6667
F1.0
ss(F0.0
F33.0
tp63
(dp64
F-0.5
F0.5
sF-1.0
F0.5
ss(F0.0
F84.0
tp65
(dp66
F-1.0
F1.0
ss(F0.0
F59.75
tp67
(dp68
F-0.25
F1.0
ss(F0.0
F18.0
tp69
(dp70
F-1.0
F1.0
ss(F0.0
F1.25
tp71
(dp72
F-0.75
F0.2308
sF-0.5
F0.4615
sF-1.0
F0.2308
sF-2.75
F0.0769
ss(F0.0
F5.0
tp73
(dp74
F-0.5
F0.3462
sF-0.25
F0.1154
sF-12.0
F0.0385
sF-6.0
F0.1538
sF-3.0
F0.1538
sF-1.0
F0.1923
ss(F0.0
F8.0
tp75
(dp76
F-8.0
F0.1818
sF-56.0
F0.0909
sF-53.0
F0.0909
sF-4.0
F0.4545
sF-1.0
F0.1818
ss(F0.0
F9.5
tp77
(dp78
F-1.0
F1.0
ss(F0.0
F9.75
tp79
(dp80
F-6.0
F1.0
ss(F0.0
F155.3333
tp81
(dp82
F-1.6667
F1.0
ss(F0.0
F0.25
tp83
(dp84
F-0.75
F0.0712
sF-59.75
F0.0002
sF-1.75
F0.0016
sF-63.0
F0.0002
sF-0.5
F0.1524
sF-9.75
F0.0004
sF-11.5
F0.0004
sF-0.0833
F0.0291
sF-33.0
F0.0002
sF-5.75
F0.0027
sF-1.5
F0.0025
sF-1.25
F0.0011
sF-12.75
F0.0004
sF-2.75
F0.0004
sF-3.5
F0.0004
sF-3.75
F0.0004
sF-239.75
F0.0002
sF-0.3333
F0.0007
sF-1.0
F0.0072
sF-7.0
F0.0011
sF-6.0
F0.0004
sF-0.25
F0.7238
sF-4.0
F0.0002
sF-3.0
F0.0002
sF-2.0
F0.0018
sF-5.5
F0.0004
ss(F0.0
F0.1667
tp85
(dp86
F-2.5
F0.004
sF-18.5
F0.0079
sF-6.5
F0.0198
sF-0.0833
F0.4664
sF-0.3333
F0.0158
sF-0.1667
F0.4822
sF-46.5
F0.004
ss(F0.0
F58.25
tp87
(dp88
F-0.25
F1.0
ss(F0.0
F2.0
tp89
(dp90
F-3.25
F0.0041
sF-0.5
F0.0813
sF-36.5
F0.0041
sF-5.0
F0.0041
sF-4.0
F0.0366
sF-11.75
F0.0041
sF-36.0
F0.0041
sF-20.0
F0.0041
sF-0.75
F0.0122
sF-2.0
F0.3821
sF-75.0
F0.0041
sF-33.0
F0.0041
sF-5.75
F0.0081
sF-3.0
F0.0935
sF-1.0
F0.2276
sF-0.25
F0.126
ss(F0.0
F27.3333
tp91
(dp92
F-1.6667
F1.0
ss(F0.0
F53.0
tp93
(dp94
F-0.25
F0.5
sF-1.0
F0.5
ss(F0.0
F1.6667
tp95
(dp96
F-1.5
F1.0
ss(F0.0
F56.0
tp97
(dp98
F-4.0
F1.0
ss(F0.0
F177.0
tp99
(dp100
F-1.5
F1.0
ss(F0.0
F2.6667
tp101
(dp102
F-50.6666
F0.3333
sF-3.3333
F0.3333
sF-1.0
F0.3333
ss(F0.0
F15.0
tp103
(dp104
F-1.0
F1.0
ss(F0.0
F1.75
tp105
(dp106
F-1.5
F0.5385
sF-0.5
F0.1538
sF-0.25
F0.3077
ss(F0.0
F23.5
tp107
(dp108
F-0.5
F1.0
ss(F0.0
F37.0
tp109
(dp110
F-1.0
F1.0
ss(F0.0
F0.3333
tp111
(dp112
F-0.25
F0.05
sF-0.5
F0.2
sF-5.6667
F0.05
sF-2.6667
F0.05
sF-0.3333
F0.1
sF-0.3334
F0.2
sF-0.1667
F0.2
sF-1.0
F0.15
ss(F0.0
F0.5
tp113
(dp114
F-1.5
F0.0531
sF-0.5
F0.5027
sF-5.5
F0.0013
sF-0.75
F0.0061
sF-9.5
F0.0006
sF-33.0
F0.0006
sF-22.5
F0.0003
sF-26.5
F0.0003
sF-23.0
F0.0003
sF-3.5
F0.0029
sF-2.5
F0.0093
sF-58.25
F0.0003
sF-23.5
F0.0003
sF-0.3333
F0.0003
sF-15.0
F0.0003
sF-1.0
F0.161
sF-9.0
F0.0013
sF-7.0
F0.0026
sF-5.0
F0.0032
sF-4.0
F0.0019
sF-3.0
F0.0048
sF-2.0
F0.0029
sF-0.25
F0.2435
ss(F0.0
F40.0
tp115
(dp116
F-0.5
F0.5
sF-4.0
F0.5
ss(F0.0
F3.25
tp117
(dp118
F-3.0
F1.0
ss(F0.0
F22.5
tp119
(dp120
F-1.0
F1.0
ss(F0.0
F51.6667
tp121
(dp122
F-0.0833
F1.0
ss(F0.0
F12.0
tp123
(dp124
F-0.25
F0.0513
sF-57.0
F0.0256
sF-0.3333
F0.0256
sF-12.0
F0.4359
sF-8.0
F0.0513
sF-6.0
F0.2821
sF-3.0
F0.1026
sF-1.0
F0.0256
ss(F0.0
F63.0
tp125
(dp126
F-0.25
F0.5
sF-1.0
F0.5
ss(F0.0
F61.25
tp127
(dp128
F-0.75
F1.0
ss(F0.0
F12.75
tp129
(dp130
F-0.25
F1.0
ss(F0.0
F46.5
tp131
(dp132
F-0.25
F1.0
ss(F0.0
F5.75
tp133
(dp134
F-0.25
F0.9333
sF-1.0
F0.0667
ss(F0.0
F48.75
tp135
(dp136
F-1.25
F1.0
ss(F0.0
F6.0
tp137
(dp138
F-6.25
F0.0094
sF-0.25
F0.0283
sF-12.0
F0.1132
sF-10.0
F0.0189
sF-9.0
F0.0189
sF-6.0
F0.3868
sF-3.0
F0.1792
sF-1.0
F0.2453
ss(F0.0
F75.0
tp139
(dp140
F-0.25
F1.0
ss(F0.0
F9.0
tp141
(dp142
F-0.5
F0.5714
sF-6.0
F0.2857
sF-3.0
F0.1429
ss(F0.0
F2.25
tp143
(dp144
F-0.25
F0.75
sF-0.75
F0.25
ss(F0.0
F1.5
tp145
(dp146
F-1.5
F0.2186
sF-0.5
F0.4062
sF-128.5
F0.0016
sF-0.25
F0.0408
sF-27.5
F0.0016
sF-59.6667
F0.0016
sF-51.6667
F0.0016
sF-27.3333
F0.0016
sF-3.3333
F0.0131
sF-1.0
F0.2447
sF-2.5
F0.0424
sF-155.3333
F0.0016
sF-4.0
F0.0065
sF-2.0
F0.0033
sF-0.75
F0.0147
ss(F0.0
F3.0
tp147
(dp148
F-2.75
F0.0033
sF-0.25
F0.0166
sF-0.5
F0.0166
sF-21.0
F0.0266
sF-84.0
F0.0033
sF-18.0
F0.0199
sF-12.0
F0.0133
sF-1.0
F0.1628
sF-9.0
F0.0033
sF-6.0
F0.1229
sF-4.0
F0.0133
sF-3.0
F0.588
sF-2.0
F0.01
ss(F0.0
F72.0
tp149
(dp150
F-4.0
F1.0
ss(F0.0
F4.5
tp151
(dp152
F-1.5
F0.3333
sF-0.5
F0.3333
sF-1.0
F0.3333
ss(F0.0
F0.6667
tp153
(dp154
F-0.3333
F0.5
sF-1.0
F0.5
ss(F0.0
F57.0
tp155
(dp156
F-6.0
F1.0
ss(F0.0
F5.5
tp157
(dp158
F-0.25
F0.3333
sF-1.0
F0.6667
ss(F0.0
F48.0
tp159
(dp160
F-3.0
F1.0
ss(F0.0
F0.0833
tp161
(dp162
F-0.1667
F0.5079
sF-0.3334
F0.004
sF-5.6667
F0.0079
sF-0.6667
F0.004
sF-0.25
F0.4762
ss(F0.0
F11.75
tp163
(dp164
F-0.25
F1.0
ss(F0.0
F59.6667
tp165
(dp166
F-0.0833
F1.0
ss(F0.0
F128.5
tp167
(dp168
F-1.0
F1.0
ss(F0.0
F51.0
tp169
(dp170
F-1.0
F1.0
ss(F0.0
F0.3334
tp171
(dp172
F-0.3333
F1.0
ss(F0.0
F5.6667
tp173
(dp174
F-1.25
F0.3333
sF-0.25
F0.6667
ss(F0.0
F23.0
tp175
(dp176
F-0.5
F0.5
sF-1.0
F0.5
ss(F0.0
F0.75
tp177
(dp178
F-1.25
F0.0098
sF-0.25
F0.1765
sF-1.75
F0.0147
sF-4.5
F0.0049
sF-0.75
F0.0564
sF-1.5
F0.0025
sF-12.0
F0.0025
sF-2.0
F0.0196
sF-2.5
F0.0172
sF-4.0
F0.0049
sF-3.0
F0.0025
sF-1.0
F0.5319
sF-0.5
F0.1569
ss(F0.0
F6.5
tp179
(dp180
F-2.0
F1.0
ss(F0.0
F2.75
tp181
(dp182
F-0.25
F0.5
sF-52.0
F0.25
sF-3.0
F0.25
ss(F0.0
F35.0
tp183
(dp184
F-1.0
F1.0
sssS'mode'
p185
I1
sS'before'
p186
I0
sb.