ccopy_reg
_reconstructor
p0
(cmarkov_sequences
Markov
p1
c__builtin__
object
p2
Ntp3
Rp4
(dp5
S'after'
p6
I2
sS'state_dict'
p7
(dp8
(I56
I51
tp9
(dp10
I56
F0.3125
sI58
F0.125
sI66
F0.125
sI51
F0.3125
sI61
F0.125
ss(I46
I42
tp11
(dp12
I47
F1.0
ss(I53
I53
tp13
(dp14
I32
F0.032
sI34
F0.04
sI41
F0.024
sI77
F0.032
sI46
F0.168
sI45
F0.024
sI48
F0.088
sI82
F0.032
sI51
F0.048
sI53
F0.4
sI55
F0.04
sI56
F0.016
sI58
F0.016
sI60
F0.008
sI29
F0.032
ss(I27
I46
tp15
(dp16
I27
F0.5
sI39
F0.5
ss(I57
I50
tp17
(dp18
I64
F0.09090909090909091
sI57
F0.18181818181818182
sI45
F0.7272727272727273
ss(I73
I72
tp19
(dp20
I69
F1.0
ss(I54
I58
tp21
(dp22
I65
F0.06666666666666667
sI66
F0.13333333333333333
sI68
F0.06666666666666667
sI70
F0.13333333333333333
sI80
F0.06666666666666667
sI54
F0.13333333333333333
sI58
F0.13333333333333333
sI62
F0.06666666666666667
sI63
F0.2
ss(I96
I91
tp23
(dp24
I64
F0.3333333333333333
sI67
F0.3333333333333333
sI60
F0.3333333333333333
ss(I33
I41
tp25
(dp26
I34
F1.0
ss(I62
I36
tp27
(dp28
I69
F0.5
sI62
F0.5
ss(I36
I34
tp29
(dp30
I34
F0.06060606060606061
sI36
F0.18181818181818182
sI39
F0.09090909090909091
sI41
F0.24242424242424243
sI48
F0.06060606060606061
sI24
F0.12121212121212122
sI29
F0.24242424242424243
ss(I34
I46
tp31
(dp32
I36
F0.1111111111111111
sI41
F0.05555555555555555
sI43
F0.1111111111111111
sI46
F0.2222222222222222
sI48
F0.1111111111111111
sI53
F0.2777777777777778
sI31
F0.1111111111111111
ss(I67
I36
tp33
(dp34
I67
F0.5
sI60
F0.5
ss(I62
I64
tp35
(dp36
I64
F0.08045977011494253
sI65
F0.10344827586206896
sI67
F0.05747126436781609
sI68
F0.05747126436781609
sI69
F0.022988505747126436
sI48
F0.034482758620689655
sI49
F0.13793103448275862
sI90
F0.022988505747126436
sI85
F0.011494252873563218
sI55
F0.034482758620689655
sI57
F0.05747126436781609
sI58
F0.011494252873563218
sI60
F0.12643678160919541
sI61
F0.2413793103448276
ss(I77
I76
tp37
(dp38
I67
F0.5
sI79
F0.5
ss(I38
I40
tp39
(dp40
I36
F1.0
ss(I62
I53
tp41
(dp42
I75
F0.03225806451612903
sI46
F0.03225806451612903
sI53
F0.0967741935483871
sI57
F0.06451612903225806
sI58
F0.16129032258064516
sI60
F0.45161290322580644
sI62
F0.12903225806451613
sI63
F0.03225806451612903
ss(I69
I38
tp43
(dp44
I67
F0.04428044280442804
sI50
F0.01845018450184502
sI38
F0.014760147601476014
sI69
F0.4907749077490775
sI62
F0.4317343173431734
ss(I39
I45
tp45
(dp46
I46
F0.5
sI39
F0.5
ss(I75
I58
tp47
(dp48
I65
F0.2857142857142857
sI58
F0.14285714285714285
sI74
F0.14285714285714285
sI70
F0.14285714285714285
sI62
F0.2857142857142857
ss(I70
I53
tp49
(dp50
I65
F1.0
ss(I50
I39
tp51
(dp52
I50
F0.14285714285714285
sI45
F0.5
sI38
F0.35714285714285715
ss(I89
I64
tp53
(dp54
I91
F0.5
sI69
F0.5
ss(I62
I31
tp55
(dp56
I69
F0.5
sI62
F0.5
ss(I36
I22
tp57
(dp58
I24
F0.5
sI36
F0.5
ss(I69
I64
tp59
(dp60
I64
F0.07692307692307693
sI65
F0.34615384615384615
sI69
F0.07692307692307693
sI61
F0.19230769230769232
sI85
F0.038461538461538464
sI57
F0.15384615384615385
sI58
F0.038461538461538464
sI90
F0.07692307692307693
ss(I66
I66
tp61
(dp62
I65
F0.0625
sI66
F0.125
sI68
F0.0625
sI69
F0.0625
sI70
F0.125
sI80
F0.0625
sI54
F0.125
sI58
F0.3125
sI61
F0.0625
ss(I49
I58
tp63
(dp64
I49
F0.5
sI61
F0.5
ss(I72
I36
tp65
(dp66
I41
F0.5
sI53
F0.5
ss(I45
I61
tp67
(dp68
I64
F1.0
ss(I70
I68
tp69
(dp70
I68
F0.14285714285714285
sI69
F0.2857142857142857
sI71
F0.14285714285714285
sI80
F0.14285714285714285
sI81
F0.14285714285714285
sI60
F0.14285714285714285
ss(I51
I60
tp71
(dp72
I56
F0.3333333333333333
sI51
F0.16666666666666666
sI53
F0.3333333333333333
sI46
F0.08333333333333333
sI63
F0.08333333333333333
ss(I58
I65
tp73
(dp74
I64
F0.010362694300518135
sI65
F0.3005181347150259
sI66
F0.0051813471502590676
sI67
F0.04145077720207254
sI70
F0.025906735751295335
sI74
F0.0051813471502590676
sI34
F0.10362694300518134
sI46
F0.10362694300518134
sI53
F0.010362694300518135
sI54
F0.0051813471502590676
sI55
F0.015544041450777202
sI57
F0.010362694300518135
sI58
F0.2694300518134715
sI60
F0.05699481865284974
sI62
F0.025906735751295335
sI63
F0.010362694300518135
ss(I56
I58
tp75
(dp76
I64
F0.06896551724137931
sI66
F0.034482758620689655
sI42
F0.034482758620689655
sI51
F0.3448275862068966
sI56
F0.1724137931034483
sI58
F0.13793103448275862
sI60
F0.06896551724137931
sI61
F0.034482758620689655
sI63
F0.10344827586206896
ss(I46
I45
tp77
(dp78
I33
F0.03278688524590164
sI36
F0.13114754098360656
sI39
F0.08196721311475409
sI45
F0.03278688524590164
sI46
F0.18032786885245902
sI48
F0.13114754098360656
sI50
F0.01639344262295082
sI53
F0.08196721311475409
sI55
F0.04918032786885246
sI24
F0.13114754098360656
sI60
F0.13114754098360656
ss(I53
I62
tp79
(dp80
I48
F0.08333333333333333
sI58
F0.5833333333333334
sI60
F0.16666666666666666
sI53
F0.08333333333333333
sI55
F0.08333333333333333
ss(I27
I39
tp81
(dp82
I34
F0.028169014084507043
sI36
F0.028169014084507043
sI39
F0.20422535211267606
sI41
F0.23943661971830985
sI46
F0.028169014084507043
sI48
F0.028169014084507043
sI27
F0.20422535211267606
sI29
F0.23943661971830985
ss(I54
I61
tp83
(dp84
I49
F0.5
sI58
F0.5
ss(I58
I48
tp85
(dp86
I48
F0.3888888888888889
sI57
F0.1111111111111111
sI60
F0.3888888888888889
sI45
F0.1111111111111111
ss(I41
I24
tp87
(dp88
I24
F0.5
sI36
F0.5
ss(I29
I37
tp89
(dp90
I53
F0.5
sI29
F0.5
ss(I33
I34
tp91
(dp92
I34
F0.6666666666666666
sI46
F0.3333333333333333
ss(I72
I73
tp93
(dp94
I64
F0.16666666666666666
sI73
F0.16666666666666666
sI68
F0.16666666666666666
sI70
F0.5
ss(I72
I67
tp95
(dp96
I65
F0.10810810810810811
sI66
F0.02702702702702703
sI67
F0.32432432432432434
sI69
F0.02702702702702703
sI70
F0.02702702702702703
sI73
F0.02702702702702703
sI53
F0.21621621621621623
sI41
F0.21621621621621623
sI62
F0.02702702702702703
ss(I39
I29
tp97
(dp98
I27
F0.4791666666666667
sI39
F0.5208333333333334
ss(I36
I41
tp99
(dp100
I26
F0.5
sI38
F0.5
ss(I60
I62
tp101
(dp102
I64
F0.0392156862745098
sI65
F0.05228758169934641
sI66
F0.013071895424836602
sI67
F0.0718954248366013
sI70
F0.013071895424836602
sI46
F0.06535947712418301
sI53
F0.0196078431372549
sI55
F0.27450980392156865
sI58
F0.16339869281045752
sI60
F0.21568627450980393
sI61
F0.006535947712418301
sI62
F0.0392156862745098
sI63
F0.026143790849673203
ss(I34
I41
tp103
(dp104
I49
F0.14285714285714285
sI34
F0.35714285714285715
sI27
F0.07142857142857142
sI37
F0.14285714285714285
sI46
F0.2857142857142857
ss(I41
I34
tp105
(dp106
I33
F0.2222222222222222
sI34
F0.2222222222222222
sI39
F0.1111111111111111
sI43
F0.2222222222222222
sI46
F0.1111111111111111
sI53
F0.1111111111111111
ss(I65
I45
tp107
(dp108
I65
F0.25
sI34
F0.25
sI58
F0.25
sI46
F0.25
ss(I61
I63
tp109
(dp110
I56
F0.3
sI49
F0.1
sI44
F0.1
sI61
F0.2
sI64
F0.3
ss(I77
I69
tp111
(dp112
I60
F0.2
sI74
F0.2
sI68
F0.2
sI62
F0.2
sI63
F0.2
ss(I72
I41
tp113
(dp114
I72
F0.5
sI65
F0.5
ss(I62
I60
tp115
(dp116
I64
F0.039603960396039604
sI65
F0.04950495049504951
sI68
F0.04950495049504951
sI69
F0.09900990099009901
sI74
F0.009900990099009901
sI48
F0.0891089108910891
sI55
F0.039603960396039604
sI58
F0.04950495049504951
sI60
F0.16831683168316833
sI62
F0.10891089108910891
sI63
F0.297029702970297
ss(I43
I52
tp117
(dp118
I43
F0.5
sI36
F0.5
ss(I63
I57
tp119
(dp120
I65
F0.08333333333333333
sI57
F0.6666666666666666
sI70
F0.08333333333333333
sI63
F0.16666666666666666
ss(I48
I50
tp121
(dp122
I41
F0.0625
sI43
F0.125
sI46
F0.28125
sI48
F0.15625
sI53
F0.09375
sI58
F0.28125
ss(I36
I29
tp123
(dp124
I26
F0.5
sI38
F0.5
ss(I69
I73
tp125
(dp126
I72
F0.3333333333333333
sI77
F0.3333333333333333
sI70
F0.3333333333333333
ss(I56
I82
tp127
(dp128
I58
F0.5
sI70
F0.5
ss(I43
I69
tp129
(dp130
I67
F0.3333333333333333
sI69
F0.5
sI62
F0.16666666666666666
ss(I38
I31
tp131
(dp132
I33
F0.03508771929824561
sI36
F0.5350877192982456
sI45
F0.017543859649122806
sI38
F0.34210526315789475
sI31
F0.07017543859649122
ss(I53
I29
tp133
(dp134
I32
F0.5
sI51
F0.5
ss(I58
I72
tp135
(dp136
I56
F0.25
sI60
F0.25
sI68
F0.25
sI44
F0.25
ss(I22
I22
tp137
(dp138
I29
F1.0
ss(I98
I90
tp139
(dp140
I97
F1.0
ss(I86
I60
tp141
(dp142
I65
F1.0
ss(I62
I79
tp143
(dp144
I65
F0.3333333333333333
sI68
F0.3333333333333333
sI60
F0.3333333333333333
ss(I60
I70
tp145
(dp146
I64
F0.17142857142857143
sI65
F0.02857142857142857
sI66
F0.02857142857142857
sI67
F0.2571428571428571
sI70
F0.05714285714285714
sI72
F0.02857142857142857
sI51
F0.02857142857142857
sI58
F0.05714285714285714
sI60
F0.2857142857142857
sI61
F0.02857142857142857
sI63
F0.02857142857142857
ss(I57
I60
tp147
(dp148
I58
F0.2857142857142857
sI62
F0.14285714285714285
sI63
F0.5714285714285714
ss(I88
I62
tp149
(dp150
I64
F0.5
sI67
F0.5
ss(I53
I33
tp151
(dp152
I33
F0.3333333333333333
sI53
F0.6666666666666666
ss(I59
I50
tp153
(dp154
I70
F1.0
ss(I57
I63
tp155
(dp156
I58
F1.0
ss(I57
I38
tp157
(dp158
I64
F0.125
sI57
F0.125
sI45
F0.75
ss(I72
I74
tp159
(dp160
I65
F0.1111111111111111
sI58
F0.1111111111111111
sI82
F0.1111111111111111
sI70
F0.5555555555555556
sI63
F0.1111111111111111
ss(I60
I53
tp161
(dp162
I36
F0.19047619047619047
sI48
F0.19047619047619047
sI58
F0.4523809523809524
sI60
F0.07142857142857142
sI62
F0.047619047619047616
sI63
F0.047619047619047616
ss(I34
I32
tp163
(dp164
I39
F1.0
ss(I41
I43
tp165
(dp166
I48
F0.037037037037037035
sI41
F0.48148148148148145
sI29
F0.4444444444444444
sI38
F0.018518518518518517
sI39
F0.018518518518518517
ss(I61
I56
tp167
(dp168
I64
F0.12903225806451613
sI42
F0.03225806451612903
sI56
F0.2903225806451613
sI58
F0.12903225806451613
sI61
F0.2903225806451613
sI63
F0.12903225806451613
ss(I74
I64
tp169
(dp170
I72
F0.5
sI84
F0.5
ss(I75
I82
tp171
(dp172
I66
F1.0
ss(I40
I48
tp173
(dp174
I40
F0.25
sI48
F0.25
sI46
F0.25
sI39
F0.25
ss(I53
I82
tp175
(dp176
I58
F0.5
sI53
F0.5
ss(I43
I45
tp177
(dp178
I50
F0.5
sI43
F0.5
ss(I67
I56
tp179
(dp180
I62
F1.0
ss(I53
I55
tp181
(dp182
I64
F0.2916666666666667
sI51
F0.16666666666666666
sI52
F0.2916666666666667
sI55
F0.08333333333333333
sI56
F0.08333333333333333
sI62
F0.08333333333333333
ss(I48
I41
tp183
(dp184
I48
F0.08333333333333333
sI41
F0.25
sI50
F0.16666666666666666
sI51
F0.25
sI53
F0.25
ss(I69
I50
tp185
(dp186
I67
F0.04460966542750929
sI50
F0.01486988847583643
sI38
F0.011152416356877323
sI69
F0.4944237918215613
sI62
F0.4349442379182156
ss(I64
I76
tp187
(dp188
I65
F0.5
sI77
F0.5
ss(I80
I54
tp189
(dp190
I82
F0.5
sI70
F0.5
ss(I70
I57
tp191
(dp192
I65
F0.5714285714285714
sI70
F0.42857142857142855
ss(I44
I68
tp193
(dp194
I60
F1.0
ss(I50
I51
tp195
(dp196
I48
F0.6363636363636364
sI58
F0.36363636363636365
ss(I49
I37
tp197
(dp198
I29
F0.5
sI53
F0.5
ss(I68
I66
tp199
(dp200
I66
F0.16666666666666666
sI67
F0.16666666666666666
sI70
F0.16666666666666666
sI78
F0.16666666666666666
sI79
F0.16666666666666666
sI82
F0.16666666666666666
ss(I36
I67
tp201
(dp202
I65
F0.1
sI67
F0.3
sI69
F0.1
sI72
F0.1
sI60
F0.3
sI62
F0.1
ss(I45
I64
tp203
(dp204
I64
F0.35555555555555557
sI65
F0.1111111111111111
sI58
F0.1111111111111111
sI33
F0.06666666666666667
sI57
F0.35555555555555557
ss(I55
I52
tp205
(dp206
I65
F0.02631578947368421
sI50
F0.2819548872180451
sI52
F0.03383458646616541
sI53
F0.02631578947368421
sI55
F0.3157894736842105
sI58
F0.2819548872180451
sI60
F0.03383458646616541
ss(I56
I64
tp207
(dp208
I64
F0.24
sI66
F0.04
sI68
F0.04
sI73
F0.04
sI56
F0.24
sI58
F0.12
sI60
F0.04
sI61
F0.2
sI63
F0.04
ss(I46
I63
tp209
(dp210
I58
F1.0
ss(I70
I72
tp211
(dp212
I65
F0.08333333333333333
sI68
F0.25
sI69
F0.125
sI72
F0.125
sI44
F0.041666666666666664
sI77
F0.08333333333333333
sI84
F0.125
sI56
F0.08333333333333333
sI60
F0.08333333333333333
ss(I61
I65
tp213
(dp214
I64
F0.4166666666666667
sI97
F0.08333333333333333
sI69
F0.4166666666666667
sI86
F0.08333333333333333
ss(I51
I48
tp215
(dp216
I50
F1.0
ss(I57
I69
tp217
(dp218
I64
F0.03225806451612903
sI65
F0.16129032258064516
sI70
F0.06451612903225806
sI45
F0.25806451612903225
sI55
F0.0967741935483871
sI57
F0.22580645161290322
sI62
F0.0967741935483871
sI63
F0.06451612903225806
ss(I81
I64
tp219
(dp220
I65
F1.0
ss(I34
I65
tp221
(dp222
I64
F0.03333333333333333
sI65
F0.3333333333333333
sI67
F0.13333333333333333
sI57
F0.03333333333333333
sI58
F0.3333333333333333
sI60
F0.13333333333333333
ss(I22
I36
tp223
(dp224
I24
F0.5
sI36
F0.5
ss(I46
I33
tp225
(dp226
I24
F0.4
sI33
F0.1
sI36
F0.4
sI45
F0.1
ss(I27
I43
tp227
(dp228
I27
F0.5
sI39
F0.5
ss(I64
I62
tp229
(dp230
I64
F0.014925373134328358
sI65
F0.34328358208955223
sI66
F0.014925373134328358
sI69
F0.1791044776119403
sI97
F0.014925373134328358
sI45
F0.08955223880597014
sI53
F0.208955223880597
sI86
F0.014925373134328358
sI57
F0.014925373134328358
sI62
F0.1044776119402985
ss(I17
I17
tp231
(dp232
I17
F0.38095238095238093
sI27
F0.11904761904761904
sI29
F0.38095238095238093
sI15
F0.11904761904761904
ss(I65
I63
tp233
(dp234
I66
F0.12
sI67
F0.04
sI68
F0.02
sI70
F0.08
sI75
F0.06
sI53
F0.12
sI56
F0.02
sI58
F0.08
sI59
F0.04
sI60
F0.1
sI62
F0.14
sI63
F0.18
ss(I61
I49
tp235
(dp236
I56
F0.5
sI60
F0.5
ss(I64
I88
tp237
(dp238
I89
F1.0
ss(I74
I75
tp239
(dp240
I66
F0.125
sI69
F0.125
sI70
F0.125
sI73
F0.125
sI74
F0.125
sI75
F0.125
sI58
F0.125
sI63
F0.125
ss(I66
I60
tp241
(dp242
I64
F0.1111111111111111
sI65
F0.1111111111111111
sI56
F0.1111111111111111
sI58
F0.3888888888888889
sI61
F0.16666666666666666
sI62
F0.1111111111111111
ss(I40
I55
tp243
(dp244
I40
F0.5
sI48
F0.5
ss(I62
I46
tp245
(dp246
I60
F1.0
ss(I36
I37
tp247
(dp248
I34
F1.0
ss(I43
I34
tp249
(dp250
I41
F0.5
sI29
F0.5
ss(I65
I81
tp251
(dp252
I74
F0.3333333333333333
sI62
F0.6666666666666666
ss(I79
I65
tp253
(dp254
I64
F0.125
sI67
F0.125
sI68
F0.25
sI76
F0.125
sI79
F0.125
sI80
F0.25
ss(I77
I81
tp255
(dp256
I74
F0.5
sI62
F0.5
ss(I48
I32
tp257
(dp258
I48
F0.5
sI36
F0.5
ss(I36
I27
tp259
(dp260
I48
F0.25
sI24
F0.25
sI36
F0.5
ss(I34
I15
tp261
(dp262
I27
F0.5
sI15
F0.5
ss(I49
I45
tp263
(dp264
I64
F0.5
sI52
F0.5
ss(I64
I67
tp265
(dp266
I64
F0.25
sI60
F0.25
sI76
F0.25
sI55
F0.25
ss(I65
I75
tp267
(dp268
I66
F0.25
sI70
F0.16666666666666666
sI75
F0.08333333333333333
sI54
F0.08333333333333333
sI58
F0.25
sI63
F0.16666666666666666
ss(I91
I93
tp269
(dp270
I90
F0.5
sI93
F0.5
ss(I74
I63
tp271
(dp272
I66
F0.14285714285714285
sI69
F0.14285714285714285
sI70
F0.14285714285714285
sI74
F0.14285714285714285
sI75
F0.14285714285714285
sI58
F0.14285714285714285
sI63
F0.14285714285714285
ss(I68
I73
tp273
(dp274
I64
F0.2
sI73
F0.2
sI75
F0.2
sI76
F0.2
sI68
F0.2
ss(I69
I69
tp275
(dp276
I64
F0.005947955390334572
sI65
F0.0052044609665427505
sI67
F0.10706319702602231
sI69
F0.36505576208178436
sI70
F0.0022304832713754648
sI97
F0.0007434944237918215
sI74
F0.001486988847583643
sI43
F0.026765799256505577
sI76
F0.0007434944237918215
sI45
F0.008921933085501859
sI33
F0.008921933085501859
sI50
F0.10706319702602231
sI86
F0.0007434944237918215
sI57
F0.008921933085501859
sI58
F0.002973977695167286
sI38
F0.09962825278810408
sI62
F0.220817843866171
sI31
F0.026765799256505577
ss(I75
I62
tp277
(dp278
I65
F0.25
sI70
F0.125
sI73
F0.125
sI74
F0.125
sI58
F0.125
sI62
F0.25
ss(I56
I70
tp279
(dp280
I42
F0.25
sI58
F0.5
sI70
F0.25
ss(I80
I67
tp281
(dp282
I65
F0.25
sI67
F0.25
sI77
F0.25
sI79
F0.25
ss(I93
I95
tp283
(dp284
I98
F0.3333333333333333
sI91
F0.6666666666666666
ss(I46
I70
tp285
(dp286
I62
F1.0
ss(I70
I67
tp287
(dp288
I65
F0.21212121212121213
sI67
F0.030303030303030304
sI68
F0.18181818181818182
sI69
F0.06060606060606061
sI70
F0.030303030303030304
sI46
F0.06060606060606061
sI80
F0.030303030303030304
sI53
F0.06060606060606061
sI55
F0.030303030303030304
sI58
F0.030303030303030304
sI60
F0.18181818181818182
sI62
F0.09090909090909091
ss(I58
I68
tp289
(dp290
I65
F0.2
sI49
F0.1
sI58
F0.3
sI59
F0.1
sI60
F0.1
sI62
F0.2
ss(I84
I82
tp291
(dp292
I82
F0.25
sI84
F0.25
sI86
F0.25
sI70
F0.25
ss(I90
I62
tp293
(dp294
I98
F1.0
ss(I56
I53
tp295
(dp296
I56
F0.38095238095238093
sI53
F0.5714285714285714
sI63
F0.047619047619047616
ss(I46
I40
tp297
(dp298
I46
F0.5
sI39
F0.5
ss(I62
I70
tp299
(dp300
I65
F0.21052631578947367
sI66
F0.10526315789473684
sI67
F0.10526315789473684
sI70
F0.10526315789473684
sI75
F0.05263157894736842
sI57
F0.05263157894736842
sI58
F0.10526315789473684
sI60
F0.10526315789473684
sI62
F0.05263157894736842
sI63
F0.10526315789473684
ss(I33
I53
tp301
(dp302
I53
F0.6666666666666666
sI45
F0.3333333333333333
ss(I57
I48
tp303
(dp304
I68
F1.0
ss(I84
I84
tp305
(dp306
I88
F1.0
ss(I73
I78
tp307
(dp308
I70
F1.0
ss(I54
I56
tp309
(dp310
I58
F1.0
ss(I58
I55
tp311
(dp312
I50
F0.0744466800804829
sI52
F0.0925553319919517
sI55
F0.3299798792756539
sI58
F0.24748490945674045
sI60
F0.0925553319919517
sI62
F0.16297786720321933
ss(I31
I46
tp313
(dp314
I41
F0.5
sI29
F0.5
ss(I75
I64
tp315
(dp316
I73
F0.3333333333333333
sI66
F0.3333333333333333
sI70
F0.3333333333333333
ss(I67
I80
tp317
(dp318
I65
F0.25
sI70
F0.125
sI75
F0.125
sI77
F0.25
sI82
F0.125
sI63
F0.125
ss(I67
I38
tp319
(dp320
I67
F0.5
sI69
F0.5
ss(I90
I91
tp321
(dp322
I88
F1.0
ss(I48
I39
tp323
(dp324
I48
F0.5
sI36
F0.5
ss(I37
I37
tp325
(dp326
I29
F0.5
sI53
F0.5
ss(I45
I33
tp327
(dp328
I33
F0.4
sI34
F0.1
sI53
F0.4
sI46
F0.1
ss(I69
I36
tp329
(dp330
I69
F0.5
sI62
F0.5
ss(I15
I24
tp331
(dp332
I27
F0.5
sI15
F0.5
ss(I64
I68
tp333
(dp334
I65
F0.2777777777777778
sI68
F0.05555555555555555
sI70
F0.2777777777777778
sI72
F0.05555555555555555
sI75
F0.05555555555555555
sI62
F0.2777777777777778
ss(I65
I76
tp335
(dp336
I67
F0.5
sI79
F0.5
ss(I96
I70
tp337
(dp338
I64
F0.3333333333333333
sI67
F0.3333333333333333
sI91
F0.3333333333333333
ss(I44
I58
tp339
(dp340
I51
F0.6666666666666666
sI61
F0.3333333333333333
ss(I41
I72
tp341
(dp342
I72
F0.3333333333333333
sI65
F0.3333333333333333
sI67
F0.16666666666666666
sI60
F0.16666666666666666
ss(I69
I93
tp343
(dp344
I65
F1.0
ss(I66
I64
tp345
(dp346
I74
F0.375
sI67
F0.5
sI61
F0.125
ss(I80
I58
tp347
(dp348
I82
F0.5
sI70
F0.5
ss(I98
I93
tp349
(dp350
I91
F1.0
ss(I71
I72
tp351
(dp352
I72
F0.25
sI74
F0.25
sI70
F0.25
sI79
F0.25
ss(I77
I53
tp353
(dp354
I68
F0.09090909090909091
sI72
F0.09090909090909091
sI75
F0.18181818181818182
sI80
F0.09090909090909091
sI53
F0.2727272727272727
sI58
F0.2727272727272727
ss(I27
I26
tp355
(dp356
I27
F0.5
sI39
F0.5
ss(I64
I63
tp357
(dp358
I64
F0.16666666666666666
sI66
F0.16666666666666666
sI68
F0.16666666666666666
sI72
F0.16666666666666666
sI61
F0.16666666666666666
sI63
F0.16666666666666666
ss(I56
I60
tp359
(dp360
I64
F0.034482758620689655
sI66
F0.034482758620689655
sI67
F0.034482758620689655
sI68
F0.034482758620689655
sI51
F0.13793103448275862
sI54
F0.034482758620689655
sI56
F0.20689655172413793
sI60
F0.1724137931034483
sI61
F0.034482758620689655
sI63
F0.27586206896551724
ss(I46
I51
tp361
(dp362
I66
F0.14285714285714285
sI46
F0.42857142857142855
sI39
F0.42857142857142855
ss(I53
I66
tp363
(dp364
I65
F0.5
sI58
F0.5
ss(I53
I60
tp365
(dp366
I77
F0.125
sI53
F0.125
sI57
F0.125
sI58
F0.125
sI60
F0.125
sI62
F0.375
ss(I53
I67
tp367
(dp368
I64
F0.5
sI52
F0.5
ss(I57
I57
tp369
(dp370
I64
F0.18181818181818182
sI65
F0.09090909090909091
sI70
F0.012987012987012988
sI33
F0.15151515151515152
sI45
F0.1645021645021645
sI46
F0.025974025974025976
sI49
F0.021645021645021644
sI55
F0.012987012987012988
sI57
F0.21645021645021645
sI58
F0.07792207792207792
sI61
F0.021645021645021644
sI62
F0.012987012987012988
sI63
F0.008658008658008658
ss(I58
I62
tp371
(dp372
I65
F0.053691275167785234
sI66
F0.003355704697986577
sI70
F0.016778523489932886
sI74
F0.003355704697986577
sI53
F0.016778523489932886
sI55
F0.2684563758389262
sI58
F0.3087248322147651
sI60
F0.016778523489932886
sI62
F0.3087248322147651
sI63
F0.003355704697986577
ss(I55
I58
tp373
(dp374
I48
F0.007905138339920948
sI50
F0.015810276679841896
sI52
F0.1482213438735178
sI53
F0.005928853754940711
sI55
F0.3201581027667984
sI57
F0.003952569169960474
sI58
F0.1857707509881423
sI60
F0.15217391304347827
sI62
F0.1600790513833992
ss(I72
I69
tp375
(dp376
I60
F0.3333333333333333
sI68
F0.3333333333333333
sI63
F0.3333333333333333
ss(I64
I34
tp377
(dp378
I64
F0.5
sI57
F0.5
ss(I36
I43
tp379
(dp380
I48
F0.17647058823529413
sI34
F0.23529411764705882
sI43
F0.17647058823529413
sI36
F0.17647058823529413
sI22
F0.23529411764705882
ss(I60
I56
tp381
(dp382
I64
F0.058823529411764705
sI66
F0.11764705882352941
sI68
F0.058823529411764705
sI73
F0.058823529411764705
sI56
F0.058823529411764705
sI58
F0.4117647058823529
sI60
F0.11764705882352941
sI61
F0.058823529411764705
sI63
F0.058823529411764705
ss(I34
I39
tp383
(dp384
I41
F0.11764705882352941
sI27
F0.23529411764705882
sI29
F0.23529411764705882
sI39
F0.4117647058823529
ss(I49
I34
tp385
(dp386
I49
F0.5
sI37
F0.5
ss(I61
I61
tp387
(dp388
I64
F0.2222222222222222
sI66
F0.05555555555555555
sI56
F0.3333333333333333
sI58
F0.05555555555555555
sI60
F0.1111111111111111
sI61
F0.1111111111111111
sI63
F0.1111111111111111
ss(I77
I67
tp389
(dp390
I64
F0.16666666666666666
sI67
F0.3333333333333333
sI76
F0.16666666666666666
sI79
F0.3333333333333333
ss(I74
I71
tp391
(dp392
I65
F0.3333333333333333
sI62
F0.3333333333333333
sI70
F0.3333333333333333
ss(I63
I64
tp393
(dp394
I64
F0.15384615384615385
sI66
F0.07692307692307693
sI68
F0.15384615384615385
sI73
F0.15384615384615385
sI56
F0.07692307692307693
sI58
F0.07692307692307693
sI60
F0.07692307692307693
sI61
F0.15384615384615385
sI63
F0.07692307692307693
ss(I31
I67
tp395
(dp396
I67
F0.3333333333333333
sI69
F0.5
sI62
F0.16666666666666666
ss(I45
I26
tp397
(dp398
I33
F0.08333333333333333
sI34
F0.4166666666666667
sI45
F0.08333333333333333
sI46
F0.4166666666666667
ss(I63
I54
tp399
(dp400
I58
F1.0
ss(I67
I53
tp401
(dp402
I48
F0.26666666666666666
sI57
F0.23333333333333334
sI36
F0.26666666666666666
sI69
F0.23333333333333334
ss(I39
I36
tp403
(dp404
I34
F0.10344827586206896
sI27
F0.27586206896551724
sI26
F0.13793103448275862
sI38
F0.20689655172413793
sI39
F0.27586206896551724
ss(I65
I69
tp405
(dp406
I64
F0.21739130434782608
sI65
F0.043478260869565216
sI67
F0.21739130434782608
sI70
F0.06521739130434782
sI74
F0.021739130434782608
sI84
F0.021739130434782608
sI55
F0.06521739130434782
sI91
F0.043478260869565216
sI60
F0.13043478260869565
sI61
F0.043478260869565216
sI62
F0.08695652173913043
sI63
F0.043478260869565216
ss(I68
I54
tp407
(dp408
I82
F0.5
sI70
F0.5
ss(I55
I65
tp409
(dp410
I57
F0.3333333333333333
sI69
F0.2777777777777778
sI62
F0.2222222222222222
sI55
F0.16666666666666666
ss(I15
I15
tp411
(dp412
I34
F0.046511627906976744
sI36
F0.046511627906976744
sI15
F0.22093023255813954
sI17
F0.18604651162790697
sI22
F0.046511627906976744
sI24
F0.046511627906976744
sI27
F0.22093023255813954
sI29
F0.18604651162790697
ss(I36
I31
tp413
(dp414
I34
F0.125
sI22
F0.125
sI38
F0.75
ss(I69
I55
tp415
(dp416
I64
F0.06666666666666667
sI48
F0.4666666666666667
sI60
F0.4666666666666667
ss(I49
I49
tp417
(dp418
I60
F0.2
sI29
F0.4
sI53
F0.4
ss(I91
I65
tp419
(dp420
I64
F0.3333333333333333
sI67
F0.3333333333333333
sI60
F0.3333333333333333
ss(I81
I60
tp421
(dp422
I65
F1.0
ss(I27
I24
tp423
(dp424
I26
F0.25
sI27
F0.25
sI38
F0.25
sI15
F0.25
ss(I39
I24
tp425
(dp426
I26
F0.5
sI38
F0.5
ss(I66
I61
tp427
(dp428
I66
F1.0
ss(I46
I58
tp429
(dp430
I64
F0.03333333333333333
sI65
F0.3333333333333333
sI67
F0.13333333333333333
sI57
F0.03333333333333333
sI58
F0.3333333333333333
sI60
F0.13333333333333333
ss(I60
I64
tp431
(dp432
I64
F0.03225806451612903
sI65
F0.0967741935483871
sI66
F0.03225806451612903
sI67
F0.1935483870967742
sI68
F0.03225806451612903
sI73
F0.03225806451612903
sI55
F0.3225806451612903
sI58
F0.03225806451612903
sI60
F0.1935483870967742
sI61
F0.03225806451612903
ss(I57
I66
tp433
(dp434
I57
F0.3333333333333333
sI45
F0.6666666666666666
ss(I58
I57
tp435
(dp436
I65
F0.1686746987951807
sI34
F0.12048192771084337
sI46
F0.12048192771084337
sI48
F0.07228915662650602
sI51
F0.012048192771084338
sI53
F0.012048192771084338
sI57
F0.21686746987951808
sI58
F0.1566265060240964
sI60
F0.0963855421686747
sI62
F0.024096385542168676
ss(I97
I98
tp437
(dp438
I95
F1.0
ss(I62
I75
tp439
(dp440
I66
F0.25
sI75
F0.125
sI58
F0.25
sI70
F0.125
sI63
F0.25
ss(I33
I57
tp441
(dp442
I64
F0.3611111111111111
sI65
F0.1388888888888889
sI58
F0.1388888888888889
sI57
F0.3611111111111111
ss(I72
I76
tp443
(dp444
I80
F0.5
sI75
F0.5
ss(I64
I57
tp445
(dp446
I64
F0.2413793103448276
sI65
F0.05747126436781609
sI33
F0.20114942528735633
sI45
F0.20114942528735633
sI57
F0.2413793103448276
sI58
F0.05747126436781609
ss(I86
I76
tp447
(dp448
I72
F0.5
sI84
F0.5
ss(I60
I55
tp449
(dp450
I65
F0.012987012987012988
sI70
F0.003246753246753247
sI74
F0.003246753246753247
sI50
F0.14935064935064934
sI52
F0.12337662337662338
sI55
F0.32142857142857145
sI58
F0.14935064935064934
sI60
F0.17207792207792208
sI62
F0.06493506493506493
ss(I41
I41
tp451
(dp452
I34
F0.017241379310344827
sI39
F0.06609195402298851
sI41
F0.32471264367816094
sI43
F0.08045977011494253
sI46
F0.017241379310344827
sI48
F0.0028735632183908046
sI50
F0.017241379310344827
sI51
F0.008620689655172414
sI53
F0.008620689655172414
sI55
F0.005747126436781609
sI27
F0.06609195402298851
sI29
F0.3045977011494253
sI31
F0.08045977011494253
ss(I65
I36
tp453
(dp454
I41
F0.5
sI53
F0.5
ss(I55
I41
tp455
(dp456
I48
F0.5
sI40
F0.5
ss(I33
I26
tp457
(dp458
I33
F0.07142857142857142
sI34
F0.35714285714285715
sI38
F0.14285714285714285
sI45
F0.07142857142857142
sI46
F0.35714285714285715
ss(I59
I42
tp459
(dp460
I49
F0.5
sI61
F0.5
ss(I42
I46
tp461
(dp462
I38
F1.0
ss(I72
I82
tp463
(dp464
I66
F0.1111111111111111
sI82
F0.4444444444444444
sI70
F0.4444444444444444
ss(I54
I70
tp465
(dp466
I66
F0.2
sI68
F0.1
sI70
F0.2
sI80
F0.1
sI54
F0.2
sI58
F0.2
ss(I51
I64
tp467
(dp468
I56
F0.5
sI63
F0.5
ss(I34
I24
tp469
(dp470
I24
F0.4
sI41
F0.2
sI36
F0.4
ss(I67
I58
tp471
(dp472
I64
F0.047619047619047616
sI65
F0.047619047619047616
sI36
F0.38095238095238093
sI69
F0.09523809523809523
sI72
F0.047619047619047616
sI48
F0.38095238095238093
ss(I63
I46
tp473
(dp474
I60
F0.5
sI44
F0.5
ss(I48
I43
tp475
(dp476
I48
F0.16666666666666666
sI41
F0.16666666666666666
sI50
F0.25
sI36
F0.3333333333333333
sI46
F0.08333333333333333
ss(I38
I50
tp477
(dp478
I50
F0.13157894736842105
sI62
F0.2894736842105263
sI45
F0.21052631578947367
sI38
F0.07894736842105263
sI69
F0.2894736842105263
ss(I45
I45
tp479
(dp480
I34
F0.013157894736842105
sI38
F0.039473684210526314
sI39
F0.06578947368421052
sI43
F0.039473684210526314
sI45
F0.17105263157894737
sI46
F0.2236842105263158
sI49
F0.06578947368421052
sI50
F0.13157894736842105
sI53
F0.10526315789473684
sI58
F0.07894736842105263
sI61
F0.06578947368421052
ss(I69
I48
tp481
(dp482
I69
F0.5
sI62
F0.5
ss(I49
I42
tp483
(dp484
I49
F0.5
sI61
F0.5
ss(I70
I63
tp485
(dp486
I65
F0.07692307692307693
sI66
F0.038461538461538464
sI70
F0.2692307692307692
sI75
F0.07692307692307693
sI58
F0.038461538461538464
sI62
F0.07692307692307693
sI63
F0.4230769230769231
ss(I44
I70
tp487
(dp488
I51
F0.5
sI61
F0.5
ss(I50
I49
tp489
(dp490
I64
F0.46153846153846156
sI52
F0.46153846153846156
sI62
F0.07692307692307693
ss(I69
I45
tp491
(dp492
I69
F0.75
sI62
F0.25
ss(I31
I34
tp493
(dp494
I41
F0.015503875968992248
sI36
F0.18604651162790697
sI29
F0.023255813953488372
sI38
F0.17054263565891473
sI31
F0.6046511627906976
ss(I60
I41
tp495
(dp496
I48
F0.5
sI36
F0.5
ss(I27
I17
tp497
(dp498
I27
F0.5
sI15
F0.5
ss(I60
I50
tp499
(dp500
I46
F0.057692307692307696
sI50
F0.05128205128205128
sI52
F0.24358974358974358
sI55
F0.2948717948717949
sI58
F0.10897435897435898
sI60
F0.24358974358974358
ss(I24
I46
tp501
(dp502
I41
F0.5
sI29
F0.5
ss(I56
I65
tp503
(dp504
I58
F0.3333333333333333
sI66
F0.3333333333333333
sI61
F0.3333333333333333
ss(I80
I78
tp505
(dp506
I66
F0.25
sI67
F0.25
sI78
F0.25
sI79
F0.25
ss(I29
I27
tp507
(dp508
I41
F0.34
sI29
F0.5
sI17
F0.16
ss(I64
I81
tp509
(dp510
I65
F0.3333333333333333
sI69
F0.3333333333333333
sI62
F0.3333333333333333
ss(I51
I50
tp511
(dp512
I46
F0.5
sI39
F0.5
ss(I81
I70
tp513
(dp514
I65
F0.5
sI77
F0.5
ss(I52
I53
tp515
(dp516
I65
F0.3888888888888889
sI43
F0.16666666666666666
sI36
F0.16666666666666666
sI53
F0.2777777777777778
ss(I85
I65
tp517
(dp518
I86
F1.0
ss(I32
I51
tp519
(dp520
I48
F0.25
sI36
F0.25
sI29
F0.25
sI53
F0.25
ss(I46
I39
tp521
(dp522
I39
F0.3125
sI42
F0.020833333333333332
sI43
F0.0625
sI45
F0.041666666666666664
sI46
F0.2708333333333333
sI50
F0.20833333333333334
sI27
F0.08333333333333333
ss(I29
I53
tp523
(dp524
I32
F0.3333333333333333
sI41
F0.3333333333333333
sI51
F0.3333333333333333
ss(I61
I69
tp525
(dp526
I64
F0.3
sI97
F0.1
sI45
F0.2
sI86
F0.1
sI69
F0.3
ss(I67
I91
tp527
(dp528
I81
F0.5
sI86
F0.5
ss(I57
I45
tp529
(dp530
I64
F0.3595505617977528
sI45
F0.033707865168539325
sI46
F0.06741573033707865
sI49
F0.056179775280898875
sI57
F0.3595505617977528
sI58
F0.06741573033707865
sI61
F0.056179775280898875
ss(I73
I75
tp531
(dp532
I72
F0.75
sI69
F0.25
ss(I58
I42
tp533
(dp534
I56
F1.0
ss(I63
I67
tp535
(dp536
I67
F0.16
sI72
F0.04
sI44
F0.04
sI56
F0.04
sI60
F0.08
sI62
F0.48
sI63
F0.16
ss(I75
I77
tp537
(dp538
I73
F0.6666666666666666
sI66
F0.3333333333333333
ss(I36
I39
tp539
(dp540
I48
F0.4
sI34
F0.2
sI36
F0.4
ss(I60
I36
tp541
(dp542
I67
F0.5
sI60
F0.5
ss(I43
I36
tp543
(dp544
I48
F0.23076923076923078
sI43
F0.23076923076923078
sI36
F0.23076923076923078
sI46
F0.3076923076923077
ss(I79
I67
tp545
(dp546
I65
F0.5
sI77
F0.5
ss(I77
I79
tp547
(dp548
I64
F0.16666666666666666
sI67
F0.3333333333333333
sI76
F0.16666666666666666
sI79
F0.3333333333333333
ss(I48
I34
tp549
(dp550
I48
F0.5
sI36
F0.5
ss(I72
I63
tp551
(dp552
I58
F0.09090909090909091
sI67
F0.36363636363636365
sI68
F0.09090909090909091
sI70
F0.09090909090909091
sI63
F0.36363636363636365
ss(I62
I54
tp553
(dp554
I58
F1.0
ss(I45
I38
tp555
(dp556
I33
F0.02631578947368421
sI34
F0.18421052631578946
sI38
F0.07894736842105263
sI39
F0.07894736842105263
sI45
F0.23684210526315788
sI46
F0.2631578947368421
sI50
F0.13157894736842105
ss(I69
I57
tp557
(dp558
I65
F0.5
sI57
F0.5
ss(I15
I29
tp559
(dp560
I27
F0.5
sI15
F0.5
ss(I64
I69
tp561
(dp562
I64
F0.07692307692307693
sI97
F0.07692307692307693
sI69
F0.07692307692307693
sI45
F0.46153846153846156
sI86
F0.07692307692307693
sI57
F0.07692307692307693
sI62
F0.15384615384615385
ss(I70
I54
tp563
(dp564
I66
F0.2
sI68
F0.1
sI70
F0.2
sI80
F0.1
sI54
F0.2
sI58
F0.2
ss(I44
I61
tp565
(dp566
I56
F1.0
ss(I89
I67
tp567
(dp568
I91
F0.5
sI69
F0.5
ss(I64
I49
tp569
(dp570
I50
F0.5
sI62
F0.5
ss(I27
I22
tp571
(dp572
I27
F0.5
sI15
F0.5
ss(I69
I67
tp573
(dp574
I64
F0.006993006993006993
sI65
F0.011655011655011656
sI67
F0.28438228438228436
sI69
F0.36596736596736595
sI71
F0.02097902097902098
sI74
F0.004662004662004662
sI43
F0.08391608391608392
sI45
F0.002331002331002331
sI48
F0.016317016317016316
sI85
F0.002331002331002331
sI57
F0.004662004662004662
sI90
F0.004662004662004662
sI60
F0.016317016317016316
sI61
F0.016317016317016316
sI62
F0.07459207459207459
sI31
F0.08391608391608392
ss(I52
I61
tp575
(dp576
I50
F0.5
sI62
F0.5
ss(I70
I65
tp577
(dp578
I65
F0.2545454545454545
sI66
F0.01818181818181818
sI69
F0.03636363636363636
sI70
F0.34545454545454546
sI74
F0.05454545454545454
sI54
F0.01818181818181818
sI58
F0.07272727272727272
sI60
F0.01818181818181818
sI62
F0.07272727272727272
sI63
F0.10909090909090909
ss(I64
I70
tp579
(dp580
I69
F1.0
ss(I77
I58
tp581
(dp582
I68
F0.1
sI72
F0.1
sI75
F0.1
sI80
F0.1
sI53
F0.3
sI58
F0.3
ss(I58
I66
tp583
(dp584
I65
F0.02040816326530612
sI66
F0.20408163265306123
sI68
F0.04081632653061224
sI70
F0.08163265306122448
sI75
F0.04081632653061224
sI80
F0.02040816326530612
sI54
F0.04081632653061224
sI56
F0.04081632653061224
sI58
F0.22448979591836735
sI60
F0.08163265306122448
sI62
F0.02040816326530612
sI63
F0.1836734693877551
ss(I75
I72
tp585
(dp586
I82
F0.5
sI70
F0.5
ss(I52
I60
tp587
(dp588
I58
F0.2676056338028169
sI67
F0.04929577464788732
sI50
F0.31690140845070425
sI62
F0.04929577464788732
sI55
F0.31690140845070425
ss(I56
I55
tp589
(dp590
I53
F1.0
ss(I46
I46
tp591
(dp592
I36
F0.028985507246376812
sI39
F0.14492753623188406
sI41
F0.028985507246376812
sI43
F0.07246376811594203
sI45
F0.028985507246376812
sI46
F0.2898550724637681
sI48
F0.057971014492753624
sI50
F0.14492753623188406
sI53
F0.14492753623188406
sI29
F0.028985507246376812
sI31
F0.028985507246376812
ss(I53
I49
tp593
(dp594
I53
F0.5
sI29
F0.5
ss(I27
I34
tp595
(dp596
I15
F0.23529411764705882
sI26
F0.058823529411764705
sI27
F0.47058823529411764
sI39
F0.23529411764705882
ss(I81
I81
tp597
(dp598
I81
F0.5833333333333334
sI82
F0.08333333333333333
sI85
F0.3333333333333333
ss(I73
I76
tp599
(dp600
I68
F1.0
ss(I95
I97
tp601
(dp602
I93
F1.0
ss(I58
I53
tp603
(dp604
I68
F0.02702702702702703
sI77
F0.10810810810810811
sI48
F0.02702702702702703
sI82
F0.10810810810810811
sI53
F0.21621621621621623
sI55
F0.10810810810810811
sI57
F0.05405405405405406
sI58
F0.21621621621621623
sI60
F0.05405405405405406
sI62
F0.05405405405405406
sI63
F0.02702702702702703
ss(I32
I32
tp605
(dp606
I48
F0.2222222222222222
sI36
F0.2222222222222222
sI29
F0.2222222222222222
sI30
F0.1111111111111111
sI53
F0.2222222222222222
ss(I63
I72
tp607
(dp608
I72
F0.08333333333333333
sI58
F0.08333333333333333
sI66
F0.08333333333333333
sI62
F0.6666666666666666
sI63
F0.08333333333333333
ss(I53
I48
tp609
(dp610
I34
F0.13793103448275862
sI41
F0.10344827586206896
sI46
F0.1724137931034483
sI48
F0.1724137931034483
sI51
F0.06896551724137931
sI52
F0.10344827586206896
sI53
F0.2413793103448276
ss(I61
I72
tp611
(dp612
I73
F1.0
ss(I33
I45
tp613
(dp614
I64
F0.3333333333333333
sI57
F0.3333333333333333
sI34
F0.05555555555555555
sI53
F0.2222222222222222
sI46
F0.05555555555555555
ss(I72
I64
tp615
(dp616
I64
F0.16666666666666666
sI73
F0.3333333333333333
sI66
F0.16666666666666666
sI68
F0.16666666666666666
sI70
F0.16666666666666666
ss(I64
I45
tp617
(dp618
I64
F0.47058823529411764
sI57
F0.47058823529411764
sI66
F0.058823529411764705
ss(I36
I46
tp619
(dp620
I48
F0.1
sI41
F0.4
sI36
F0.1
sI29
F0.4
ss(I43
I29
tp621
(dp622
I36
F0.07142857142857142
sI39
F0.03571428571428571
sI41
F0.39285714285714285
sI24
F0.07142857142857142
sI27
F0.03571428571428571
sI29
F0.39285714285714285
ss(I49
I66
tp623
(dp624
I58
F1.0
ss(I51
I32
tp625
(dp626
I48
F0.25
sI36
F0.25
sI29
F0.25
sI53
F0.25
ss(I62
I57
tp627
(dp628
I65
F0.30434782608695654
sI53
F0.043478260869565216
sI55
F0.13043478260869565
sI57
F0.21739130434782608
sI58
F0.043478260869565216
sI60
F0.08695652173913043
sI62
F0.13043478260869565
sI63
F0.043478260869565216
ss(I36
I52
tp629
(dp630
I43
F0.5
sI36
F0.5
ss(I39
I41
tp631
(dp632
I34
F0.038461538461538464
sI27
F0.4423076923076923
sI39
F0.5192307692307693
ss(I63
I60
tp633
(dp634
I65
F0.07142857142857142
sI66
F0.07142857142857142
sI58
F0.39285714285714285
sI60
F0.17857142857142858
sI62
F0.21428571428571427
sI63
F0.07142857142857142
ss(I91
I84
tp635
(dp636
I96
F1.0
ss(I42
I68
tp637
(dp638
I49
F0.5
sI59
F0.5
ss(I45
I57
tp639
(dp640
I64
F0.26666666666666666
sI65
F0.08333333333333333
sI33
F0.05
sI46
F0.06666666666666667
sI49
F0.058333333333333334
sI57
F0.26666666666666666
sI58
F0.15
sI61
F0.058333333333333334
ss(I49
I62
tp641
(dp642
I50
F0.5454545454545454
sI62
F0.45454545454545453
ss(I50
I61
tp643
(dp644
I64
F0.45454545454545453
sI52
F0.45454545454545453
sI62
F0.09090909090909091
ss(I27
I15
tp645
(dp646
I34
F0.046511627906976744
sI36
F0.046511627906976744
sI15
F0.22093023255813954
sI17
F0.18604651162790697
sI22
F0.046511627906976744
sI24
F0.046511627906976744
sI27
F0.22093023255813954
sI29
F0.18604651162790697
ss(I38
I24
tp647
(dp648
I26
F0.5
sI38
F0.5
ss(I68
I57
tp649
(dp650
I51
F0.3333333333333333
sI44
F0.3333333333333333
sI63
F0.3333333333333333
ss(I58
I77
tp651
(dp652
I58
F0.45454545454545453
sI54
F0.09090909090909091
sI66
F0.09090909090909091
sI53
F0.2727272727272727
sI70
F0.09090909090909091
ss(I58
I50
tp653
(dp654
I60
F0.3217391304347826
sI52
F0.3217391304347826
sI55
F0.3565217391304348
ss(I80
I82
tp655
(dp656
I66
F0.2
sI67
F0.2
sI82
F0.2
sI70
F0.2
sI79
F0.2
ss(I91
I96
tp657
(dp658
I88
F1.0
ss(I56
I62
tp659
(dp660
I58
F0.3333333333333333
sI66
F0.3333333333333333
sI61
F0.3333333333333333
ss(I53
I58
tp661
(dp662
I70
F0.022222222222222223
sI77
F0.08888888888888889
sI82
F0.08888888888888889
sI53
F0.044444444444444446
sI55
F0.1111111111111111
sI58
F0.2
sI60
F0.1111111111111111
sI62
F0.26666666666666666
sI63
F0.06666666666666667
ss(I60
I75
tp663
(dp664
I58
F0.5
sI70
F0.5
ss(I31
I41
tp665
(dp666
I36
F0.07142857142857142
sI39
F0.03571428571428571
sI41
F0.39285714285714285
sI24
F0.07142857142857142
sI27
F0.03571428571428571
sI29
F0.39285714285714285
ss(I84
I65
tp667
(dp668
I91
F1.0
ss(I58
I60
tp669
(dp670
I64
F0.007874015748031496
sI65
F0.04330708661417323
sI66
F0.007874015748031496
sI67
F0.011811023622047244
sI68
F0.003937007874015748
sI70
F0.015748031496062992
sI44
F0.007874015748031496
sI45
F0.007874015748031496
sI48
F0.027559055118110236
sI50
F0.14566929133858267
sI51
F0.011811023622047244
sI52
F0.03543307086614173
sI53
F0.03543307086614173
sI55
F0.18110236220472442
sI56
F0.01968503937007874
sI57
F0.07480314960629922
sI58
F0.17716535433070865
sI60
F0.13385826771653545
sI61
F0.015748031496062992
sI62
F0.015748031496062992
sI63
F0.01968503937007874
ss(I45
I69
tp671
(dp672
I57
F0.05555555555555555
sI45
F0.05555555555555555
sI62
F0.2222222222222222
sI69
F0.6666666666666666
ss(I48
I65
tp673
(dp674
I60
F1.0
ss(I53
I70
tp675
(dp676
I62
F1.0
ss(I33
I38
tp677
(dp678
I33
F0.047619047619047616
sI34
F0.3333333333333333
sI38
F0.19047619047619047
sI45
F0.047619047619047616
sI46
F0.3333333333333333
sI30
F0.047619047619047616
ss(I57
I33
tp679
(dp680
I64
F0.5
sI57
F0.5
ss(I72
I71
tp681
(dp682
I65
F0.25
sI74
F0.25
sI62
F0.25
sI70
F0.25
ss(I60
I58
tp683
(dp684
I65
F0.025
sI66
F0.016666666666666666
sI36
F0.03333333333333333
sI72
F0.004166666666666667
sI48
F0.0625
sI50
F0.07083333333333333
sI51
F0.0125
sI52
F0.15833333333333333
sI55
F0.19166666666666668
sI56
F0.025
sI57
F0.0125
sI58
F0.0625
sI60
F0.20833333333333334
sI61
F0.020833333333333332
sI62
F0.08333333333333333
sI63
F0.0125
ss(I17
I27
tp685
(dp686
I17
F0.5
sI29
F0.5
ss(I41
I38
tp687
(dp688
I40
F1.0
ss(I65
I33
tp689
(dp690
I65
F0.25
sI34
F0.25
sI58
F0.25
sI46
F0.25
ss(I61
I59
tp691
(dp692
I60
F1.0
ss(I77
I65
tp693
(dp694
I63
F1.0
ss(I74
I69
tp695
(dp696
I65
F0.15384615384615385
sI69
F0.3076923076923077
sI70
F0.15384615384615385
sI74
F0.15384615384615385
sI58
F0.07692307692307693
sI62
F0.15384615384615385
ss(I38
I39
tp697
(dp698
I33
F0.07692307692307693
sI27
F0.3076923076923077
sI36
F0.15384615384615385
sI39
F0.46153846153846156
ss(I58
I33
tp699
(dp700
I65
F0.25
sI34
F0.25
sI58
F0.25
sI46
F0.25
ss(I54
I77
tp701
(dp702
I58
F0.25
sI54
F0.25
sI66
F0.25
sI70
F0.25
ss(I69
I43
tp703
(dp704
I67
F0.3333333333333333
sI69
F0.5
sI62
F0.16666666666666666
ss(I67
I55
tp705
(dp706
I55
F1.0
ss(I39
I38
tp707
(dp708
I27
F0.25
sI46
F0.3125
sI39
F0.4375
ss(I31
I69
tp709
(dp710
I67
F0.3333333333333333
sI69
F0.5
sI62
F0.16666666666666666
ss(I68
I48
tp711
(dp712
I63
F1.0
ss(I65
I58
tp713
(dp714
I64
F0.009302325581395349
sI65
F0.24651162790697675
sI66
F0.027906976744186046
sI67
F0.037209302325581395
sI68
F0.009302325581395349
sI70
F0.046511627906976744
sI73
F0.004651162790697674
sI75
F0.009302325581395349
sI34
F0.09302325581395349
sI46
F0.09302325581395349
sI53
F0.004651162790697674
sI57
F0.009302325581395349
sI58
F0.22790697674418606
sI60
F0.07906976744186046
sI62
F0.046511627906976744
sI63
F0.05581395348837209
ss(I90
I69
tp715
(dp716
I98
F1.0
ss(I45
I50
tp717
(dp718
I38
F0.07142857142857142
sI39
F0.047619047619047616
sI43
F0.07142857142857142
sI45
F0.3333333333333333
sI46
F0.09523809523809523
sI50
F0.23809523809523808
sI53
F0.11904761904761904
sI57
F0.023809523809523808
ss(I96
I65
tp719
(dp720
I64
F0.3333333333333333
sI67
F0.3333333333333333
sI91
F0.3333333333333333
ss(I70
I58
tp721
(dp722
I65
F0.06976744186046512
sI66
F0.06976744186046512
sI68
F0.046511627906976744
sI70
F0.3023255813953488
sI74
F0.023255813953488372
sI75
F0.023255813953488372
sI80
F0.023255813953488372
sI54
F0.046511627906976744
sI58
F0.11627906976744186
sI62
F0.046511627906976744
sI63
F0.23255813953488372
ss(I50
I52
tp723
(dp724
I49
F0.07317073170731707
sI50
F0.22560975609756098
sI52
F0.054878048780487805
sI55
F0.2804878048780488
sI58
F0.22560975609756098
sI60
F0.054878048780487805
sI61
F0.08536585365853659
ss(I68
I71
tp725
(dp726
I68
F0.3333333333333333
sI76
F0.3333333333333333
sI71
F0.3333333333333333
ss(I39
I26
tp727
(dp728
I27
F0.5
sI39
F0.5
ss(I62
I52
tp729
(dp730
I49
F0.46153846153846156
sI61
F0.5384615384615384
ss(I42
I44
tp731
(dp732
I46
F1.0
ss(I27
I48
tp733
(dp734
I27
F0.5
sI39
F0.5
ss(I60
I66
tp735
(dp736
I58
F0.3333333333333333
sI62
F0.3333333333333333
sI63
F0.3333333333333333
ss(I57
I64
tp737
(dp738
I64
F0.23076923076923078
sI65
F0.07692307692307693
sI33
F0.19230769230769232
sI45
F0.19230769230769232
sI57
F0.25274725274725274
sI58
F0.054945054945054944
ss(I81
I67
tp739
(dp740
I65
F1.0
ss(I26
I39
tp741
(dp742
I27
F0.5
sI39
F0.5
ss(I46
I34
tp743
(dp744
I34
F0.25
sI36
F0.125
sI43
F0.125
sI48
F0.125
sI53
F0.25
sI31
F0.125
ss(I53
I45
tp745
(dp746
I33
F0.13333333333333333
sI53
F0.5
sI46
F0.26666666666666666
sI45
F0.1
ss(I30
I33
tp747
(dp748
I26
F1.0
ss(I60
I49
tp749
(dp750
I58
F1.0
ss(I15
I17
tp751
(dp752
I27
F0.5
sI15
F0.5
ss(I63
I68
tp753
(dp754
I64
F0.05263157894736842
sI65
F0.10526315789473684
sI68
F0.10526315789473684
sI72
F0.05263157894736842
sI73
F0.05263157894736842
sI56
F0.05263157894736842
sI58
F0.21052631578947367
sI60
F0.21052631578947367
sI62
F0.10526315789473684
sI63
F0.05263157894736842
ss(I61
I52
tp755
(dp756
I56
F1.0
ss(I74
I76
tp757
(dp758
I72
F0.75
sI84
F0.25
ss(I62
I43
tp759
(dp760
I69
F0.5
sI62
F0.5
ss(I67
I60
tp761
(dp762
I65
F0.0794979079497908
sI67
F0.20920502092050208
sI68
F0.016736401673640166
sI69
F0.04602510460251046
sI70
F0.04184100418410042
sI72
F0.03765690376569038
sI75
F0.0041841004184100415
sI48
F0.13389121338912133
sI55
F0.012552301255230125
sI36
F0.100418410041841
sI58
F0.008368200836820083
sI60
F0.2217573221757322
sI62
F0.06694560669456066
sI63
F0.02092050209205021
ss(I75
I63
tp763
(dp764
I65
F0.5
sI77
F0.5
ss(I79
I68
tp765
(dp766
I65
F0.25
sI70
F0.125
sI75
F0.125
sI77
F0.25
sI82
F0.125
sI63
F0.125
ss(I76
I74
tp767
(dp768
I74
F1.0
ss(I68
I63
tp769
(dp770
I72
F0.25
sI68
F0.25
sI60
F0.25
sI63
F0.25
ss(I46
I29
tp771
(dp772
I49
F0.16666666666666666
sI34
F0.3333333333333333
sI37
F0.16666666666666666
sI46
F0.3333333333333333
ss(I45
I43
tp773
(dp774
I53
F0.42857142857142855
sI46
F0.14285714285714285
sI45
F0.42857142857142855
ss(I69
I62
tp775
(dp776
I64
F0.007918552036199095
sI97
F0.0011312217194570137
sI67
F0.027149321266968326
sI69
F0.3382352941176471
sI38
F0.1515837104072398
sI50
F0.16289592760180996
sI86
F0.0011312217194570137
sI57
F0.00904977375565611
sI62
F0.3009049773755656
ss(I66
I80
tp777
(dp778
I80
F0.4
sI68
F0.4
sI70
F0.2
ss(I15
I22
tp779
(dp780
I27
F0.5
sI15
F0.5
ss(I64
I64
tp781
(dp782
I64
F0.23333333333333334
sI65
F0.06111111111111111
sI33
F0.19444444444444445
sI77
F0.005555555555555556
sI45
F0.19444444444444445
sI56
F0.016666666666666666
sI57
F0.23333333333333334
sI58
F0.05555555555555555
sI63
F0.005555555555555556
ss(I26
I26
tp783
(dp784
I33
F0.35
sI26
F0.2
sI45
F0.25
sI38
F0.2
ss(I91
I88
tp785
(dp786
I89
F1.0
ss(I68
I78
tp787
(dp788
I66
F0.25
sI67
F0.25
sI78
F0.25
sI79
F0.25
ss(I66
I74
tp789
(dp790
I65
F0.5
sI62
F0.5
ss(I22
I27
tp791
(dp792
I27
F0.5
sI15
F0.5
ss(I52
I55
tp793
(dp794
I60
F0.15079365079365079
sI58
F0.18253968253968253
sI52
F0.15079365079365079
sI50
F0.18253968253968253
sI55
F0.3333333333333333
ss(I32
I53
tp795
(dp796
I32
F0.5
sI51
F0.5
ss(I29
I51
tp797
(dp798
I53
F0.5
sI29
F0.5
ss(I62
I67
tp799
(dp800
I64
F0.03125
sI65
F0.052083333333333336
sI67
F0.08333333333333333
sI68
F0.052083333333333336
sI69
F0.2604166666666667
sI74
F0.020833333333333332
sI45
F0.010416666666666666
sI50
F0.010416666666666666
sI85
F0.010416666666666666
sI55
F0.010416666666666666
sI57
F0.020833333333333332
sI90
F0.020833333333333332
sI60
F0.052083333333333336
sI61
F0.07291666666666667
sI62
F0.25
sI63
F0.041666666666666664
ss(I30
I32
tp801
(dp802
I34
F1.0
ss(I65
I55
tp803
(dp804
I64
F0.21875
sI65
F0.09375
sI67
F0.09375
sI52
F0.21875
sI57
F0.09375
sI60
F0.1875
sI62
F0.09375
ss(I64
I50
tp805
(dp806
I64
F0.03125
sI65
F0.375
sI57
F0.03125
sI53
F0.375
sI45
F0.1875
ss(I86
I69
tp807
(dp808
I65
F0.3333333333333333
sI62
F0.3333333333333333
sI70
F0.3333333333333333
ss(I65
I65
tp809
(dp810
I64
F0.020618556701030927
sI65
F0.2963917525773196
sI66
F0.002577319587628866
sI67
F0.06443298969072164
sI68
F0.023195876288659795
sI70
F0.01804123711340206
sI72
F0.08505154639175258
sI41
F0.041237113402061855
sI34
F0.05154639175257732
sI46
F0.05154639175257732
sI53
F0.04381443298969072
sI57
F0.01288659793814433
sI58
F0.14432989690721648
sI60
F0.11855670103092783
sI62
F0.010309278350515464
sI63
F0.015463917525773196
ss(I67
I31
tp811
(dp812
I67
F0.5
sI69
F0.5
ss(I63
I77
tp813
(dp814
I66
F0.4
sI67
F0.2
sI58
F0.2
sI63
F0.2
ss(I61
I77
tp815
(dp816
I58
F1.0
ss(I66
I56
tp817
(dp818
I64
F0.16666666666666666
sI42
F0.08333333333333333
sI49
F0.08333333333333333
sI56
F0.16666666666666666
sI58
F0.08333333333333333
sI61
F0.4166666666666667
ss(I48
I51
tp819
(dp820
I48
F0.25
sI36
F0.25
sI45
F0.5
ss(I40
I40
tp821
(dp822
I40
F0.25
sI48
F0.25
sI46
F0.25
sI39
F0.25
ss(I88
I85
tp823
(dp824
I86
F1.0
ss(I79
I77
tp825
(dp826
I64
F0.125
sI67
F0.125
sI68
F0.25
sI76
F0.125
sI79
F0.125
sI80
F0.25
ss(I76
I65
tp827
(dp828
I74
F0.5
sI86
F0.5
ss(I91
I89
tp829
(dp830
I93
F1.0
ss(I48
I36
tp831
(dp832
I50
F0.15789473684210525
sI27
F0.42105263157894735
sI39
F0.42105263157894735
ss(I53
I65
tp833
(dp834
I65
F0.2318840579710145
sI67
F0.14492753623188406
sI72
F0.2318840579710145
sI53
F0.014492753623188406
sI55
F0.043478260869565216
sI58
F0.043478260869565216
sI60
F0.17391304347826086
sI62
F0.08695652173913043
sI63
F0.028985507246376812
ss(I36
I15
tp835
(dp836
I24
F0.5
sI36
F0.5
ss(I67
I66
tp837
(dp838
I66
F0.5
sI50
F0.16666666666666666
sI62
F0.16666666666666666
sI69
F0.16666666666666666
ss(I73
I60
tp839
(dp840
I72
F0.3333333333333333
sI68
F0.3333333333333333
sI63
F0.3333333333333333
ss(I65
I79
tp841
(dp842
I64
F0.1111111111111111
sI65
F0.1111111111111111
sI67
F0.2222222222222222
sI68
F0.1111111111111111
sI76
F0.1111111111111111
sI79
F0.2222222222222222
sI60
F0.1111111111111111
ss(I44
I63
tp843
(dp844
I56
F0.6666666666666666
sI61
F0.3333333333333333
ss(I50
I38
tp845
(dp846
I50
F0.5
sI45
F0.5
ss(I48
I58
tp847
(dp848
I48
F0.21212121212121213
sI50
F0.2727272727272727
sI60
F0.21212121212121213
sI62
F0.2727272727272727
sI46
F0.030303030303030304
ss(I64
I48
tp849
(dp850
I50
F0.25
sI67
F0.25
sI62
F0.25
sI55
F0.25
ss(I45
I62
tp851
(dp852
I57
F0.5
sI45
F0.5
ss(I69
I65
tp853
(dp854
I97
F0.0625
sI69
F0.25
sI65
F0.0625
sI86
F0.0625
sI57
F0.3125
sI62
F0.25
ss(I49
I59
tp855
(dp856
I60
F1.0
ss(I93
I91
tp857
(dp858
I84
F0.4444444444444444
sI69
F0.1111111111111111
sI95
F0.4444444444444444
ss(I70
I71
tp859
(dp860
I69
F1.0
ss(I51
I61
tp861
(dp862
I62
F1.0
ss(I58
I64
tp863
(dp864
I65
F0.23255813953488372
sI34
F0.23255813953488372
sI46
F0.23255813953488372
sI56
F0.023255813953488372
sI58
F0.23255813953488372
sI60
F0.023255813953488372
sI61
F0.023255813953488372
ss(I51
I29
tp865
(dp866
I32
F0.5
sI51
F0.5
ss(I52
I62
tp867
(dp868
I65
F0.5
sI53
F0.5
ss(I51
I43
tp869
(dp870
I46
F0.5
sI39
F0.5
ss(I62
I74
tp871
(dp872
I65
F0.2
sI58
F0.4
sI68
F0.2
sI60
F0.2
ss(I27
I36
tp873
(dp874
I15
F0.125
sI26
F0.125
sI27
F0.375
sI38
F0.125
sI39
F0.25
ss(I88
I90
tp875
(dp876
I61
F0.5
sI85
F0.5
ss(I58
I51
tp877
(dp878
I56
F0.8
sI58
F0.2
ss(I32
I34
tp879
(dp880
I32
F0.4
sI36
F0.4
sI30
F0.2
ss(I63
I74
tp881
(dp882
I65
F0.5
sI62
F0.5
ss(I55
I57
tp883
(dp884
I62
F0.5
sI55
F0.5
ss(I61
I70
tp885
(dp886
I64
F0.5
sI69
F0.5
ss(I59
I58
tp887
(dp888
I49
F0.3333333333333333
sI61
F0.6666666666666666
ss(I75
I68
tp889
(dp890
I73
F0.5
sI74
F0.5
ss(I36
I40
tp891
(dp892
I28
F1.0
ss(I60
I61
tp893
(dp894
I64
F0.09090909090909091
sI66
F0.09090909090909091
sI68
F0.09090909090909091
sI73
F0.09090909090909091
sI58
F0.36363636363636365
sI61
F0.09090909090909091
sI63
F0.18181818181818182
ss(I22
I15
tp895
(dp896
I27
F0.5
sI15
F0.5
ss(I53
I52
tp897
(dp898
I57
F0.3684210526315789
sI67
F0.13157894736842105
sI45
F0.3684210526315789
sI55
F0.13157894736842105
ss(I77
I70
tp899
(dp900
I80
F0.2
sI58
F0.2
sI68
F0.2
sI66
F0.2
sI61
F0.2
ss(I42
I56
tp901
(dp902
I49
F0.5
sI59
F0.5
ss(I38
I34
tp903
(dp904
I41
F1.0
ss(I62
I63
tp905
(dp906
I65
F0.010869565217391304
sI66
F0.043478260869565216
sI67
F0.08695652173913043
sI68
F0.010869565217391304
sI69
F0.010869565217391304
sI70
F0.06521739130434782
sI75
F0.021739130434782608
sI56
F0.010869565217391304
sI57
F0.010869565217391304
sI58
F0.03260869565217391
sI60
F0.30434782608695654
sI62
F0.2608695652173913
sI63
F0.13043478260869565
ss(I67
I48
tp907
(dp908
I67
F0.5
sI60
F0.5
ss(I39
I43
tp909
(dp910
I27
F0.5
sI39
F0.5
ss(I63
I62
tp911
(dp912
I65
F0.26666666666666666
sI66
F0.02666666666666667
sI67
F0.05333333333333334
sI70
F0.013333333333333334
sI74
F0.013333333333333334
sI44
F0.013333333333333334
sI58
F0.06666666666666667
sI60
F0.013333333333333334
sI61
F0.013333333333333334
sI62
F0.4
sI63
F0.12
ss(I42
I66
tp913
(dp914
I58
F1.0
ss(I55
I68
tp915
(dp916
I67
F0.5
sI60
F0.5
ss(I66
I46
tp917
(dp918
I61
F1.0
ss(I69
I74
tp919
(dp920
I65
F0.2
sI58
F0.3
sI74
F0.2
sI70
F0.1
sI69
F0.2
ss(I84
I93
tp921
(dp922
I88
F1.0
ss(I71
I68
tp923
(dp924
I72
F0.2
sI73
F0.2
sI74
F0.2
sI68
F0.2
sI79
F0.2
ss(I58
I75
tp925
(dp926
I66
F0.2
sI75
F0.2
sI58
F0.2
sI70
F0.2
sI63
F0.2
ss(I39
I31
tp927
(dp928
I27
F0.5
sI39
F0.5
ss(I85
I81
tp929
(dp930
I88
F1.0
ss(I91
I98
tp931
(dp932
I93
F1.0
ss(I46
I27
tp933
(dp934
I27
F0.5
sI39
F0.5
ss(I70
I80
tp935
(dp936
I68
F0.16666666666666666
sI69
F0.16666666666666666
sI72
F0.16666666666666666
sI80
F0.16666666666666666
sI81
F0.16666666666666666
sI84
F0.16666666666666666
ss(I62
I77
tp937
(dp938
I72
F0.5
sI60
F0.5
ss(I60
I69
tp939
(dp940
I64
F0.5
sI52
F0.5
ss(I54
I55
tp941
(dp942
I53
F1.0
ss(I58
I58
tp943
(dp944
I34
F0.032520325203252036
sI46
F0.032520325203252036
sI52
F0.06016260162601626
sI53
F0.027642276422764227
sI54
F0.0032520325203252032
sI55
F0.1983739837398374
sI56
F0.0032520325203252032
sI57
F0.0032520325203252032
sI58
F0.22601626016260162
sI60
F0.08943089430894309
sI61
F0.004878048780487805
sI62
F0.13983739837398373
sI63
F0.01951219512195122
sI64
F0.0065040650406504065
sI65
F0.08455284552845528
sI66
F0.02113821138211382
sI67
F0.013008130081300813
sI68
F0.004878048780487805
sI70
F0.00975609756097561
sI74
F0.0016260162601626016
sI75
F0.0032520325203252032
sI77
F0.0065040650406504065
sI80
F0.0016260162601626016
sI82
F0.0065040650406504065
ss(I48
I67
tp945
(dp946
I65
F0.07692307692307693
sI67
F0.3076923076923077
sI36
F0.07692307692307693
sI69
F0.07692307692307693
sI72
F0.07692307692307693
sI60
F0.3076923076923077
sI62
F0.07692307692307693
ss(I53
I34
tp947
(dp948
I34
F0.2222222222222222
sI53
F0.5
sI46
F0.2777777777777778
ss(I64
I91
tp949
(dp950
I81
F0.5
sI86
F0.5
ss(I40
I41
tp951
(dp952
I36
F0.125
sI38
F0.75
sI39
F0.125
ss(I64
I38
tp953
(dp954
I64
F0.125
sI57
F0.125
sI45
F0.75
ss(I60
I52
tp955
(dp956
I56
F0.008695652173913044
sI58
F0.33043478260869563
sI50
F0.33043478260869563
sI55
F0.33043478260869563
ss(I41
I36
tp957
(dp958
I24
F0.5
sI36
F0.5
ss(I61
I57
tp959
(dp960
I64
F0.4166666666666667
sI52
F0.4166666666666667
sI45
F0.16666666666666666
ss(I29
I22
tp961
(dp962
I27
F1.0
ss(I62
I38
tp963
(dp964
I50
F0.0205761316872428
sI38
F0.01646090534979424
sI69
F0.48148148148148145
sI62
F0.48148148148148145
ss(I34
I29
tp965
(dp966
I32
F0.0625
sI34
F0.25
sI36
F0.1875
sI37
F0.125
sI46
F0.25
sI49
F0.125
ss(I64
I85
tp967
(dp968
I65
F0.3333333333333333
sI69
F0.3333333333333333
sI62
F0.3333333333333333
ss(I29
I17
tp969
(dp970
I17
F0.38095238095238093
sI27
F0.11904761904761904
sI29
F0.38095238095238093
sI15
F0.11904761904761904
ss(I65
I52
tp971
(dp972
I57
F0.35
sI67
F0.125
sI45
F0.35
sI55
F0.125
sI53
F0.05
ss(I76
I77
tp973
(dp974
I74
F0.5
sI86
F0.5
ss(I24
I27
tp975
(dp976
I24
F0.5
sI36
F0.5
ss(I48
I40
tp977
(dp978
I40
F0.25
sI48
F0.25
sI46
F0.25
sI39
F0.25
ss(I72
I53
tp979
(dp980
I72
F0.5
sI65
F0.5
ss(I75
I60
tp981
(dp982
I73
F0.3333333333333333
sI66
F0.3333333333333333
sI70
F0.3333333333333333
ss(I45
I48
tp983
(dp984
I34
F0.5
sI46
F0.5
ss(I27
I28
tp985
(dp986
I39
F1.0
ss(I67
I64
tp987
(dp988
I65
F0.5
sI53
F0.5
ss(I75
I65
tp989
(dp990
I65
F0.2222222222222222
sI69
F0.1111111111111111
sI70
F0.1111111111111111
sI74
F0.2222222222222222
sI58
F0.1111111111111111
sI62
F0.2222222222222222
ss(I70
I56
tp991
(dp992
I60
F1.0
ss(I50
I50
tp993
(dp994
I39
F0.012195121951219513
sI41
F0.024390243902439025
sI43
F0.07317073170731707
sI45
F0.03048780487804878
sI46
F0.024390243902439025
sI48
F0.012195121951219513
sI50
F0.0975609756097561
sI51
F0.006097560975609756
sI52
F0.22560975609756098
sI53
F0.03048780487804878
sI55
F0.23780487804878048
sI60
F0.22560975609756098
ss(I39
I51
tp995
(dp996
I46
F0.5
sI39
F0.5
ss(I68
I65
tp997
(dp998
I64
F0.15789473684210525
sI65
F0.07894736842105263
sI66
F0.02631578947368421
sI67
F0.2631578947368421
sI68
F0.07894736842105263
sI79
F0.02631578947368421
sI58
F0.02631578947368421
sI60
F0.2631578947368421
sI63
F0.07894736842105263
ss(I52
I50
tp999
(dp1000
I65
F0.07407407407407407
sI50
F0.04938271604938271
sI52
F0.2345679012345679
sI53
F0.07407407407407407
sI55
F0.2839506172839506
sI58
F0.04938271604938271
sI60
F0.2345679012345679
ss(I58
I82
tp1001
(dp1002
I58
F0.5
sI53
F0.5
ss(I45
I65
tp1003
(dp1004
I57
F0.5238095238095238
sI45
F0.38095238095238093
sI61
F0.09523809523809523
ss(I46
I62
tp1005
(dp1006
I58
F1.0
ss(I70
I75
tp1007
(dp1008
I66
F0.125
sI69
F0.125
sI70
F0.125
sI72
F0.125
sI75
F0.125
sI84
F0.125
sI58
F0.125
sI63
F0.125
ss(I82
I81
tp1009
(dp1010
I84
F1.0
ss(I84
I74
tp1011
(dp1012
I82
F0.5
sI70
F0.5
ss(I51
I41
tp1013
(dp1014
I50
F1.0
ss(I61
I88
tp1015
(dp1016
I64
F0.5
sI69
F0.5
ss(I53
I43
tp1017
(dp1018
I53
F0.5
sI45
F0.5
ss(I64
I61
tp1019
(dp1020
I64
F0.02040816326530612
sI65
F0.14285714285714285
sI66
F0.02040816326530612
sI70
F0.14285714285714285
sI50
F0.14285714285714285
sI86
F0.02040816326530612
sI56
F0.10204081632653061
sI60
F0.04081632653061224
sI61
F0.02040816326530612
sI62
F0.2857142857142857
sI63
F0.061224489795918366
ss(I86
I64
tp1021
(dp1022
I72
F0.1111111111111111
sI65
F0.3333333333333333
sI84
F0.1111111111111111
sI62
F0.2222222222222222
sI70
F0.2222222222222222
ss(I60
I51
tp1023
(dp1024
I56
F0.2777777777777778
sI58
F0.3333333333333333
sI51
F0.16666666666666666
sI44
F0.1111111111111111
sI61
F0.1111111111111111
ss(I34
I58
tp1025
(dp1026
I64
F0.03333333333333333
sI65
F0.3333333333333333
sI67
F0.13333333333333333
sI57
F0.03333333333333333
sI58
F0.3333333333333333
sI60
F0.13333333333333333
ss(I50
I64
tp1027
(dp1028
I49
F0.46153846153846156
sI61
F0.5384615384615384
ss(I63
I70
tp1029
(dp1030
I65
F0.15
sI66
F0.025
sI69
F0.025
sI70
F0.225
sI72
F0.1
sI74
F0.025
sI58
F0.025
sI62
F0.05
sI63
F0.375
ss(I61
I50
tp1031
(dp1032
I49
F0.07692307692307693
sI50
F0.46153846153846156
sI45
F0.07692307692307693
sI62
F0.38461538461538464
ss(I74
I74
tp1033
(dp1034
I65
F0.25
sI58
F0.125
sI74
F0.25
sI70
F0.125
sI69
F0.25
ss(I66
I63
tp1035
(dp1036
I64
F0.08333333333333333
sI65
F0.125
sI66
F0.08333333333333333
sI68
F0.041666666666666664
sI69
F0.041666666666666664
sI80
F0.041666666666666664
sI56
F0.08333333333333333
sI58
F0.25
sI61
F0.125
sI62
F0.08333333333333333
sI63
F0.041666666666666664
ss(I72
I86
tp1037
(dp1038
I82
F0.5
sI70
F0.5
ss(I36
I36
tp1039
(dp1040
I34
F0.6434108527131783
sI36
F0.023255813953488372
sI38
F0.007751937984496124
sI39
F0.09302325581395349
sI43
F0.023255813953488372
sI46
F0.031007751937984496
sI15
F0.031007751937984496
sI48
F0.023255813953488372
sI27
F0.12403100775193798
ss(I51
I68
tp1041
(dp1042
I60
F1.0
ss(I38
I33
tp1043
(dp1044
I31
F1.0
ss(I67
I62
tp1045
(dp1046
I65
F0.15384615384615385
sI67
F0.28205128205128205
sI69
F0.2948717948717949
sI70
F0.01282051282051282
sI60
F0.02564102564102564
sI62
F0.1282051282051282
sI63
F0.10256410256410256
ss(I41
I55
tp1047
(dp1048
I38
F1.0
ss(I65
I82
tp1049
(dp1050
I80
F0.5
sI68
F0.5
ss(I53
I54
tp1051
(dp1052
I53
F1.0
ss(I61
I44
tp1053
(dp1054
I58
F0.25
sI51
F0.25
sI42
F0.25
sI63
F0.25
ss(I76
I68
tp1055
(dp1056
I73
F0.6666666666666666
sI71
F0.3333333333333333
ss(I77
I82
tp1057
(dp1058
I80
F0.5
sI68
F0.5
ss(I72
I60
tp1059
(dp1060
I65
F0.10714285714285714
sI66
F0.03571428571428571
sI69
F0.03571428571428571
sI70
F0.03571428571428571
sI72
F0.10714285714285714
sI73
F0.03571428571428571
sI53
F0.2857142857142857
sI41
F0.2857142857142857
sI61
F0.03571428571428571
sI62
F0.03571428571428571
ss(I62
I51
tp1061
(dp1062
I60
F1.0
ss(I69
I60
tp1063
(dp1064
I64
F0.05
sI74
F0.05
sI69
F0.5
sI62
F0.4
ss(I67
I68
tp1065
(dp1066
I65
F0.2857142857142857
sI67
F0.08571428571428572
sI68
F0.02857142857142857
sI70
F0.17142857142857143
sI72
F0.02857142857142857
sI75
F0.05714285714285714
sI77
F0.05714285714285714
sI82
F0.02857142857142857
sI60
F0.08571428571428572
sI62
F0.14285714285714285
sI63
F0.02857142857142857
ss(I64
I66
tp1067
(dp1068
I56
F0.4
sI66
F0.2
sI60
F0.2
sI63
F0.2
ss(I50
I60
tp1069
(dp1070
I48
F0.057692307692307696
sI50
F0.23717948717948717
sI52
F0.057692307692307696
sI55
F0.2948717948717949
sI58
F0.23717948717948717
sI60
F0.11538461538461539
ss(I26
I24
tp1071
(dp1072
I26
F0.5
sI38
F0.5
ss(I50
I45
tp1073
(dp1074
I39
F0.058823529411764705
sI43
F0.17647058823529413
sI45
F0.20588235294117646
sI46
F0.11764705882352941
sI50
F0.38235294117647056
sI53
F0.058823529411764705
ss(I74
I62
tp1075
(dp1076
I72
F0.2
sI69
F0.4
sI62
F0.4
ss(I68
I72
tp1077
(dp1078
I58
F0.25
sI66
F0.25
sI63
F0.5
ss(I69
I70
tp1079
(dp1080
I65
F0.0625
sI67
F0.3125
sI69
F0.1875
sI70
F0.0625
sI72
F0.0625
sI74
F0.125
sI77
F0.125
sI81
F0.0625
ss(I66
I72
tp1081
(dp1082
I69
F0.5
sI70
F0.5
ss(I80
I66
tp1083
(dp1084
I66
F0.16666666666666666
sI67
F0.16666666666666666
sI70
F0.16666666666666666
sI78
F0.16666666666666666
sI79
F0.16666666666666666
sI82
F0.16666666666666666
ss(I93
I64
tp1085
(dp1086
I69
F1.0
ss(I94
I86
tp1087
(dp1088
I96
F1.0
ss(I33
I69
tp1089
(dp1090
I69
F0.75
sI62
F0.25
ss(I48
I27
tp1091
(dp1092
I48
F0.5
sI36
F0.5
ss(I70
I66
tp1093
(dp1094
I66
F0.17647058823529413
sI68
F0.058823529411764705
sI70
F0.17647058823529413
sI74
F0.058823529411764705
sI75
F0.058823529411764705
sI80
F0.058823529411764705
sI54
F0.11764705882352941
sI58
F0.23529411764705882
sI63
F0.058823529411764705
ss(I15
I27
tp1095
(dp1096
I34
F0.046511627906976744
sI36
F0.046511627906976744
sI15
F0.22093023255813954
sI17
F0.18604651162790697
sI22
F0.046511627906976744
sI24
F0.046511627906976744
sI27
F0.22093023255813954
sI29
F0.18604651162790697
ss(I29
I32
tp1097
(dp1098
I53
F0.5
sI29
F0.5
ss(I60
I91
tp1099
(dp1100
I81
F0.5
sI86
F0.5
ss(I15
I36
tp1101
(dp1102
I27
F0.5
sI15
F0.5
ss(I82
I72
tp1103
(dp1104
I65
F0.1
sI68
F0.1
sI72
F0.3
sI77
F0.1
sI84
F0.3
sI56
F0.1
ss(I86
I97
tp1105
(dp1106
I65
F0.25
sI94
F0.25
sI62
F0.25
sI70
F0.25
ss(I52
I49
tp1107
(dp1108
I50
F0.5
sI62
F0.5
ss(I46
I43
tp1109
(dp1110
I45
F1.0
ss(I29
I49
tp1111
(dp1112
I53
F0.5
sI29
F0.5
ss(I62
I65
tp1113
(dp1114
I64
F0.08450704225352113
sI65
F0.1267605633802817
sI67
F0.16901408450704225
sI70
F0.07042253521126761
sI72
F0.014084507042253521
sI74
F0.014084507042253521
sI53
F0.014084507042253521
sI55
F0.04225352112676056
sI57
F0.028169014084507043
sI58
F0.09859154929577464
sI60
F0.18309859154929578
sI62
F0.1267605633802817
sI85
F0.028169014084507043
ss(I59
I65
tp1115
(dp1116
I60
F1.0
ss(I70
I74
tp1117
(dp1118
I65
F0.375
sI68
F0.125
sI70
F0.125
sI72
F0.125
sI60
F0.125
sI62
F0.125
ss(I34
I53
tp1119
(dp1120
I41
F0.045454545454545456
sI53
F0.5909090909090909
sI46
F0.36363636363636365
ss(I58
I54
tp1121
(dp1122
I66
F0.16666666666666666
sI68
F0.08333333333333333
sI70
F0.16666666666666666
sI80
F0.08333333333333333
sI54
F0.16666666666666666
sI58
F0.16666666666666666
sI59
F0.08333333333333333
sI61
F0.08333333333333333
ss(I63
I79
tp1123
(dp1124
I72
F0.5
sI60
F0.5
ss(I29
I43
tp1125
(dp1126
I41
F0.5
sI29
F0.5
ss(I85
I62
tp1127
(dp1128
I64
F0.25
sI81
F0.25
sI67
F0.25
sI86
F0.25
ss(I66
I54
tp1129
(dp1130
I66
F0.2
sI68
F0.1
sI70
F0.2
sI80
F0.1
sI54
F0.2
sI58
F0.2
ss(I86
I61
tp1131
(dp1132
I65
F0.3333333333333333
sI62
F0.3333333333333333
sI70
F0.3333333333333333
ss(I38
I26
tp1133
(dp1134
I33
F0.35
sI26
F0.2
sI45
F0.25
sI38
F0.2
ss(I37
I34
tp1135
(dp1136
I49
F0.3333333333333333
sI36
F0.3333333333333333
sI37
F0.3333333333333333
ss(I79
I79
tp1137
(dp1138
I65
F0.5
sI77
F0.5
ss(I76
I67
tp1139
(dp1140
I64
F0.5
sI76
F0.5
ss(I77
I75
tp1141
(dp1142
I58
F0.25
sI54
F0.25
sI66
F0.25
sI70
F0.25
ss(I38
I41
tp1143
(dp1144
I41
F1.0
ss(I62
I58
tp1145
(dp1146
I66
F0.014184397163120567
sI68
F0.0070921985815602835
sI70
F0.014184397163120567
sI75
F0.0070921985815602835
sI55
F0.2801418439716312
sI57
F0.0070921985815602835
sI58
F0.3049645390070922
sI60
F0.03900709219858156
sI62
F0.30141843971631205
sI63
F0.024822695035460994
ss(I45
I34
tp1147
(dp1148
I34
F0.5
sI46
F0.5
ss(I67
I77
tp1149
(dp1150
I64
F0.125
sI67
F0.125
sI68
F0.25
sI76
F0.125
sI79
F0.125
sI80
F0.25
ss(I63
I51
tp1151
(dp1152
I58
F0.3333333333333333
sI51
F0.3333333333333333
sI62
F0.3333333333333333
ss(I24
I15
tp1153
(dp1154
I24
F0.5
sI36
F0.5
ss(I48
I60
tp1155
(dp1156
I64
F0.058823529411764705
sI65
F0.06722689075630252
sI67
F0.2689075630252101
sI36
F0.06722689075630252
sI69
F0.06722689075630252
sI72
F0.06722689075630252
sI52
F0.058823529411764705
sI57
F0.008403361344537815
sI60
F0.2689075630252101
sI62
F0.06722689075630252
ss(I66
I67
tp1157
(dp1158
I64
F0.11764705882352941
sI66
F0.058823529411764705
sI67
F0.47058823529411764
sI69
F0.058823529411764705
sI45
F0.058823529411764705
sI57
F0.11764705882352941
sI61
F0.11764705882352941
ss(I49
I57
tp1159
(dp1160
I64
F0.5
sI52
F0.5
ss(I75
I79
tp1161
(dp1162
I72
F0.5
sI60
F0.5
ss(I50
I62
tp1163
(dp1164
I64
F0.023972602739726026
sI67
F0.0410958904109589
sI69
F0.4623287671232877
sI38
F0.03767123287671233
sI57
F0.023972602739726026
sI59
F0.003424657534246575
sI62
F0.4075342465753425
ss(I70
I69
tp1165
(dp1166
I64
F0.25
sI65
F0.05
sI67
F0.25
sI68
F0.05
sI70
F0.05
sI72
F0.15
sI60
F0.05
sI61
F0.1
sI63
F0.05
ss(I71
I73
tp1167
(dp1168
I69
F1.0
ss(I17
I15
tp1169
(dp1170
I17
F0.5
sI29
F0.5
ss(I51
I63
tp1171
(dp1172
I56
F0.3333333333333333
sI58
F0.3333333333333333
sI61
F0.3333333333333333
ss(I82
I67
tp1173
(dp1174
I80
F0.5
sI68
F0.5
ss(I52
I56
tp1175
(dp1176
I60
F0.25
sI61
F0.75
ss(I85
I86
tp1177
(dp1178
I86
F1.0
ss(I79
I80
tp1179
(dp1180
I65
F0.25
sI70
F0.125
sI75
F0.125
sI77
F0.25
sI82
F0.125
sI63
F0.125
ss(I46
I50
tp1181
(dp1182
I53
F0.25
sI46
F0.5
sI39
F0.25
ss(I65
I46
tp1183
(dp1184
I65
F0.5
sI58
F0.5
ss(I62
I72
tp1185
(dp1186
I65
F0.2
sI74
F0.2
sI68
F0.2
sI69
F0.2
sI60
F0.2
ss(I27
I38
tp1187
(dp1188
I27
F0.5
sI39
F0.5
ss(I60
I72
tp1189
(dp1190
I65
F0.038461538461538464
sI66
F0.038461538461538464
sI67
F0.11538461538461539
sI36
F0.3076923076923077
sI72
F0.038461538461538464
sI48
F0.3076923076923077
sI58
F0.038461538461538464
sI60
F0.07692307692307693
sI63
F0.038461538461538464
ss(I57
I58
tp1191
(dp1192
I64
F0.043478260869565216
sI65
F0.043478260869565216
sI45
F0.043478260869565216
sI50
F0.043478260869565216
sI53
F0.391304347826087
sI57
F0.08695652173913043
sI63
F0.34782608695652173
ss(I81
I85
tp1193
(dp1194
I64
F0.5
sI67
F0.5
ss(I26
I30
tp1195
(dp1196
I24
F1.0
ss(I84
I70
tp1197
(dp1198
I82
F0.5
sI70
F0.5
ss(I58
I49
tp1199
(dp1200
I56
F1.0
ss(I51
I39
tp1201
(dp1202
I51
F1.0
ss(I55
I59
tp1203
(dp1204
I59
F0.25
sI53
F0.25
sI55
F0.5
ss(I29
I36
tp1205
(dp1206
I24
F0.5
sI36
F0.5
ss(I59
I60
tp1207
(dp1208
I59
F1.0
ss(I33
I33
tp1209
(dp1210
I34
F0.5
sI46
F0.5
ss(I75
I70
tp1211
(dp1212
I65
F0.25
sI74
F0.25
sI69
F0.25
sI62
F0.25
ss(I72
I68
tp1213
(dp1214
I64
F0.25
sI73
F0.25
sI68
F0.25
sI71
F0.25
ss(I64
I33
tp1215
(dp1216
I64
F0.5
sI57
F0.5
ss(I60
I63
tp1217
(dp1218
I68
F0.0625
sI70
F0.03125
sI51
F0.09375
sI56
F0.1875
sI58
F0.28125
sI60
F0.09375
sI61
F0.03125
sI62
F0.03125
sI63
F0.1875
ss(I34
I38
tp1219
(dp1220
I36
F1.0
ss(I61
I62
tp1221
(dp1222
I64
F0.15
sI97
F0.025
sI69
F0.15
sI45
F0.05
sI49
F0.05
sI50
F0.3
sI86
F0.025
sI62
F0.25
ss(I77
I68
tp1223
(dp1224
I67
F0.3333333333333333
sI75
F0.3333333333333333
sI79
F0.3333333333333333
ss(I74
I70
tp1225
(dp1226
I65
F0.1
sI66
F0.1
sI69
F0.2
sI70
F0.1
sI74
F0.2
sI75
F0.1
sI58
F0.1
sI63
F0.1
ss(I62
I61
tp1227
(dp1228
I64
F0.5
sI52
F0.5
ss(I36
I48
tp1229
(dp1230
I67
F0.2
sI36
F0.1
sI39
F0.2
sI43
F0.1
sI27
F0.2
sI60
F0.2
ss(I67
I50
tp1231
(dp1232
I67
F0.5
sI69
F0.5
ss(I36
I60
tp1233
(dp1234
I65
F0.1
sI67
F0.3
sI69
F0.1
sI72
F0.1
sI60
F0.3
sI62
F0.1
ss(I63
I56
tp1235
(dp1236
I64
F0.09090909090909091
sI66
F0.09090909090909091
sI68
F0.045454545454545456
sI73
F0.045454545454545456
sI51
F0.045454545454545456
sI56
F0.045454545454545456
sI58
F0.09090909090909091
sI60
F0.2727272727272727
sI61
F0.13636363636363635
sI62
F0.045454545454545456
sI63
F0.09090909090909091
ss(I27
I31
tp1237
(dp1238
I27
F0.5
sI39
F0.5
ss(I24
I22
tp1239
(dp1240
I24
F0.5
sI36
F0.5
ss(I55
I70
tp1241
(dp1242
I57
F0.5
sI62
F0.5
ss(I72
I48
tp1243
(dp1244
I41
F0.5
sI53
F0.5
ss(I45
I53
tp1245
(dp1246
I57
F0.3333333333333333
sI61
F0.06060606060606061
sI53
F0.18181818181818182
sI46
F0.09090909090909091
sI45
F0.3333333333333333
ss(I69
I72
tp1247
(dp1248
I74
F0.5
sI69
F0.5
ss(I49
I50
tp1249
(dp1250
I50
F0.5454545454545454
sI62
F0.45454545454545453
ss(I50
I57
tp1251
(dp1252
I55
F1.0
ss(I71
I70
tp1253
(dp1254
I68
F1.0
ss(I68
I68
tp1255
(dp1256
I64
F0.125
sI73
F0.25
sI67
F0.375
sI68
F0.125
sI71
F0.125
ss(I69
I82
tp1257
(dp1258
I65
F0.5
sI77
F0.5
ss(I82
I58
tp1259
(dp1260
I68
F0.1
sI72
F0.1
sI75
F0.1
sI80
F0.1
sI53
F0.3
sI58
F0.3
ss(I55
I53
tp1261
(dp1262
I69
F0.2
sI53
F0.05714285714285714
sI56
F0.22857142857142856
sI57
F0.2857142857142857
sI58
F0.11428571428571428
sI61
F0.05714285714285714
sI62
F0.05714285714285714
ss(I24
I34
tp1263
(dp1264
I24
F0.16666666666666666
sI41
F0.3333333333333333
sI36
F0.16666666666666666
sI29
F0.3333333333333333
ss(I46
I53
tp1265
(dp1266
I34
F0.023809523809523808
sI41
F0.07142857142857142
sI46
F0.2857142857142857
sI48
F0.047619047619047616
sI51
F0.023809523809523808
sI53
F0.4523809523809524
sI29
F0.09523809523809523
ss(I37
I49
tp1267
(dp1268
I29
F0.5
sI53
F0.5
ss(I61
I66
tp1269
(dp1270
I64
F0.0625
sI69
F0.0625
sI45
F0.125
sI54
F0.0625
sI56
F0.25
sI58
F0.1875
sI60
F0.125
sI63
F0.125
ss(I57
I67
tp1271
(dp1272
I48
F0.5
sI60
F0.5
ss(I82
I84
tp1273
(dp1274
I65
F0.07142857142857142
sI68
F0.07142857142857142
sI72
F0.21428571428571427
sI77
F0.07142857142857142
sI84
F0.5
sI56
F0.07142857142857142
ss(I86
I85
tp1275
(dp1276
I88
F0.7272727272727273
sI65
F0.09090909090909091
sI62
F0.09090909090909091
sI70
F0.09090909090909091
ss(I58
I56
tp1277
(dp1278
I64
F0.19047619047619047
sI49
F0.047619047619047616
sI56
F0.23809523809523808
sI59
F0.047619047619047616
sI60
F0.19047619047619047
sI61
F0.23809523809523808
sI63
F0.047619047619047616
ss(I31
I29
tp1279
(dp1280
I36
F0.07142857142857142
sI39
F0.03571428571428571
sI41
F0.39285714285714285
sI24
F0.07142857142857142
sI27
F0.03571428571428571
sI29
F0.39285714285714285
ss(I55
I48
tp1281
(dp1282
I65
F1.0
ss(I53
I32
tp1283
(dp1284
I53
F0.5
sI29
F0.5
ss(I33
I64
tp1285
(dp1286
I64
F0.3611111111111111
sI65
F0.1388888888888889
sI58
F0.1388888888888889
sI57
F0.3611111111111111
ss(I72
I75
tp1287
(dp1288
I58
F0.5
sI70
F0.5
ss(I64
I56
tp1289
(dp1290
I64
F0.10714285714285714
sI68
F0.03571428571428571
sI72
F0.03571428571428571
sI51
F0.03571428571428571
sI56
F0.2857142857142857
sI58
F0.10714285714285714
sI61
F0.2857142857142857
sI63
F0.10714285714285714
ss(I34
I33
tp1291
(dp1292
I33
F0.0625
sI34
F0.0625
sI36
F0.25
sI41
F0.0625
sI45
F0.0625
sI46
F0.125
sI53
F0.125
sI24
F0.25
ss(I58
I34
tp1293
(dp1294
I65
F0.5
sI58
F0.5
ss(I63
I61
tp1295
(dp1296
I64
F0.26666666666666666
sI66
F0.13333333333333333
sI68
F0.06666666666666667
sI73
F0.06666666666666667
sI56
F0.06666666666666667
sI58
F0.06666666666666667
sI60
F0.13333333333333333
sI61
F0.13333333333333333
sI62
F0.06666666666666667
ss(I97
I69
tp1297
(dp1298
I86
F1.0
ss(I55
I46
tp1299
(dp1300
I53
F1.0
ss(I61
I55
tp1301
(dp1302
I60
F1.0
ss(I39
I50
tp1303
(dp1304
I46
F0.5
sI39
F0.5
ss(I74
I65
tp1305
(dp1306
I72
F0.5
sI60
F0.5
ss(I65
I61
tp1307
(dp1308
I65
F1.0
ss(I96
I62
tp1309
(dp1310
I64
F0.3333333333333333
sI67
F0.3333333333333333
sI91
F0.3333333333333333
ss(I54
I65
tp1311
(dp1312
I58
F0.25
sI54
F0.25
sI66
F0.25
sI70
F0.25
ss(I60
I44
tp1313
(dp1314
I58
F1.0
ss(I34
I27
tp1315
(dp1316
I15
F0.25
sI27
F0.5
sI39
F0.25
ss(I39
I34
tp1317
(dp1318
I34
F0.3333333333333333
sI27
F0.3333333333333333
sI39
F0.3333333333333333
ss(I29
I29
tp1319
(dp1320
I32
F0.008695652173913044
sI34
F0.013043478260869565
sI39
F0.05
sI41
F0.23043478260869565
sI43
F0.06086956521739131
sI46
F0.013043478260869565
sI15
F0.03260869565217391
sI17
F0.10434782608695652
sI51
F0.008695652173913044
sI27
F0.08260869565217391
sI29
F0.3347826086956522
sI31
F0.06086956521739131
ss(I76
I79
tp1321
(dp1322
I64
F0.3333333333333333
sI72
F0.3333333333333333
sI76
F0.3333333333333333
ss(I68
I60
tp1323
(dp1324
I65
F0.3103448275862069
sI66
F0.10344827586206896
sI67
F0.10344827586206896
sI68
F0.034482758620689655
sI70
F0.034482758620689655
sI72
F0.034482758620689655
sI73
F0.034482758620689655
sI55
F0.10344827586206896
sI58
F0.034482758620689655
sI60
F0.10344827586206896
sI63
F0.10344827586206896
ss(I24
I29
tp1325
(dp1326
I26
F0.5
sI38
F0.5
ss(I90
I65
tp1327
(dp1328
I98
F1.0
ss(I45
I46
tp1329
(dp1330
I34
F0.125
sI45
F0.25
sI46
F0.125
sI50
F0.125
sI53
F0.25
sI57
F0.125
ss(I67
I65
tp1331
(dp1332
I64
F0.009708737864077669
sI65
F0.1553398058252427
sI67
F0.038834951456310676
sI68
F0.08737864077669903
sI69
F0.0970873786407767
sI70
F0.07766990291262135
sI48
F0.1553398058252427
sI72
F0.019417475728155338
sI75
F0.009708737864077669
sI76
F0.009708737864077669
sI79
F0.009708737864077669
sI80
F0.019417475728155338
sI57
F0.04854368932038835
sI60
F0.05825242718446602
sI62
F0.04854368932038835
sI36
F0.1553398058252427
ss(I64
I77
tp1333
(dp1334
I74
F0.5
sI86
F0.5
ss(I70
I62
tp1335
(dp1336
I65
F0.16129032258064516
sI67
F0.0967741935483871
sI68
F0.0967741935483871
sI70
F0.22580645161290322
sI72
F0.12903225806451613
sI74
F0.03225806451612903
sI58
F0.03225806451612903
sI60
F0.0967741935483871
sI62
F0.12903225806451613
ss(I50
I48
tp1337
(dp1338
I38
F0.10714285714285714
sI41
F0.07142857142857142
sI45
F0.10714285714285714
sI48
F0.32142857142857145
sI50
F0.07142857142857142
sI60
F0.32142857142857145
ss(I68
I67
tp1339
(dp1340
I65
F0.3076923076923077
sI66
F0.07692307692307693
sI67
F0.07692307692307693
sI68
F0.23076923076923078
sI70
F0.07692307692307693
sI73
F0.07692307692307693
sI77
F0.07692307692307693
sI79
F0.07692307692307693
ss(I60
I96
tp1341
(dp1342
I65
F1.0
ss(I82
I53
tp1343
(dp1344
I68
F0.1
sI72
F0.1
sI75
F0.1
sI80
F0.1
sI53
F0.3
sI58
F0.3
ss(I66
I58
tp1345
(dp1346
I64
F0.04
sI65
F0.1
sI66
F0.1
sI68
F0.02
sI70
F0.06
sI74
F0.02
sI80
F0.02
sI53
F0.02
sI54
F0.04
sI56
F0.02
sI58
F0.24
sI60
F0.06
sI61
F0.04
sI62
F0.06
sI63
F0.16
ss(I80
I77
tp1347
(dp1348
I66
F0.3333333333333333
sI67
F0.3333333333333333
sI79
F0.3333333333333333
ss(I85
I88
tp1349
(dp1350
I61
F1.0
ss(I24
I41
tp1351
(dp1352
I26
F0.5
sI38
F0.5
ss(I46
I60
tp1353
(dp1354
I48
F0.3684210526315789
sI57
F0.10526315789473684
sI60
F0.3684210526315789
sI53
F0.05263157894736842
sI45
F0.10526315789473684
ss(I70
I73
tp1355
(dp1356
I78
F0.5
sI70
F0.5
ss(I51
I51
tp1357
(dp1358
I36
F0.11764705882352941
sI48
F0.11764705882352941
sI50
F0.23529411764705882
sI51
F0.058823529411764705
sI53
F0.11764705882352941
sI56
F0.11764705882352941
sI58
F0.058823529411764705
sI29
F0.11764705882352941
sI62
F0.058823529411764705
ss(I82
I79
tp1359
(dp1360
I80
F0.5
sI68
F0.5
ss(I52
I52
tp1361
(dp1362
I58
F0.3333333333333333
sI50
F0.3333333333333333
sI55
F0.3333333333333333
ss(I46
I38
tp1363
(dp1364
I46
F0.5
sI39
F0.5
ss(I53
I41
tp1365
(dp1366
I51
F0.25
sI52
F0.75
ss(I69
I31
tp1367
(dp1368
I67
F0.3333333333333333
sI69
F0.5
sI62
F0.16666666666666666
ss(I57
I46
tp1369
(dp1370
I64
F0.25
sI57
F0.5
sI45
F0.25
ss(I81
I89
tp1371
(dp1372
I81
F1.0
ss(I73
I68
tp1373
(dp1374
I68
F0.5
sI69
F0.5
ss(I58
I45
tp1375
(dp1376
I65
F0.17857142857142858
sI34
F0.17857142857142858
sI46
F0.17857142857142858
sI48
F0.14285714285714285
sI58
F0.17857142857142858
sI60
F0.14285714285714285
ss(I65
I62
tp1377
(dp1378
I64
F0.15873015873015872
sI65
F0.12698412698412698
sI67
F0.09523809523809523
sI68
F0.047619047619047616
sI69
F0.07936507936507936
sI70
F0.031746031746031744
sI72
F0.015873015873015872
sI55
F0.047619047619047616
sI57
F0.12698412698412698
sI60
F0.1746031746031746
sI62
F0.06349206349206349
sI63
F0.031746031746031744
ss(I74
I72
tp1379
(dp1380
I72
F0.3333333333333333
sI76
F0.6666666666666666
ss(I75
I74
tp1381
(dp1382
I65
F0.5
sI62
F0.5
ss(I67
I81
tp1383
(dp1384
I65
F0.3333333333333333
sI69
F0.3333333333333333
sI62
F0.3333333333333333
ss(I27
I29
tp1385
(dp1386
I15
F0.19480519480519481
sI26
F0.012987012987012988
sI27
F0.4935064935064935
sI39
F0.2987012987012987
ss(I36
I38
tp1387
(dp1388
I34
F0.38345864661654133
sI36
F0.6165413533834586
ss(I41
I53
tp1389
(dp1390
I48
F0.5
sI41
F0.5
ss(I65
I80
tp1391
(dp1392
I67
F0.5
sI79
F0.5
ss(I77
I80
tp1393
(dp1394
I67
F0.5
sI79
F0.5
ss(I39
I48
tp1395
(dp1396
I27
F0.4
sI46
F0.1
sI39
F0.5
ss(I72
I62
tp1397
(dp1398
I58
F0.5
sI70
F0.5
ss(I62
I49
tp1399
(dp1400
I64
F0.5
sI52
F0.5
ss(I45
I39
tp1401
(dp1402
I50
F0.5
sI45
F0.5
ss(I88
I86
tp1403
(dp1404
I89
F0.6666666666666666
sI86
F0.3333333333333333
ss(I65
I86
tp1405
(dp1406
I96
F0.5
sI88
F0.25
sI62
F0.25
ss(I67
I70
tp1407
(dp1408
I64
F0.058823529411764705
sI65
F0.058823529411764705
sI67
F0.17647058823529413
sI69
F0.29411764705882354
sI70
F0.17647058823529413
sI58
F0.058823529411764705
sI60
F0.17647058823529413
ss(I73
I63
tp1409
(dp1410
I72
F0.3333333333333333
sI68
F0.3333333333333333
sI63
F0.3333333333333333
ss(I65
I74
tp1411
(dp1412
I65
F0.375
sI68
F0.125
sI77
F0.125
sI70
F0.125
sI60
F0.25
ss(I44
I60
tp1413
(dp1414
I56
F0.5
sI42
F0.5
ss(I50
I43
tp1415
(dp1416
I41
F0.08695652173913043
sI43
F0.2608695652173913
sI45
F0.13043478260869565
sI48
F0.08695652173913043
sI50
F0.2608695652173913
sI51
F0.043478260869565216
sI53
F0.13043478260869565
ss(I74
I60
tp1417
(dp1418
I72
F0.5
sI68
F0.5
ss(I68
I74
tp1419
(dp1420
I63
F1.0
ss(I66
I70
tp1421
(dp1422
I65
F0.08333333333333333
sI66
F0.16666666666666666
sI68
F0.08333333333333333
sI70
F0.16666666666666666
sI80
F0.08333333333333333
sI54
F0.16666666666666666
sI58
F0.16666666666666666
sI62
F0.08333333333333333
ss(I41
I31
tp1423
(dp1424
I41
F0.5
sI29
F0.5
ss(I70
I64
tp1425
(dp1426
I64
F0.18518518518518517
sI65
F0.18518518518518517
sI67
F0.18518518518518517
sI68
F0.18518518518518517
sI60
F0.18518518518518517
sI61
F0.07407407407407407
ss(I51
I56
tp1427
(dp1428
I51
F0.09090909090909091
sI56
F0.2727272727272727
sI58
F0.13636363636363635
sI60
F0.36363636363636365
sI61
F0.09090909090909091
sI63
F0.045454545454545456
ss(I58
I69
tp1429
(dp1430
I65
F0.5
sI60
F0.125
sI70
F0.375
ss(I65
I68
tp1431
(dp1432
I48
F0.15
sI67
F0.2
sI60
F0.45
sI53
F0.15
sI79
F0.05
ss(I46
I41
tp1433
(dp1434
I49
F0.15384615384615385
sI34
F0.3076923076923077
sI51
F0.07692307692307693
sI37
F0.15384615384615385
sI46
F0.3076923076923077
ss(I29
I15
tp1435
(dp1436
I17
F0.5
sI29
F0.5
ss(I53
I50
tp1437
(dp1438
I53
F0.5
sI46
F0.2
sI45
F0.3
ss(I33
I48
tp1439
(dp1440
I34
F1.0
ss(I57
I55
tp1441
(dp1442
I65
F0.1111111111111111
sI48
F0.25925925925925924
sI57
F0.1111111111111111
sI58
F0.14814814814814814
sI60
F0.25925925925925924
sI62
F0.1111111111111111
ss(I81
I82
tp1443
(dp1444
I65
F0.5
sI77
F0.5
ss(I28
I36
tp1445
(dp1446
I27
F1.0
ss(I58
I52
tp1447
(dp1448
I60
F0.06521739130434782
sI58
F0.26811594202898553
sI52
F0.06521739130434782
sI50
F0.26811594202898553
sI55
F0.3333333333333333
ss(I86
I88
tp1449
(dp1450
I84
F0.3333333333333333
sI85
F0.6666666666666666
ss(I63
I73
tp1451
(dp1452
I64
F0.25
sI73
F0.25
sI75
F0.25
sI68
F0.25
ss(I55
I60
tp1453
(dp1454
I64
F0.06402439024390244
sI65
F0.018292682926829267
sI68
F0.003048780487804878
sI69
F0.003048780487804878
sI70
F0.006097560975609756
sI50
F0.22865853658536586
sI52
F0.027439024390243903
sI55
F0.27439024390243905
sI58
F0.22865853658536586
sI60
F0.11890243902439024
sI62
F0.027439024390243903
ss(I29
I41
tp1455
(dp1456
I34
F0.018404907975460124
sI39
F0.0705521472392638
sI41
F0.32515337423312884
sI43
F0.08588957055214724
sI46
F0.018404907975460124
sI27
F0.0705521472392638
sI29
F0.32515337423312884
sI31
F0.08588957055214724
ss(I33
I46
tp1457
(dp1458
I34
F0.5
sI46
F0.5
ss(I75
I67
tp1459
(dp1460
I72
F0.2
sI73
F0.2
sI66
F0.2
sI60
F0.2
sI70
F0.2
ss(I88
I89
tp1461
(dp1462
I89
F1.0
ss(I60
I34
tp1463
(dp1464
I48
F0.5
sI36
F0.5
ss(I34
I45
tp1465
(dp1466
I33
F0.07142857142857142
sI36
F0.2857142857142857
sI45
F0.07142857142857142
sI46
F0.14285714285714285
sI53
F0.14285714285714285
sI24
F0.2857142857142857
ss(I67
I41
tp1467
(dp1468
I48
F0.5
sI36
F0.5
ss(I65
I41
tp1469
(dp1470
I72
F0.5
sI65
F0.5
ss(I48
I53
tp1471
(dp1472
I33
F0.125
sI68
F0.03125
sI41
F0.09375
sI45
F0.125
sI46
F0.09375
sI48
F0.21875
sI53
F0.3125
ss(I42
I61
tp1473
(dp1474
I54
F1.0
ss(I63
I65
tp1475
(dp1476
I65
F0.15
sI66
F0.06666666666666667
sI69
F0.016666666666666666
sI70
F0.2
sI74
F0.03333333333333333
sI46
F0.016666666666666666
sI51
F0.016666666666666666
sI78
F0.016666666666666666
sI58
F0.2
sI61
F0.016666666666666666
sI62
F0.15
sI63
F0.11666666666666667
ss(I53
I77
tp1477
(dp1478
I58
F0.5
sI53
F0.5
ss(I43
I48
tp1479
(dp1480
I43
F1.0
ss(I67
I79
tp1481
(dp1482
I65
F0.5
sI77
F0.5
ss(I39
I46
tp1483
(dp1484
I38
F0.024390243902439025
sI39
F0.34146341463414637
sI45
F0.04878048780487805
sI46
F0.3170731707317073
sI50
F0.17073170731707318
sI27
F0.0975609756097561
ss(I65
I67
tp1485
(dp1486
I64
F0.10416666666666667
sI65
F0.0625
sI67
F0.020833333333333332
sI68
F0.08333333333333333
sI90
F0.020833333333333332
sI41
F0.08333333333333333
sI76
F0.010416666666666666
sI79
F0.020833333333333332
sI48
F0.03125
sI69
F0.020833333333333332
sI52
F0.07291666666666667
sI53
F0.125
sI85
F0.010416666666666666
sI55
F0.010416666666666666
sI58
F0.010416666666666666
sI60
F0.08333333333333333
sI61
F0.052083333333333336
sI62
F0.125
sI63
F0.052083333333333336
ss(I48
I62
tp1487
(dp1488
I58
F0.42857142857142855
sI46
F0.42857142857142855
sI55
F0.14285714285714285
ss(I45
I58
tp1489
(dp1490
I57
F0.5
sI45
F0.5
ss(I66
I65
tp1491
(dp1492
I65
F0.19047619047619047
sI66
F0.09523809523809523
sI70
F0.14285714285714285
sI74
F0.047619047619047616
sI54
F0.047619047619047616
sI58
F0.19047619047619047
sI62
F0.19047619047619047
sI63
F0.09523809523809523
ss(I67
I85
tp1493
(dp1494
I65
F0.3333333333333333
sI69
F0.3333333333333333
sI62
F0.3333333333333333
ss(I51
I46
tp1495
(dp1496
I46
F0.5
sI39
F0.5
ss(I38
I27
tp1497
(dp1498
I27
F0.5
sI39
F0.5
ss(I71
I75
tp1499
(dp1500
I72
F0.3333333333333333
sI74
F0.3333333333333333
sI79
F0.3333333333333333
ss(I31
I38
tp1501
(dp1502
I38
F1.0
ss(I52
I58
tp1503
(dp1504
I60
F0.2753623188405797
sI50
F0.057971014492753624
sI52
F0.2753623188405797
sI58
F0.057971014492753624
sI55
F0.3333333333333333
ss(I56
I61
tp1505
(dp1506
I64
F0.23529411764705882
sI66
F0.0196078431372549
sI68
F0.0196078431372549
sI73
F0.0196078431372549
sI51
F0.0196078431372549
sI52
F0.0784313725490196
sI56
F0.27450980392156865
sI58
F0.0392156862745098
sI60
F0.058823529411764705
sI61
F0.17647058823529413
sI63
F0.058823529411764705
ss(I46
I48
tp1507
(dp1508
I39
F0.06896551724137931
sI43
F0.034482758620689655
sI45
F0.06896551724137931
sI46
F0.13793103448275862
sI48
F0.3103448275862069
sI53
F0.06896551724137931
sI57
F0.06896551724137931
sI60
F0.2413793103448276
ss(I60
I74
tp1509
(dp1510
I58
F0.5
sI70
F0.5
ss(I58
I63
tp1511
(dp1512
I64
F0.025974025974025976
sI65
F0.06493506493506493
sI66
F0.18181818181818182
sI67
F0.025974025974025976
sI68
F0.012987012987012988
sI70
F0.025974025974025976
sI75
F0.025974025974025976
sI53
F0.012987012987012988
sI54
F0.05194805194805195
sI56
F0.05194805194805195
sI58
F0.2077922077922078
sI60
F0.07792207792207792
sI61
F0.025974025974025976
sI62
F0.03896103896103896
sI63
F0.16883116883116883
ss(I41
I29
tp1513
(dp1514
I34
F0.01818181818181818
sI39
F0.08181818181818182
sI41
F0.3212121212121212
sI43
F0.08484848484848485
sI46
F0.01818181818181818
sI27
F0.0696969696969697
sI29
F0.3212121212121212
sI31
F0.08484848484848485
ss(I48
I64
tp1515
(dp1516
I60
F1.0
ss(I29
I34
tp1517
(dp1518
I34
F0.6666666666666666
sI39
F0.3333333333333333
ss(I53
I37
tp1519
(dp1520
I53
F0.5
sI29
F0.5
ss(I57
I34
tp1521
(dp1522
I64
F0.5
sI57
F0.5
ss(I72
I70
tp1523
(dp1524
I65
F0.11764705882352941
sI82
F0.23529411764705882
sI74
F0.11764705882352941
sI70
F0.23529411764705882
sI63
F0.29411764705882354
ss(I54
I42
tp1525
(dp1526
I65
F1.0
ss(I60
I57
tp1527
(dp1528
I64
F0.5
sI52
F0.5
ss(I34
I36
tp1529
(dp1530
I32
F0.02040816326530612
sI33
F0.013605442176870748
sI34
F0.54421768707483
sI36
F0.034013605442176874
sI38
F0.034013605442176874
sI24
F0.027210884353741496
sI31
F0.32653061224489793
ss(I67
I46
tp1531
(dp1532
I48
F0.5
sI36
F0.5
ss(I41
I39
tp1533
(dp1534
I41
F0.5
sI29
F0.5
ss(I65
I34
tp1535
(dp1536
I65
F0.5
sI58
F0.5
ss(I61
I60
tp1537
(dp1538
I64
F0.11764705882352941
sI42
F0.058823529411764705
sI51
F0.058823529411764705
sI56
F0.11764705882352941
sI58
F0.11764705882352941
sI61
F0.29411764705882354
sI63
F0.23529411764705882
ss(I38
I38
tp1539
(dp1540
I33
F0.09859154929577464
sI36
F0.5492957746478874
sI38
F0.09859154929577464
sI39
F0.04225352112676056
sI45
F0.11267605633802817
sI46
F0.04225352112676056
sI26
F0.056338028169014086
ss(I88
I70
tp1541
(dp1542
I64
F0.5
sI67
F0.5
ss(I34
I30
tp1543
(dp1544
I37
F1.0
ss(I67
I52
tp1545
(dp1546
I65
F0.5
sI53
F0.5
ss(I39
I39
tp1547
(dp1548
I34
F0.021739130434782608
sI36
F0.03260869565217391
sI39
F0.23369565217391305
sI41
F0.18478260869565216
sI45
F0.010869565217391304
sI46
F0.09239130434782608
sI48
F0.021739130434782608
sI50
F0.03804347826086957
sI51
F0.021739130434782608
sI27
F0.15760869565217392
sI29
F0.18478260869565216
ss(I63
I58
tp1549
(dp1550
I64
F0.0196078431372549
sI65
F0.11764705882352941
sI66
F0.09803921568627451
sI70
F0.09803921568627451
sI74
F0.0196078431372549
sI44
F0.0196078431372549
sI58
F0.21568627450980393
sI60
F0.11764705882352941
sI61
F0.0196078431372549
sI62
F0.058823529411764705
sI63
F0.21568627450980393
ss(I78
I70
tp1551
(dp1552
I73
F1.0
ss(I68
I55
tp1553
(dp1554
I63
F1.0
ss(I24
I24
tp1555
(dp1556
I15
F0.25
sI27
F0.5
sI39
F0.25
ss(I55
I64
tp1557
(dp1558
I65
F0.25925925925925924
sI60
F0.37037037037037035
sI53
F0.25925925925925924
sI55
F0.1111111111111111
ss(I53
I72
tp1559
(dp1560
I72
F0.3333333333333333
sI65
F0.3333333333333333
sI67
F0.16666666666666666
sI60
F0.16666666666666666
ss(I36
I24
tp1561
(dp1562
I15
F0.25
sI27
F0.5
sI39
F0.25
ss(I29
I24
tp1563
(dp1564
I24
F0.5
sI36
F0.5
ss(I73
I56
tp1565
(dp1566
I72
F0.3333333333333333
sI68
F0.3333333333333333
sI63
F0.3333333333333333
ss(I64
I72
tp1567
(dp1568
I55
F1.0
ss(I27
I27
tp1569
(dp1570
I34
F0.03508771929824561
sI36
F0.03508771929824561
sI39
F0.12719298245614036
sI41
F0.14912280701754385
sI46
F0.017543859649122806
sI15
F0.08333333333333333
sI48
F0.017543859649122806
sI17
F0.07017543859649122
sI22
F0.017543859649122806
sI24
F0.017543859649122806
sI27
F0.21052631578947367
sI29
F0.21929824561403508
ss(I50
I55
tp1571
(dp1572
I60
F0.18473895582329317
sI58
F0.14859437751004015
sI52
F0.18473895582329317
sI50
F0.14859437751004015
sI55
F0.3333333333333333
ss(I68
I70
tp1573
(dp1574
I64
F0.13953488372093023
sI66
F0.023255813953488372
sI67
F0.16279069767441862
sI68
F0.023255813953488372
sI70
F0.09302325581395349
sI72
F0.023255813953488372
sI42
F0.023255813953488372
sI75
F0.023255813953488372
sI76
F0.023255813953488372
sI77
F0.023255813953488372
sI79
F0.023255813953488372
sI82
F0.046511627906976744
sI58
F0.06976744186046512
sI60
F0.23255813953488372
sI63
F0.06976744186046512
ss(I68
I58
tp1575
(dp1576
I66
F0.1
sI70
F0.1
sI42
F0.1
sI82
F0.1
sI58
F0.2
sI60
F0.1
sI63
F0.3
ss(I67
I96
tp1577
(dp1578
I65
F0.5
sI93
F0.5
ss(I39
I27
tp1579
(dp1580
I34
F0.027972027972027972
sI36
F0.027972027972027972
sI38
F0.006993006993006993
sI39
F0.20279720279720279
sI41
F0.23776223776223776
sI46
F0.027972027972027972
sI48
F0.027972027972027972
sI27
F0.20279720279720279
sI29
F0.23776223776223776
ss(I80
I72
tp1581
(dp1582
I82
F0.5
sI70
F0.5
ss(I24
I36
tp1583
(dp1584
I15
F0.25
sI27
F0.5
sI39
F0.25
ss(I70
I84
tp1585
(dp1586
I65
F0.1
sI68
F0.1
sI72
F0.3
sI77
F0.1
sI84
F0.3
sI56
F0.1
ss(I89
I91
tp1587
(dp1588
I88
F1.0
ss(I51
I44
tp1589
(dp1590
I51
F0.3333333333333333
sI61
F0.3333333333333333
sI63
F0.3333333333333333
ss(I57
I65
tp1591
(dp1592
I64
F0.03773584905660377
sI65
F0.1320754716981132
sI69
F0.07547169811320754
sI70
F0.018867924528301886
sI45
F0.1509433962264151
sI57
F0.39622641509433965
sI58
F0.07547169811320754
sI61
F0.03773584905660377
sI62
F0.07547169811320754
ss(I65
I70
tp1593
(dp1594
I64
F0.09523809523809523
sI65
F0.07936507936507936
sI66
F0.031746031746031744
sI67
F0.12698412698412698
sI68
F0.015873015873015872
sI70
F0.1111111111111111
sI75
F0.031746031746031744
sI80
F0.015873015873015872
sI55
F0.015873015873015872
sI58
F0.047619047619047616
sI60
F0.1746031746031746
sI62
F0.14285714285714285
sI63
F0.1111111111111111
ss(I64
I60
tp1595
(dp1596
I65
F0.09615384615384616
sI67
F0.1346153846153846
sI68
F0.038461538461538464
sI70
F0.09615384615384616
sI72
F0.038461538461538464
sI75
F0.019230769230769232
sI50
F0.1346153846153846
sI55
F0.1346153846153846
sI60
F0.057692307692307696
sI62
F0.23076923076923078
sI63
F0.019230769230769232
ss(I31
I31
tp1597
(dp1598
I38
F1.0
ss(I55
I50
tp1599
(dp1600
I40
F0.0078125
sI41
F0.00390625
sI48
F0.0078125
sI50
F0.03125
sI52
F0.29296875
sI54
F0.0078125
sI55
F0.32421875
sI58
F0.03125
sI60
F0.29296875
ss(I62
I48
tp1601
(dp1602
I48
F0.2647058823529412
sI60
F0.2647058823529412
sI69
F0.23529411764705882
sI62
F0.23529411764705882
ss(I53
I46
tp1603
(dp1604
I41
F0.04878048780487805
sI46
F0.2682926829268293
sI48
F0.0975609756097561
sI53
F0.4634146341463415
sI58
F0.04878048780487805
sI29
F0.04878048780487805
sI63
F0.024390243902439025
ss(I59
I55
tp1605
(dp1606
I60
F0.6666666666666666
sI70
F0.3333333333333333
ss(I26
I36
tp1607
(dp1608
I26
F0.5
sI38
F0.5
ss(I72
I77
tp1609
(dp1610
I66
F1.0
ss(I73
I65
tp1611
(dp1612
I70
F1.0
ss(I60
I48
tp1613
(dp1614
I64
F0.08333333333333333
sI52
F0.08333333333333333
sI67
F0.38095238095238093
sI60
F0.4166666666666667
sI55
F0.03571428571428571
ss(I17
I29
tp1615
(dp1616
I17
F0.38095238095238093
sI27
F0.11904761904761904
sI29
F0.38095238095238093
sI15
F0.11904761904761904
ss(I50
I69
tp1617
(dp1618
I64
F0.024054982817869417
sI67
F0.041237113402061855
sI69
F0.4639175257731959
sI38
F0.037800687285223365
sI57
F0.024054982817869417
sI62
F0.40893470790378006
ss(I60
I46
tp1619
(dp1620
I48
F0.3125
sI36
F0.16666666666666666
sI50
F0.1875
sI60
F0.14583333333333334
sI62
F0.1875
ss(I43
I46
tp1621
(dp1622
I41
F0.2727272727272727
sI50
F0.2727272727272727
sI43
F0.2727272727272727
sI29
F0.18181818181818182
ss(I41
I50
tp1623
(dp1624
I48
F0.2
sI41
F0.4
sI50
F0.2
sI55
F0.2
ss(I50
I67
tp1625
(dp1626
I57
F0.4
sI45
F0.2
sI61
F0.4
ss(I61
I47
tp1627
(dp1628
I60
F1.0
ss(I68
I62
tp1629
(dp1630
I64
F0.23076923076923078
sI66
F0.038461538461538464
sI67
F0.23076923076923078
sI58
F0.038461538461538464
sI60
F0.38461538461538464
sI63
F0.07692307692307693
ss(I24
I31
tp1631
(dp1632
I34
F0.5
sI22
F0.5
ss(I22
I24
tp1633
(dp1634
I24
F0.4444444444444444
sI36
F0.4444444444444444
sI22
F0.1111111111111111
ss(I63
I53
tp1635
(dp1636
I44
F0.14285714285714285
sI58
F0.2857142857142857
sI51
F0.14285714285714285
sI60
F0.2857142857142857
sI65
F0.14285714285714285
ss(I67
I67
tp1637
(dp1638
I65
F0.015957446808510637
sI67
F0.32092198581560283
sI36
F0.0425531914893617
sI69
F0.25354609929078015
sI70
F0.0017730496453900709
sI72
F0.015957446808510637
sI43
F0.06382978723404255
sI77
F0.0017730496453900709
sI48
F0.05673758865248227
sI55
F0.005319148936170213
sI58
F0.0035460992907801418
sI31
F0.06382978723404255
sI60
F0.09219858156028368
sI62
F0.047872340425531915
sI63
F0.014184397163120567
ss(I64
I79
tp1639
(dp1640
I64
F0.5
sI76
F0.5
ss(I70
I60
tp1641
(dp1642
I65
F0.19230769230769232
sI67
F0.07692307692307693
sI68
F0.2692307692307692
sI70
F0.038461538461538464
sI72
F0.038461538461538464
sI44
F0.038461538461538464
sI56
F0.038461538461538464
sI58
F0.038461538461538464
sI60
F0.2692307692307692
ss(I88
I84
tp1643
(dp1644
I91
F0.5
sI86
F0.5
ss(I50
I46
tp1645
(dp1646
I50
F0.23809523809523808
sI43
F0.14285714285714285
sI45
F0.3333333333333333
sI38
F0.23809523809523808
sI55
F0.047619047619047616
ss(I68
I77
tp1647
(dp1648
I63
F0.16666666666666666
sI66
F0.3333333333333333
sI67
F0.16666666666666666
sI58
F0.16666666666666666
sI79
F0.16666666666666666
ss(I69
I89
tp1649
(dp1650
I65
F0.25
sI81
F0.75
ss(I66
I77
tp1651
(dp1652
I58
F0.4
sI54
F0.2
sI66
F0.2
sI70
F0.2
ss(I41
I27
tp1653
(dp1654
I41
F0.5
sI29
F0.5
ss(I56
I66
tp1655
(dp1656
I56
F0.42857142857142855
sI60
F0.2857142857142857
sI63
F0.2857142857142857
ss(I80
I79
tp1657
(dp1658
I65
F0.25
sI67
F0.25
sI77
F0.25
sI79
F0.25
ss(I93
I67
tp1659
(dp1660
I69
F1.0
ss(I60
I65
tp1661
(dp1662
I64
F0.03550295857988166
sI65
F0.22485207100591717
sI66
F0.011834319526627219
sI67
F0.05325443786982249
sI68
F0.07692307692307693
sI70
F0.03550295857988166
sI72
F0.023668639053254437
sI75
F0.005917159763313609
sI48
F0.10059171597633136
sI53
F0.005917159763313609
sI55
F0.01775147928994083
sI36
F0.09467455621301775
sI58
F0.047337278106508875
sI60
F0.20118343195266272
sI61
F0.005917159763313609
sI62
F0.05325443786982249
sI63
F0.005917159763313609
ss(I24
I43
tp1663
(dp1664
I34
F0.5
sI22
F0.5
ss(I70
I79
tp1665
(dp1666
I80
F0.2
sI65
F0.2
sI68
F0.4
sI60
F0.2
ss(I51
I53
tp1667
(dp1668
I32
F0.19047619047619047
sI39
F0.047619047619047616
sI46
F0.047619047619047616
sI48
F0.19047619047619047
sI50
F0.14285714285714285
sI51
F0.19047619047619047
sI53
F0.19047619047619047
ss(I81
I69
tp1669
(dp1670
I64
F0.16666666666666666
sI81
F0.16666666666666666
sI82
F0.5
sI76
F0.16666666666666666
ss(I43
I41
tp1671
(dp1672
I36
F0.06896551724137931
sI39
F0.034482758620689655
sI41
F0.39655172413793105
sI45
F0.017241379310344827
sI24
F0.06896551724137931
sI27
F0.034482758620689655
sI29
F0.3793103448275862
ss(I95
I93
tp1673
(dp1674
I93
F1.0
ss(I78
I63
tp1675
(dp1676
I80
F0.5
sI68
F0.5
ss(I84
I86
tp1677
(dp1678
I82
F0.8333333333333334
sI70
F0.16666666666666666
ss(I46
I65
tp1679
(dp1680
I64
F0.03333333333333333
sI65
F0.3333333333333333
sI67
F0.13333333333333333
sI57
F0.03333333333333333
sI58
F0.3333333333333333
sI60
F0.13333333333333333
ss(I56
I49
tp1681
(dp1682
I56
F1.0
ss(I46
I36
tp1683
(dp1684
I45
F1.0
ss(I53
I64
tp1685
(dp1686
I57
F0.3684210526315789
sI67
F0.13157894736842105
sI45
F0.3684210526315789
sI55
F0.13157894736842105
ss(I62
I66
tp1687
(dp1688
I66
F0.18181818181818182
sI68
F0.045454545454545456
sI69
F0.045454545454545456
sI70
F0.09090909090909091
sI75
F0.09090909090909091
sI56
F0.045454545454545456
sI58
F0.13636363636363635
sI60
F0.09090909090909091
sI63
F0.2727272727272727
ss(I73
I74
tp1689
(dp1690
I72
F0.2
sI71
F0.8
ss(I36
I51
tp1691
(dp1692
I48
F0.5
sI36
F0.5
ss(I63
I66
tp1693
(dp1694
I65
F0.08333333333333333
sI46
F0.08333333333333333
sI51
F0.08333333333333333
sI58
F0.5833333333333334
sI60
F0.08333333333333333
sI62
F0.08333333333333333
ss(I96
I94
tp1695
(dp1696
I91
F1.0
ss(I29
I46
tp1697
(dp1698
I41
F1.0
ss(I62
I45
tp1699
(dp1700
I69
F0.5
sI62
F0.5
ss(I36
I32
tp1701
(dp1702
I48
F0.3333333333333333
sI36
F0.3333333333333333
sI39
F0.3333333333333333
ss(I43
I39
tp1703
(dp1704
I48
F1.0
ss(I67
I34
tp1705
(dp1706
I48
F0.5
sI36
F0.5
ss(I26
I38
tp1707
(dp1708
I33
F0.35
sI26
F0.2
sI45
F0.25
sI38
F0.2
ss(I32
I29
tp1709
(dp1710
I32
F0.4444444444444444
sI34
F0.1111111111111111
sI51
F0.4444444444444444
ss(I78
I80
tp1711
(dp1712
I80
F0.5
sI68
F0.5
ss(I76
I64
tp1713
(dp1714
I65
F0.5
sI77
F0.5
ss(I89
I88
tp1715
(dp1716
I81
F0.3333333333333333
sI91
F0.3333333333333333
sI69
F0.3333333333333333
ss(I38
I42
tp1717
(dp1718
I34
F1.0
ss(I62
I55
tp1719
(dp1720
I65
F0.01090909090909091
sI55
F0.29818181818181816
sI57
F0.01090909090909091
sI58
F0.29818181818181816
sI60
F0.07272727272727272
sI62
F0.3090909090909091
ss(I67
I72
tp1721
(dp1722
I67
F0.13043478260869565
sI36
F0.17391304347826086
sI72
F0.32608695652173914
sI48
F0.17391304347826086
sI60
F0.10869565217391304
sI62
F0.08695652173913043
ss(I73
I61
tp1723
(dp1724
I63
F1.0
ss(I65
I72
tp1725
(dp1726
I65
F0.2047244094488189
sI67
F0.08661417322834646
sI68
F0.007874015748031496
sI72
F0.33858267716535434
sI41
F0.12598425196850394
sI80
F0.007874015748031496
sI53
F0.12598425196850394
sI58
F0.015748031496062992
sI60
F0.07874015748031496
sI63
F0.007874015748031496
ss(I70
I55
tp1727
(dp1728
I65
F1.0
ss(I64
I55
tp1729
(dp1730
I48
F0.07692307692307693
sI65
F0.07692307692307693
sI60
F0.38461538461538464
sI62
F0.23076923076923078
sI55
F0.23076923076923078
ss(I50
I41
tp1731
(dp1732
I41
F0.4
sI50
F0.4
sI55
F0.2
ss(I74
I58
tp1733
(dp1734
I66
F0.2
sI75
F0.2
sI58
F0.2
sI70
F0.2
sI63
F0.2
ss(I48
I57
tp1735
(dp1736
I64
F0.5
sI52
F0.5
ss(I69
I66
tp1737
(dp1738
I72
F0.16666666666666666
sI74
F0.16666666666666666
sI77
F0.16666666666666666
sI70
F0.3333333333333333
sI71
F0.16666666666666666
ss(I66
I68
tp1739
(dp1740
I65
F0.14285714285714285
sI68
F0.07142857142857142
sI69
F0.07142857142857142
sI70
F0.07142857142857142
sI80
F0.07142857142857142
sI58
F0.35714285714285715
sI61
F0.07142857142857142
sI62
F0.14285714285714285
ss(I61
I45
tp1741
(dp1742
I64
F0.4375
sI52
F0.4375
sI45
F0.125
ss(I80
I70
tp1743
(dp1744
I82
F0.3333333333333333
sI67
F0.16666666666666666
sI70
F0.3333333333333333
sI79
F0.16666666666666666
ss(I70
I70
tp1745
(dp1746
I65
F0.13924050632911392
sI66
F0.0379746835443038
sI67
F0.05063291139240506
sI68
F0.02531645569620253
sI69
F0.05063291139240506
sI70
F0.25316455696202533
sI74
F0.02531645569620253
sI75
F0.02531645569620253
sI80
F0.012658227848101266
sI54
F0.02531645569620253
sI55
F0.012658227848101266
sI58
F0.06329113924050633
sI60
F0.06329113924050633
sI62
F0.05063291139240506
sI63
F0.16455696202531644
ss(I71
I76
tp1747
(dp1748
I68
F1.0
ss(I68
I82
tp1749
(dp1750
I66
F0.14285714285714285
sI67
F0.14285714285714285
sI70
F0.2857142857142857
sI79
F0.14285714285714285
sI82
F0.14285714285714285
sI58
F0.14285714285714285
ss(I51
I58
tp1751
(dp1752
I56
F0.14285714285714285
sI58
F0.14285714285714285
sI51
F0.14285714285714285
sI60
F0.42857142857142855
sI50
F0.14285714285714285
ss(I58
I67
tp1753
(dp1754
I65
F0.5
sI70
F0.5
ss(I82
I68
tp1755
(dp1756
I80
F0.25
sI81
F0.25
sI68
F0.25
sI69
F0.25
ss(I55
I67
tp1757
(dp1758
I65
F0.5
sI60
F0.25
sI62
F0.25
ss(I65
I54
tp1759
(dp1760
I60
F1.0
ss(I56
I56
tp1761
(dp1762
I64
F0.07207207207207207
sI66
F0.018018018018018018
sI68
F0.009009009009009009
sI73
F0.009009009009009009
sI51
F0.06306306306306306
sI53
F0.06306306306306306
sI56
F0.5495495495495496
sI58
F0.06306306306306306
sI60
F0.02702702702702703
sI61
F0.08108108108108109
sI63
F0.04504504504504504
ss(I62
I69
tp1763
(dp1764
I64
F0.014412416851441241
sI65
F0.005543237250554324
sI67
F0.018847006651884702
sI69
F0.3259423503325942
sI38
F0.14855875831485588
sI50
F0.15964523281596452
sI57
F0.013303769401330377
sI58
F0.0033259423503325942
sI61
F0.0022172949002217295
sI62
F0.3082039911308204
ss(I60
I77
tp1765
(dp1766
I58
F0.3333333333333333
sI66
F0.3333333333333333
sI63
F0.3333333333333333
ss(I57
I53
tp1767
(dp1768
I57
F0.5
sI68
F0.045454545454545456
sI45
F0.36363636363636365
sI61
F0.09090909090909091
ss(I47
I46
tp1769
(dp1770
I49
F0.5
sI61
F0.5
ss(I65
I64
tp1771
(dp1772
I64
F0.051470588235294115
sI65
F0.15441176470588236
sI34
F0.07352941176470588
sI67
F0.10294117647058823
sI68
F0.03676470588235294
sI69
F0.014705882352941176
sI45
F0.10294117647058823
sI46
F0.07352941176470588
sI79
F0.007352941176470588
sI58
F0.07352941176470588
sI53
F0.014705882352941176
sI55
F0.03676470588235294
sI57
F0.10294117647058823
sI90
F0.014705882352941176
sI60
F0.03676470588235294
sI61
F0.051470588235294115
sI62
F0.04411764705882353
sI85
F0.007352941176470588
ss(I64
I58
tp1773
(dp1774
I56
F0.42857142857142855
sI64
F0.14285714285714285
sI60
F0.14285714285714285
sI57
F0.14285714285714285
sI63
F0.14285714285714285
ss(I65
I53
tp1775
(dp1776
I72
F0.48484848484848486
sI65
F0.48484848484848486
sI53
F0.030303030303030304
ss(I55
I62
tp1777
(dp1778
I64
F0.011278195488721804
sI65
F0.011278195488721804
sI55
F0.33458646616541354
sI57
F0.011278195488721804
sI58
F0.29699248120300753
sI59
F0.0037593984962406013
sI60
F0.011278195488721804
sI62
F0.31954887218045114
ss(I29
I39
tp1779
(dp1780
I41
F0.5
sI29
F0.5
ss(I59
I59
tp1781
(dp1782
I55
F1.0
ss(I72
I65
tp1783
(dp1784
I65
F0.3007518796992481
sI67
F0.12030075187969924
sI70
F0.007518796992481203
sI72
F0.23308270676691728
sI41
F0.12030075187969924
sI53
F0.12030075187969924
sI60
F0.09022556390977443
sI63
F0.007518796992481203
ss(I64
I46
tp1785
(dp1786
I64
F0.5
sI57
F0.5
ss(I88
I91
tp1787
(dp1788
I64
F0.5
sI67
F0.5
ss(I60
I60
tp1789
(dp1790
I64
F0.02079002079002079
sI65
F0.09147609147609148
sI66
F0.004158004158004158
sI67
F0.13097713097713098
sI68
F0.016632016632016633
sI69
F0.02079002079002079
sI70
F0.012474012474012475
sI72
F0.02494802494802495
sI75
F0.002079002079002079
sI36
F0.0498960498960499
sI48
F0.06652806652806653
sI50
F0.079002079002079
sI52
F0.014553014553014554
sI55
F0.12266112266112267
sI57
F0.008316008316008316
sI58
F0.10395010395010396
sI59
F0.016632016632016633
sI60
F0.16216216216216217
sI62
F0.04573804573804574
sI63
F0.006237006237006237
ss(I52
I65
tp1791
(dp1792
I65
F0.5833333333333334
sI53
F0.4166666666666667
ss(I67
I43
tp1793
(dp1794
I67
F0.5
sI69
F0.5
ss(I37
I46
tp1795
(dp1796
I49
F0.5
sI37
F0.5
ss(I38
I45
tp1797
(dp1798
I38
F0.25
sI45
F0.25
sI46
F0.25
sI39
F0.25
ss(I62
I62
tp1799
(dp1800
I64
F0.0060396893874029335
sI65
F0.006902502157031924
sI67
F0.015530629853321829
sI68
F0.0025884383088869713
sI69
F0.23986194995685936
sI70
F0.004314063848144953
sI50
F0.12424503882657463
sI53
F0.004314063848144953
sI55
F0.07075064710957722
sI57
F0.008628127696289905
sI58
F0.07506471095772217
sI38
F0.11561691113028473
sI60
F0.013805004314063849
sI62
F0.30457290767903367
sI63
F0.007765314926660914
ss(I88
I65
tp1801
(dp1802
I64
F0.5
sI67
F0.5
ss(I69
I33
tp1803
(dp1804
I69
F0.75
sI62
F0.25
ss(I43
I50
tp1805
(dp1806
I41
F0.06896551724137931
sI43
F0.3103448275862069
sI45
F0.10344827586206896
sI48
F0.06896551724137931
sI50
F0.3103448275862069
sI51
F0.034482758620689655
sI53
F0.10344827586206896
ss(I67
I69
tp1807
(dp1808
I65
F0.007957559681697613
sI66
F0.010610079575596816
sI67
F0.35013262599469497
sI69
F0.40318302387267907
sI43
F0.09549071618037135
sI60
F0.005305039787798408
sI62
F0.03183023872679045
sI31
F0.09549071618037135
ss(I39
I40
tp1809
(dp1810
I38
F0.2
sI46
F0.4
sI39
F0.4
ss(I63
I63
tp1811
(dp1812
I65
F0.05714285714285714
sI66
F0.04285714285714286
sI67
F0.05714285714285714
sI70
F0.05714285714285714
sI72
F0.05714285714285714
sI51
F0.014285714285714285
sI56
F0.014285714285714285
sI58
F0.08571428571428572
sI60
F0.02857142857142857
sI62
F0.24285714285714285
sI63
F0.34285714285714286
ss(I48
I48
tp1813
(dp1814
I64
F0.1044776119402985
sI39
F0.14925373134328357
sI40
F0.029850746268656716
sI41
F0.13432835820895522
sI46
F0.05970149253731343
sI48
F0.16417910447761194
sI50
F0.029850746268656716
sI52
F0.1044776119402985
sI53
F0.1044776119402985
sI27
F0.11940298507462686
ss(I69
I75
tp1815
(dp1816
I74
F0.5
sI69
F0.5
ss(I49
I61
tp1817
(dp1818
I56
F0.2
sI50
F0.4
sI62
F0.4
ss(I70
I86
tp1819
(dp1820
I96
F0.6666666666666666
sI88
F0.3333333333333333
ss(I43
I67
tp1821
(dp1822
I67
F0.3333333333333333
sI69
F0.5
sI62
F0.16666666666666666
ss(I50
I58
tp1823
(dp1824
I60
F0.3333333333333333
sI52
F0.3333333333333333
sI55
F0.3333333333333333
ss(I71
I69
tp1825
(dp1826
I72
F0.1111111111111111
sI69
F0.8888888888888888
ss(I58
I74
tp1827
(dp1828
I65
F0.5
sI60
F0.25
sI62
F0.25
ss(I61
I85
tp1829
(dp1830
I64
F0.5
sI69
F0.5
ss(I56
I63
tp1831
(dp1832
I51
F0.2857142857142857
sI60
F0.14285714285714285
sI61
F0.14285714285714285
sI63
F0.42857142857142855
ss(I53
I57
tp1833
(dp1834
I60
F0.8823529411764706
sI55
F0.11764705882352941
ss(I60
I68
tp1835
(dp1836
I65
F0.1724137931034483
sI67
F0.10344827586206896
sI68
F0.13793103448275862
sI70
F0.1724137931034483
sI72
F0.034482758620689655
sI75
F0.034482758620689655
sI58
F0.034482758620689655
sI60
F0.13793103448275862
sI62
F0.1724137931034483
ss(I57
I62
tp1837
(dp1838
I64
F0.02702702702702703
sI65
F0.08108108108108109
sI69
F0.02702702702702703
sI70
F0.08108108108108109
sI45
F0.21621621621621623
sI55
F0.08108108108108109
sI57
F0.16216216216216217
sI58
F0.08108108108108109
sI62
F0.1891891891891892
sI63
F0.05405405405405406
ss(I54
I54
tp1839
(dp1840
I66
F0.2
sI68
F0.1
sI70
F0.2
sI80
F0.1
sI54
F0.2
sI58
F0.2
ss(I58
I61
tp1841
(dp1842
I66
F0.14285714285714285
sI54
F0.07142857142857142
sI56
F0.2857142857142857
sI58
F0.14285714285714285
sI60
F0.07142857142857142
sI61
F0.2857142857142857
ss(I55
I55
tp1843
(dp1844
I65
F0.003896103896103896
sI50
F0.10779220779220779
sI52
F0.10909090909090909
sI55
F0.32727272727272727
sI57
F0.003896103896103896
sI58
F0.21038961038961038
sI60
F0.11688311688311688
sI62
F0.12077922077922078
ss(I61
I64
tp1845
(dp1846
I44
F0.09090909090909091
sI49
F0.09090909090909091
sI56
F0.5454545454545454
sI58
F0.09090909090909091
sI60
F0.09090909090909091
sI63
F0.09090909090909091
ss(I62
I86
tp1847
(dp1848
I96
F0.6666666666666666
sI88
F0.3333333333333333
ss(I49
I46
tp1849
(dp1850
I49
F0.5
sI37
F0.5
ss(I72
I72
tp1851
(dp1852
I65
F0.22935779816513763
sI67
F0.12844036697247707
sI72
F0.24770642201834864
sI41
F0.14678899082568808
sI53
F0.14678899082568808
sI60
F0.10091743119266056
ss(I60
I59
tp1853
(dp1854
I60
F1.0
ss(I34
I34
tp1855
(dp1856
I32
F0.01098901098901099
sI36
F0.02197802197802198
sI41
F0.01098901098901099
sI43
F0.02197802197802198
sI48
F0.02197802197802198
sI29
F0.02197802197802198
sI31
F0.8901098901098901
ss(I97
I64
tp1857
(dp1858
I86
F1.0
ss(I53
I51
tp1859
(dp1860
I56
F0.3333333333333333
sI58
F0.3333333333333333
sI53
F0.16666666666666666
sI29
F0.16666666666666666
ss(I61
I58
tp1861
(dp1862
I64
F0.13636363636363635
sI65
F0.045454545454545456
sI66
F0.045454545454545456
sI56
F0.5
sI60
F0.09090909090909091
sI61
F0.09090909090909091
sI63
F0.09090909090909091
ss(I77
I64
tp1863
(dp1864
I67
F0.5
sI79
F0.5
ss(I74
I66
tp1865
(dp1866
I66
F0.1111111111111111
sI70
F0.1111111111111111
sI73
F0.4444444444444444
sI75
F0.1111111111111111
sI58
F0.1111111111111111
sI63
F0.1111111111111111
ss(I38
I36
tp1867
(dp1868
I26
F0.1951219512195122
sI36
F0.6097560975609756
sI38
F0.1951219512195122
ss(I62
I33
tp1869
(dp1870
I69
F0.5
sI62
F0.5
ss(I54
I66
tp1871
(dp1872
I66
F0.2
sI68
F0.1
sI70
F0.2
sI80
F0.1
sI54
F0.2
sI58
F0.2
ss(I43
I43
tp1873
(dp1874
I36
F0.08333333333333333
sI41
F0.05555555555555555
sI43
F0.25
sI45
F0.08333333333333333
sI48
F0.25
sI50
F0.16666666666666666
sI51
F0.027777777777777776
sI53
F0.08333333333333333
ss(I78
I68
tp1875
(dp1876
I80
F0.5
sI68
F0.5
ss(I76
I76
tp1877
(dp1878
I65
F0.5
sI77
F0.5
ss(I24
I26
tp1879
(dp1880
I34
F0.6666666666666666
sI22
F0.3333333333333333
ss(I48
I55
tp1881
(dp1882
I40
F0.25
sI48
F0.25
sI53
F0.5
ss(I38
I62
tp1883
(dp1884
I64
F0.026717557251908396
sI57
F0.026717557251908396
sI67
F0.04580152671755725
sI69
F0.48091603053435117
sI62
F0.4198473282442748
ss(I15
I34
tp1885
(dp1886
I27
F0.5
sI15
F0.5
ss(I49
I54
tp1887
(dp1888
I61
F1.0
ss(I97
I61
tp1889
(dp1890
I86
F1.0
ss(I70
I59
tp1891
(dp1892
I65
F0.3333333333333333
sI53
F0.3333333333333333
sI46
F0.3333333333333333
ss(I48
I69
tp1893
(dp1894
I64
F0.5
sI52
F0.5
ss(I64
I53
tp1895
(dp1896
I65
F0.5833333333333334
sI53
F0.4166666666666667
ss(I68
I64
tp1897
(dp1898
I64
F0.16666666666666666
sI73
F0.3333333333333333
sI66
F0.16666666666666666
sI68
F0.16666666666666666
sI70
F0.16666666666666666
ss(I64
I96
tp1899
(dp1900
I65
F0.5
sI93
F0.5
ss(I45
I66
tp1901
(dp1902
I57
F0.5
sI45
F0.5
ss(I46
I57
tp1903
(dp1904
I48
F0.5
sI60
F0.5
ss(I29
I31
tp1905
(dp1906
I32
F0.02040816326530612
sI41
F0.4897959183673469
sI29
F0.4897959183673469
ss(I60
I67
tp1907
(dp1908
I65
F0.03773584905660377
sI67
F0.28773584905660377
sI36
F0.11320754716981132
sI69
F0.04716981132075472
sI70
F0.0047169811320754715
sI72
F0.04245283018867924
sI48
F0.1509433962264151
sI55
F0.014150943396226415
sI58
F0.009433962264150943
sI60
F0.24528301886792453
sI62
F0.04716981132075472
ss(I82
I80
tp1909
(dp1910
I68
F0.16666666666666666
sI69
F0.16666666666666666
sI72
F0.16666666666666666
sI80
F0.16666666666666666
sI81
F0.16666666666666666
sI84
F0.16666666666666666
ss(I85
I69
tp1911
(dp1912
I86
F1.0
ss(I56
I44
tp1913
(dp1914
I56
F0.25
sI67
F0.25
sI66
F0.25
sI51
F0.25
ss(I27
I41
tp1915
(dp1916
I27
F0.5
sI39
F0.5
ss(I65
I48
tp1917
(dp1918
I41
F0.5
sI53
F0.5
ss(I38
I69
tp1919
(dp1920
I64
F0.026717557251908396
sI57
F0.026717557251908396
sI67
F0.04580152671755725
sI69
F0.48091603053435117
sI62
F0.4198473282442748
ss(I73
I71
tp1921
(dp1922
I68
F1.0
ss(I86
I67
tp1923
(dp1924
I65
F1.0
ss(I65
I66
tp1925
(dp1926
I65
F0.04
sI66
F0.16
sI68
F0.04
sI70
F0.08
sI75
F0.08
sI56
F0.04
sI58
F0.16
sI60
F0.08
sI62
F0.04
sI63
F0.28
ss(I58
I46
tp1927
(dp1928
I65
F0.47619047619047616
sI58
F0.5
sI53
F0.023809523809523808
ss(I41
I46
tp1929
(dp1930
I48
F0.5
sI41
F0.5
ss(I65
I57
tp1931
(dp1932
I65
F0.2714285714285714
sI34
F0.14285714285714285
sI70
F0.05714285714285714
sI46
F0.14285714285714285
sI55
F0.04285714285714286
sI57
F0.07142857142857142
sI58
F0.2
sI62
F0.04285714285714286
sI63
F0.02857142857142857
ss(I61
I51
tp1933
(dp1934
I56
F0.5
sI58
F0.25
sI63
F0.25
ss(I74
I77
tp1935
(dp1936
I72
F0.5
sI60
F0.5
ss(I66
I62
tp1937
(dp1938
I65
F0.3076923076923077
sI58
F0.23076923076923078
sI74
F0.07692307692307693
sI70
F0.07692307692307693
sI62
F0.3076923076923077
ss(I65
I60
tp1939
(dp1940
I65
F0.35714285714285715
sI67
F0.047619047619047616
sI68
F0.07142857142857142
sI70
F0.015873015873015872
sI72
F0.05555555555555555
sI41
F0.06349206349206349
sI53
F0.07142857142857142
sI58
F0.05555555555555555
sI60
F0.18253968253968253
sI62
F0.06349206349206349
sI63
F0.015873015873015872
ss(I67
I63
tp1941
(dp1942
I67
F0.3076923076923077
sI69
F0.07692307692307693
sI62
F0.3076923076923077
sI63
F0.3076923076923077
ss(I41
I48
tp1943
(dp1944
I48
F0.21052631578947367
sI41
F0.42105263157894735
sI50
F0.21052631578947367
sI53
F0.15789473684210525
ss(I69
I63
tp1945
(dp1946
I74
F0.5
sI69
F0.5
ss(I79
I71
tp1947
(dp1948
I65
F0.3333333333333333
sI62
F0.3333333333333333
sI70
F0.3333333333333333
ss(I68
I56
tp1949
(dp1950
I72
F0.25
sI66
F0.25
sI68
F0.25
sI63
F0.25
ss(I48
I46
tp1951
(dp1952
I36
F0.047619047619047616
sI46
F0.047619047619047616
sI48
F0.2619047619047619
sI50
F0.21428571428571427
sI53
F0.047619047619047616
sI60
F0.16666666666666666
sI62
F0.21428571428571427
ss(I86
I84
tp1953
(dp1954
I88
F1.0
ss(I62
I50
tp1955
(dp1956
I64
F0.00816326530612245
sI69
F0.4775510204081633
sI38
F0.012244897959183673
sI50
F0.0163265306122449
sI52
F0.00816326530612245
sI62
F0.4775510204081633
ss(I69
I61
tp1957
(dp1958
I65
F0.3181818181818182
sI86
F0.045454545454545456
sI62
F0.3181818181818182
sI70
F0.3181818181818182
ss(I49
I47
tp1959
(dp1960
I60
F1.0
ss(I64
I65
tp1961
(dp1962
I64
F0.03333333333333333
sI65
F0.2833333333333333
sI68
F0.016666666666666666
sI69
F0.15
sI70
F0.08333333333333333
sI97
F0.016666666666666666
sI72
F0.016666666666666666
sI74
F0.016666666666666666
sI75
F0.016666666666666666
sI53
F0.08333333333333333
sI86
F0.03333333333333333
sI57
F0.1
sI62
F0.15
ss(I26
I27
tp1963
(dp1964
I24
F0.2
sI27
F0.4
sI39
F0.4
ss(I41
I65
tp1965
(dp1966
I72
F0.3333333333333333
sI65
F0.3333333333333333
sI67
F0.16666666666666666
sI60
F0.16666666666666666
ss(I68
I79
tp1967
(dp1968
I65
F0.25
sI67
F0.25
sI77
F0.25
sI79
F0.25
ss(I69
I71
tp1969
(dp1970
I81
F0.07692307692307693
sI67
F0.7692307692307693
sI69
F0.07692307692307693
sI62
F0.07692307692307693
ss(I66
I75
tp1971
(dp1972
I69
F0.5
sI70
F0.5
ss(I67
I88
tp1973
(dp1974
I89
F1.0
ss(I80
I65
tp1975
(dp1976
I66
F0.25
sI67
F0.25
sI78
F0.25
sI79
F0.25
ss(I53
I56
tp1977
(dp1978
I56
F0.48148148148148145
sI51
F0.14814814814814814
sI53
F0.2222222222222222
sI55
F0.14814814814814814
ss(I70
I77
tp1979
(dp1980
I58
F0.25
sI54
F0.25
sI66
F0.25
sI70
F0.25
ss(I58
I70
tp1981
(dp1982
I65
F0.125
sI66
F0.125
sI68
F0.041666666666666664
sI70
F0.25
sI75
F0.041666666666666664
sI80
F0.041666666666666664
sI54
F0.08333333333333333
sI58
F0.125
sI62
F0.041666666666666664
sI63
F0.125
ss(I82
I75
tp1983
(dp1984
I72
F0.5
sI84
F0.5
ss(I52
I48
tp1985
(dp1986
I50
F0.25
sI67
F0.25
sI62
F0.25
sI55
F0.25
sssS'mode'
p1987
I1
sS'before'
p1988
I0
sb.