ccopy_reg
_reconstructor
p0
(cmarkov_sequences
Markov
p1
c__builtin__
object
p2
Ntp3
Rp4
(dp5
S'after'
p6
I1
sS'state_dict'
p7
(dp8
((I74
tp9
(I69
tp10
tp11
(dp12
I65
F0.16666666666666666
sI74
F0.3333333333333333
sI77
F0.16666666666666666
sI69
F0.3333333333333333
ss((I32
tp13
(I36
tp14
tp15
(dp16
I34
F1.0
ss((I53
tp17
(I57
tp18
tp19
(dp20
I58
F0.5
sI62
F0.5
ss((I72
tp21
(I84
tp22
tp23
(dp24
I82
F0.5
sI70
F0.5
ss((I62
tp25
(I48
tp26
tp27
(dp28
I64
F0.23333333333333334
sI52
F0.23333333333333334
sI69
F0.26666666666666666
sI62
F0.26666666666666666
ss((I36
tp29
(I15
tp30
tp31
(dp32
I24
F0.25
sI27
F0.25
sI36
F0.25
sI15
F0.25
ss((I57
tp33
(I55
tp34
tp35
(dp36
I65
F0.25
sI55
F0.25
sI62
F0.25
sI57
F0.25
ss((I79
tp37
(I67
tp38
tp39
(dp40
I80
F0.16666666666666666
sI65
F0.3333333333333333
sI68
F0.16666666666666666
sI77
F0.3333333333333333
ss((I69
tp41
(I60
tp42
tp43
(dp44
I67
F0.1864406779661017
sI36
F0.13559322033898305
sI69
F0.1694915254237288
sI72
F0.01694915254237288
sI48
F0.13559322033898305
sI55
F0.01694915254237288
sI60
F0.1694915254237288
sI62
F0.1694915254237288
ss((I84
tp45
(I88
tp46
tp47
(dp48
I86
F1.0
ss((I90
tp49
(I64
tp50
tp51
(dp52
I65
F0.3333333333333333
sI69
F0.3333333333333333
sI62
F0.3333333333333333
ss((I65
tp53
(I62
tp54
tp55
(dp56
I64
F0.18253968253968253
sI65
F0.06349206349206349
sI66
F0.031746031746031744
sI67
F0.09523809523809523
sI70
F0.03968253968253968
sI75
F0.015873015873015872
sI52
F0.1111111111111111
sI55
F0.023809523809523808
sI57
F0.023809523809523808
sI58
F0.12698412698412698
sI60
F0.06349206349206349
sI62
F0.06349206349206349
sI63
F0.15873015873015872
ss((I45
tp57
(I60
tp58
tp59
(dp60
I58
F0.5
sI46
F0.5
ss((I72
tp61
(I68
tp62
tp63
(dp64
I64
F0.2
sI71
F0.2
sI67
F0.2
sI60
F0.2
sI63
F0.2
ss((I53
tp65
(I54
tp66
tp67
(dp68
I53
F1.0
ss((I49
tp69
(I29
tp70
tp71
(dp72
I34
F0.5
sI46
F0.5
ss((I79
tp73
(I75
tp74
tp75
(dp76
I71
F1.0
ss((I58
tp77
(I64
tp78
tp79
(dp80
I64
F0.14705882352941177
sI65
F0.14705882352941177
sI69
F0.014705882352941176
sI33
F0.14705882352941177
sI45
F0.14705882352941177
sI56
F0.04411764705882353
sI57
F0.14705882352941177
sI58
F0.14705882352941177
sI60
F0.014705882352941176
sI61
F0.014705882352941176
sI62
F0.014705882352941176
sI63
F0.014705882352941176
ss((I34
tp81
(I36
tp82
tp83
(dp84
I34
F0.4819277108433735
sI36
F0.5
sI39
F0.018072289156626505
ss((I65
tp85
(I72
tp86
tp87
(dp88
I65
F0.29545454545454547
sI70
F0.022727272727272728
sI72
F0.2840909090909091
sI41
F0.18181818181818182
sI82
F0.011363636363636364
sI53
F0.18181818181818182
sI60
F0.011363636363636364
sI62
F0.011363636363636364
ss((I45
tp89
(I48
tp90
tp91
(dp92
I50
F0.42857142857142855
sI58
F0.2857142857142857
sI46
F0.2857142857142857
ss((I66
tp93
(I44
tp94
tp95
(dp96
I56
F1.0
ss((I94
tp97
(I97
tp98
tp99
(dp100
I86
F1.0
ss((I39
tp101
(I32
tp102
tp103
(dp104
I34
F0.3333333333333333
sI36
F0.6666666666666666
ss((I60
tp105
(I54
tp106
tp107
(dp108
I65
F1.0
ss((I55
tp109
(I60
tp110
tp111
(dp112
I64
F0.0231023102310231
sI67
F0.009900990099009901
sI68
F0.009900990099009901
sI50
F0.15181518151815182
sI52
F0.1485148514851485
sI55
F0.297029702970297
sI58
F0.15181518151815182
sI60
F0.19471947194719472
sI62
F0.013201320132013201
ss((I71
tp113
(I67
tp114
tp115
(dp116
I69
F1.0
ss((I65
tp117
(I76
tp118
tp119
(dp120
I64
F0.5
sI76
F0.5
ss((I49
tp121
(I58
tp122
tp123
(dp124
I49
F0.5
sI59
F0.5
ss((I85
tp125
(I88
tp126
tp127
(dp128
I86
F1.0
ss((I57
tp129
(I62
tp130
tp131
(dp132
I64
F0.0196078431372549
sI65
F0.1568627450980392
sI69
F0.1568627450980392
sI38
F0.13725490196078433
sI45
F0.0196078431372549
sI50
F0.13725490196078433
sI55
F0.058823529411764705
sI57
F0.11764705882352941
sI62
F0.19607843137254902
ss((I62
tp133
(I49
tp134
tp135
(dp136
I64
F0.4375
sI50
F0.125
sI52
F0.4375
ss((I66
tp137
(I62
tp138
tp139
(dp140
I64
F0.125
sI68
F0.125
sI56
F0.125
sI58
F0.125
sI60
F0.25
sI63
F0.25
ss((I41
tp141
(I29
tp142
tp143
(dp144
I41
F0.4140625
sI43
F0.0859375
sI29
F0.4140625
sI31
F0.0859375
ss((I39
tp145
(I46
tp146
tp147
(dp148
I27
F0.13793103448275862
sI51
F0.034482758620689655
sI46
F0.3448275862068966
sI39
F0.4827586206896552
ss((I74
tp149
(I66
tp150
tp151
(dp152
I69
F0.5
sI70
F0.5
ss((I80
tp153
(I63
tp154
tp155
(dp156
I66
F0.5
sI78
F0.5
ss((I60
tp157
(I74
tp158
tp159
(dp160
I65
F0.4
sI58
F0.2
sI62
F0.2
sI70
F0.2
ss((I36
tp161
(I52
tp162
tp163
(dp164
I43
F0.5
sI36
F0.5
ss((I59
tp165
(I63
tp166
tp167
(dp168
I65
F1.0
ss((I43
tp169
(I46
tp170
tp171
(dp172
I50
F0.23076923076923078
sI43
F0.23076923076923078
sI34
F0.15384615384615385
sI46
F0.38461538461538464
ss((I90
tp173
(I93
tp174
tp175
(dp176
I91
F1.0
ss((I42
tp177
(I39
tp178
tp179
(dp180
I46
F1.0
ss((I67
tp181
(I43
tp182
tp183
(dp184
I67
F0.5
sI69
F0.5
ss((I22
tp185
(I15
tp186
tp187
(dp188
I27
F0.5
sI15
F0.5
ss((I57
tp189
(I48
tp190
tp191
(dp192
I58
F0.5
sI46
F0.5
ss((I34
tp193
(I41
tp194
tp195
(dp196
I33
F0.08
sI34
F0.2
sI39
F0.08
sI41
F0.24
sI46
F0.16
sI29
F0.24
ss((I75
tp197
(I68
tp198
tp199
(dp200
I64
F0.16666666666666666
sI67
F0.3333333333333333
sI60
F0.16666666666666666
sI77
F0.16666666666666666
sI79
F0.16666666666666666
ss((I56
tp201
(I51
tp202
tp203
(dp204
I51
F0.09090909090909091
sI53
F0.18181818181818182
sI56
F0.22727272727272727
sI58
F0.18181818181818182
sI60
F0.22727272727272727
sI61
F0.09090909090909091
ss((I73
tp205
(I67
tp206
tp207
(dp208
I72
F0.3333333333333333
sI75
F0.3333333333333333
sI68
F0.3333333333333333
ss((I62
tp209
(I81
tp210
tp211
(dp212
I64
F0.2
sI65
F0.4
sI67
F0.2
sI77
F0.2
ss((I74
tp213
(I55
tp214
tp215
(dp216
I60
F1.0
ss((I46
tp217
(I60
tp218
tp219
(dp220
I51
F1.0
ss((I60
tp221
(I47
tp222
tp223
(dp224
I49
F0.5
sI61
F0.5
ss((I54
tp225
(I54
tp226
tp227
(dp228
I66
F0.25
sI54
F0.25
sI58
F0.25
sI70
F0.25
ss((I62
tp229
(I71
tp230
tp231
(dp232
I72
F0.25
sI74
F0.25
sI69
F0.25
sI79
F0.25
ss((I71
tp233
(I74
tp234
tp235
(dp236
I73
F1.0
ss((I46
tp237
(I34
tp238
tp239
(dp240
I41
F0.1
sI45
F0.2
sI53
F0.5
sI33
F0.2
ss((I27
tp241
(I27
tp242
tp243
(dp244
I34
F0.06666666666666667
sI38
F0.03333333333333333
sI39
F0.24166666666666667
sI46
F0.03333333333333333
sI15
F0.15833333333333333
sI22
F0.03333333333333333
sI26
F0.03333333333333333
sI27
F0.4
ss((I31
tp245
(I46
tp246
tp247
(dp248
I34
F0.5
sI46
F0.5
ss((I36
tp249
(I29
tp250
tp251
(dp252
I34
F0.2727272727272727
sI43
F0.36363636363636365
sI31
F0.36363636363636365
ss((I45
tp253
(I67
tp254
tp255
(dp256
I66
F0.25
sI50
F0.25
sI62
F0.25
sI69
F0.25
ss((I41
tp257
(I36
tp258
tp259
(dp260
I72
F0.5
sI65
F0.5
ss((I84
tp261
(I76
tp262
tp263
(dp264
I74
F0.5
sI86
F0.5
ss((I38
tp265
(I31
tp266
tp267
(dp268
I36
F0.1702127659574468
sI38
F0.2765957446808511
sI31
F0.5531914893617021
ss((I36
tp269
(I34
tp270
tp271
(dp272
I32
F0.03333333333333333
sI34
F0.03333333333333333
sI67
F0.13333333333333333
sI36
F0.1
sI37
F0.03333333333333333
sI46
F0.03333333333333333
sI48
F0.03333333333333333
sI24
F0.06666666666666667
sI60
F0.13333333333333333
sI31
F0.4
ss((I46
tp273
(I50
tp274
tp275
(dp276
I39
F0.05714285714285714
sI45
F0.11428571428571428
sI46
F0.11428571428571428
sI48
F0.2571428571428571
sI50
F0.11428571428571428
sI51
F0.02857142857142857
sI53
F0.05714285714285714
sI60
F0.2571428571428571
ss((I67
tp277
(I44
tp278
tp279
(dp280
I56
F1.0
ss((I53
tp281
(I56
tp282
tp283
(dp284
I56
F0.5384615384615384
sI53
F0.46153846153846156
ss((I69
tp285
(I64
tp286
tp287
(dp288
I65
F0.25
sI89
F0.125
sI69
F0.25
sI62
F0.25
sI93
F0.125
ss((I67
tp289
(I64
tp290
tp291
(dp292
I65
F0.35
sI66
F0.1
sI70
F0.125
sI77
F0.025
sI53
F0.125
sI60
F0.15
sI62
F0.125
ss((I39
tp293
(I43
tp294
tp295
(dp296
I27
F0.3333333333333333
sI41
F0.16666666666666666
sI51
F0.16666666666666666
sI39
F0.3333333333333333
ss((I61
tp297
(I52
tp298
tp299
(dp300
I50
F0.5
sI62
F0.5
ss((I27
tp301
(I29
tp302
tp303
(dp304
I39
F0.14743589743589744
sI41
F0.14743589743589744
sI43
F0.01282051282051282
sI15
F0.09615384615384616
sI17
F0.09615384615384616
sI27
F0.24358974358974358
sI29
F0.24358974358974358
sI31
F0.01282051282051282
ss((I64
tp305
(I49
tp306
tp307
(dp308
I50
F0.5
sI62
F0.5
ss((I81
tp309
(I88
tp310
tp311
(dp312
I89
F1.0
ss((I70
tp313
(I58
tp314
tp315
(dp316
I65
F0.20833333333333334
sI66
F0.0625
sI68
F0.020833333333333332
sI70
F0.2708333333333333
sI74
F0.020833333333333332
sI75
F0.020833333333333332
sI80
F0.020833333333333332
sI53
F0.020833333333333332
sI54
F0.041666666666666664
sI58
F0.125
sI62
F0.08333333333333333
sI63
F0.10416666666666667
ss((I89
tp317
(I89
tp318
tp319
(dp320
I88
F1.0
ss((I33
tp321
(I34
tp322
tp323
(dp324
I41
F1.0
ss((I73
tp325
(I62
tp326
tp327
(dp328
I75
F1.0
ss((I46
tp329
(I40
tp330
tp331
(dp332
I40
F0.25
sI48
F0.25
sI46
F0.25
sI39
F0.25
ss((I91
tp333
(I62
tp334
tp335
(dp336
I96
F1.0
ss((I70
tp337
(I66
tp338
tp339
(dp340
I65
F0.1
sI66
F0.1
sI68
F0.05
sI69
F0.1
sI70
F0.15
sI74
F0.05
sI80
F0.05
sI54
F0.1
sI58
F0.2
sI62
F0.1
ss((I80
tp341
(I53
tp342
tp343
(dp344
I82
F0.5
sI77
F0.5
ss((I73
tp345
(I77
tp346
tp347
(dp348
I75
F1.0
ss((I77
tp349
(I66
tp350
tp351
(dp352
I69
F1.0
ss((I73
tp353
(I70
tp354
tp355
(dp356
I78
F1.0
ss((I74
tp357
(I62
tp358
tp359
(dp360
I66
F0.2
sI75
F0.2
sI58
F0.2
sI70
F0.2
sI63
F0.2
ss((I62
tp361
(I85
tp362
tp363
(dp364
I64
F0.3333333333333333
sI67
F0.3333333333333333
sI86
F0.3333333333333333
ss((I63
tp365
(I48
tp366
tp367
(dp368
I68
F1.0
ss((I68
tp369
(I63
tp370
tp371
(dp372
I64
F0.09090909090909091
sI65
F0.09090909090909091
sI66
F0.09090909090909091
sI68
F0.09090909090909091
sI72
F0.09090909090909091
sI73
F0.09090909090909091
sI78
F0.09090909090909091
sI58
F0.09090909090909091
sI60
F0.18181818181818182
sI62
F0.09090909090909091
ss((I85
tp373
(I90
tp374
tp375
(dp376
I88
F1.0
ss((I29
tp377
(I34
tp378
tp379
(dp380
I24
F0.34782608695652173
sI34
F0.08695652173913043
sI43
F0.08695652173913043
sI36
F0.34782608695652173
sI31
F0.13043478260869565
ss((I67
tp381
(I38
tp382
tp383
(dp384
I67
F0.5
sI69
F0.5
ss((I67
tp385
(I58
tp386
tp387
(dp388
I65
F0.25
sI34
F0.25
sI58
F0.25
sI46
F0.25
ss((I46
tp389
(I46
tp390
tp391
(dp392
I33
F0.03636363636363636
sI34
F0.07272727272727272
sI39
F0.23636363636363636
sI45
F0.03636363636363636
sI46
F0.36363636363636365
sI48
F0.03636363636363636
sI51
F0.01818181818181818
sI53
F0.2
ss((I59
tp393
(I60
tp394
tp395
(dp396
I59
F0.5
sI60
F0.5
ss((I53
tp397
(I52
tp398
tp399
(dp400
I65
F0.125
sI67
F0.4375
sI55
F0.4375
ss((I66
tp401
(I70
tp402
tp403
(dp404
I65
F0.10526315789473684
sI66
F0.10526315789473684
sI68
F0.05263157894736842
sI70
F0.15789473684210525
sI74
F0.05263157894736842
sI77
F0.05263157894736842
sI54
F0.10526315789473684
sI58
F0.15789473684210525
sI60
F0.05263157894736842
sI62
F0.10526315789473684
sI63
F0.05263157894736842
ss((I72
tp405
(I53
tp406
tp407
(dp408
I72
F0.47058823529411764
sI65
F0.47058823529411764
sI82
F0.029411764705882353
sI77
F0.029411764705882353
ss((I50
tp409
(I48
tp410
tp411
(dp412
I64
F0.28
sI41
F0.16
sI48
F0.08
sI50
F0.08
sI51
F0.12
sI52
F0.28
ss((I68
tp413
(I79
tp414
tp415
(dp416
I65
F0.2
sI82
F0.2
sI62
F0.2
sI70
F0.4
ss((I63
tp417
(I58
tp418
tp419
(dp420
I64
F0.020833333333333332
sI65
F0.125
sI66
F0.08333333333333333
sI68
F0.03125
sI70
F0.10416666666666667
sI74
F0.010416666666666666
sI53
F0.03125
sI54
F0.03125
sI56
F0.03125
sI57
F0.16666666666666666
sI58
F0.125
sI60
F0.03125
sI61
F0.020833333333333332
sI62
F0.07291666666666667
sI63
F0.11458333333333333
ss((I85
tp421
(I81
tp422
tp423
(dp424
I81
F1.0
ss((I15
tp425
(I22
tp426
tp427
(dp428
I27
F0.5
sI15
F0.5
ss((I61
tp429
(I45
tp430
tp431
(dp432
I57
F0.5
sI45
F0.5
ss((I74
tp433
(I77
tp434
tp435
(dp436
I64
F0.5
sI76
F0.5
ss((I45
tp437
(I62
tp438
tp439
(dp440
I64
F0.35294117647058826
sI57
F0.47058823529411764
sI45
F0.058823529411764705
sI61
F0.11764705882352941
ss((I51
tp441
(I39
tp442
tp443
(dp444
I51
F0.5
sI39
F0.5
ss((I81
tp445
(I70
tp446
tp447
(dp448
I69
F1.0
ss((I45
tp449
(I36
tp450
tp451
(dp452
I46
F1.0
ss((I56
tp453
(I44
tp454
tp455
(dp456
I56
F1.0
ss((I22
tp457
(I31
tp458
tp459
(dp460
I24
F0.5
sI36
F0.5
ss((I74
tp461
(I58
tp462
tp463
(dp464
I66
F0.2
sI75
F0.2
sI58
F0.2
sI70
F0.2
sI63
F0.2
ss((I51
tp465
(I61
tp466
tp467
(dp468
I56
F1.0
ss((I77
tp469
(I64
tp470
tp471
(dp472
I64
F0.5
sI76
F0.5
ss((I67
tp473
(I52
tp474
tp475
(dp476
I65
F0.5
sI53
F0.5
ss((I49
tp477
(I41
tp478
tp479
(dp480
I34
F0.5
sI46
F0.5
ss((I41
tp481
(I24
tp482
tp483
(dp484
I34
F1.0
ss((I74
tp485
(I70
tp486
tp487
(dp488
I69
F0.2
sI70
F0.2
sI72
F0.2
sI74
F0.2
sI75
F0.1
sI63
F0.1
ss((I65
tp489
(I50
tp490
tp491
(dp492
I64
F0.5
sI52
F0.5
ss((I72
tp493
(I56
tp494
tp495
(dp496
I64
F0.3333333333333333
sI73
F0.3333333333333333
sI68
F0.3333333333333333
ss((I77
tp497
(I63
tp498
tp499
(dp500
I75
F1.0
ss((I58
tp501
(I72
tp502
tp503
(dp504
I60
F0.2
sI68
F0.2
sI65
F0.4
sI63
F0.2
ss((I77
tp505
(I80
tp506
tp507
(dp508
I67
F0.5
sI79
F0.5
ss((I76
tp509
(I69
tp510
tp511
(dp512
I81
F0.5
sI69
F0.5
ss((I58
tp513
(I52
tp514
tp515
(dp516
I60
F0.1688888888888889
sI58
F0.16444444444444445
sI52
F0.1688888888888889
sI50
F0.16444444444444445
sI55
F0.3333333333333333
ss((I66
tp517
(I77
tp518
tp519
(dp520
I66
F0.08333333333333333
sI68
F0.16666666666666666
sI70
F0.08333333333333333
sI72
F0.08333333333333333
sI75
F0.08333333333333333
sI80
F0.08333333333333333
sI54
F0.08333333333333333
sI58
F0.08333333333333333
sI60
F0.08333333333333333
sI63
F0.16666666666666666
ss((I38
tp521
(I26
tp522
tp523
(dp524
I33
F0.2
sI26
F0.4
sI38
F0.4
ss((I68
tp525
(I62
tp526
tp527
(dp528
I65
F0.3333333333333333
sI70
F0.3333333333333333
sI62
F0.3333333333333333
ss((I69
tp529
(I67
tp530
tp531
(dp532
I65
F0.004640371229698376
sI66
F0.002320185614849188
sI67
F0.33178654292343385
sI36
F0.018561484918793503
sI69
F0.3642691415313225
sI70
F0.004640371229698376
sI72
F0.002320185614849188
sI43
F0.08352668213457076
sI48
F0.018561484918793503
sI89
F0.002320185614849188
sI60
F0.02320185614849188
sI93
F0.002320185614849188
sI62
F0.058004640371229696
sI31
F0.08352668213457076
ss((I48
tp533
(I65
tp534
tp535
(dp536
I67
F0.48484848484848486
sI60
F0.5151515151515151
ss((I17
tp537
(I17
tp538
tp539
(dp540
I17
F0.5
sI29
F0.5
ss((I41
tp541
(I41
tp542
tp543
(dp544
I38
F0.007326007326007326
sI41
F0.4139194139194139
sI43
F0.08424908424908426
sI48
F0.01098901098901099
sI50
F0.014652014652014652
sI29
F0.3882783882783883
sI31
F0.08058608058608059
ss((I58
tp545
(I44
tp546
tp547
(dp548
I60
F0.5
sI61
F0.5
ss((I60
tp549
(I57
tp550
tp551
(dp552
I58
F0.25806451612903225
sI46
F0.1935483870967742
sI53
F0.4838709677419355
sI62
F0.06451612903225806
ss((I66
tp553
(I63
tp554
tp555
(dp556
I64
F0.03125
sI65
F0.1875
sI66
F0.0625
sI70
F0.03125
sI74
F0.03125
sI58
F0.4375
sI62
F0.125
sI63
F0.09375
ss((I45
tp557
(I57
tp558
tp559
(dp560
I64
F0.4666666666666667
sI57
F0.5066666666666667
sI61
F0.02666666666666667
ss((I48
tp561
(I32
tp562
tp563
(dp564
I48
F0.25
sI32
F0.25
sI51
F0.25
sI36
F0.25
ss((I44
tp565
(I58
tp566
tp567
(dp568
I63
F1.0
ss((I76
tp569
(I67
tp570
tp571
(dp572
I64
F0.25
sI65
F0.25
sI76
F0.25
sI77
F0.25
ss((I86
tp573
(I77
tp574
tp575
(dp576
I64
F0.5
sI76
F0.5
ss((I57
tp577
(I50
tp578
tp579
(dp580
I64
F0.25
sI57
F0.5
sI45
F0.25
ss((I86
tp581
(I85
tp582
tp583
(dp584
I88
F1.0
ss((I74
tp585
(I74
tp586
tp587
(dp588
I74
F0.3333333333333333
sI76
F0.3333333333333333
sI69
F0.3333333333333333
ss((I69
tp589
(I81
tp590
tp591
(dp592
I64
F0.5
sI67
F0.5
ss((I60
tp593
(I45
tp594
tp595
(dp596
I58
F0.5
sI46
F0.5
ss((I50
tp597
(I52
tp598
tp599
(dp600
I60
F0.1688888888888889
sI58
F0.16444444444444445
sI52
F0.1688888888888889
sI50
F0.16444444444444445
sI55
F0.3333333333333333
ss((I68
tp601
(I64
tp602
tp603
(dp604
I65
F0.23809523809523808
sI68
F0.047619047619047616
sI70
F0.23809523809523808
sI72
F0.047619047619047616
sI56
F0.047619047619047616
sI60
F0.047619047619047616
sI62
F0.23809523809523808
sI63
F0.09523809523809523
ss((I61
tp605
(I62
tp606
tp607
(dp608
I56
F0.3333333333333333
sI60
F0.3333333333333333
sI63
F0.3333333333333333
ss((I67
tp609
(I67
tp610
tp611
(dp612
I65
F0.0039447731755424065
sI66
F0.015779092702169626
sI67
F0.35700197238658776
sI68
F0.0019723865877712033
sI69
F0.2406311637080868
sI70
F0.0019723865877712033
sI48
F0.0631163708086785
sI72
F0.023668639053254437
sI43
F0.047337278106508875
sI77
F0.0039447731755424065
sI80
F0.0019723865877712033
sI36
F0.047337278106508875
sI31
F0.047337278106508875
sI60
F0.1203155818540434
sI62
F0.015779092702169626
sI63
F0.007889546351084813
ss((I60
tp613
(I91
tp614
tp615
(dp616
I96
F1.0
ss((I58
tp617
(I54
tp618
tp619
(dp620
I66
F0.16666666666666666
sI70
F0.16666666666666666
sI54
F0.16666666666666666
sI58
F0.16666666666666666
sI62
F0.08333333333333333
sI63
F0.25
ss((I58
tp621
(I33
tp622
tp623
(dp624
I65
F0.5
sI58
F0.5
ss((I75
tp625
(I65
tp626
tp627
(dp628
I64
F0.3333333333333333
sI67
F0.3333333333333333
sI60
F0.3333333333333333
ss((I51
tp629
(I56
tp630
tp631
(dp632
I56
F0.4666666666666667
sI64
F0.06666666666666667
sI51
F0.13333333333333333
sI53
F0.26666666666666666
sI63
F0.06666666666666667
ss((I68
tp633
(I80
tp634
tp635
(dp636
I66
F0.3333333333333333
sI70
F0.16666666666666666
sI82
F0.16666666666666666
sI78
F0.3333333333333333
ss((I79
tp637
(I64
tp638
tp639
(dp640
I65
F0.5
sI77
F0.5
ss((I53
tp641
(I41
tp642
tp643
(dp644
I48
F0.5
sI41
F0.5
ss((I79
tp645
(I78
tp646
tp647
(dp648
I80
F0.5
sI68
F0.5
ss((I96
tp649
(I86
tp650
tp651
(dp652
I65
F0.2857142857142857
sI94
F0.14285714285714285
sI62
F0.2857142857142857
sI70
F0.2857142857142857
ss((I71
tp653
(I66
tp654
tp655
(dp656
I69
F1.0
ss((I56
tp657
(I58
tp658
tp659
(dp660
I64
F0.1875
sI66
F0.03125
sI51
F0.03125
sI56
F0.15625
sI58
F0.0625
sI60
F0.1875
sI61
F0.34375
ss((I56
tp661
(I56
tp662
tp663
(dp664
I64
F0.07547169811320754
sI66
F0.018867924528301886
sI51
F0.05660377358490566
sI53
F0.12264150943396226
sI56
F0.5754716981132075
sI58
F0.04716981132075472
sI60
F0.009433962264150943
sI61
F0.08490566037735849
sI63
F0.009433962264150943
ss((I90
tp665
(I67
tp666
tp667
(dp668
I65
F0.3333333333333333
sI69
F0.3333333333333333
sI62
F0.3333333333333333
ss((I55
tp669
(I67
tp670
tp671
(dp672
I64
F0.1
sI65
F0.1
sI67
F0.3
sI70
F0.1
sI60
F0.3
sI62
F0.1
ss((I79
tp673
(I80
tp674
tp675
(dp676
I65
F0.5
sI77
F0.5
ss((I75
tp677
(I58
tp678
tp679
(dp680
I65
F0.2
sI70
F0.1
sI74
F0.1
sI77
F0.1
sI82
F0.1
sI58
F0.2
sI62
F0.2
ss((I49
tp681
(I63
tp682
tp683
(dp684
I61
F1.0
ss((I34
tp685
(I29
tp686
tp687
(dp688
I32
F0.047619047619047616
sI41
F0.2857142857142857
sI34
F0.19047619047619047
sI29
F0.2857142857142857
sI46
F0.19047619047619047
ss((I75
tp689
(I70
tp690
tp691
(dp692
I65
F0.25
sI68
F0.125
sI70
F0.25
sI74
F0.125
sI58
F0.125
sI62
F0.125
ss((I38
tp693
(I27
tp694
tp695
(dp696
I39
F1.0
ss((I67
tp697
(I72
tp698
tp699
(dp700
I65
F0.22
sI67
F0.12
sI72
F0.28
sI41
F0.16
sI53
F0.16
sI60
F0.06
ss((I82
tp701
(I68
tp702
tp703
(dp704
I67
F0.5
sI79
F0.5
ss((I61
tp705
(I44
tp706
tp707
(dp708
I51
F1.0
ss((I63
tp709
(I62
tp710
tp711
(dp712
I65
F0.05405405405405406
sI67
F0.21621621621621623
sI68
F0.05405405405405406
sI57
F0.05405405405405406
sI58
F0.02702702702702703
sI60
F0.10810810810810811
sI62
F0.24324324324324326
sI63
F0.24324324324324326
ss((I69
tp713
(I58
tp714
tp715
(dp716
I67
F1.0
ss((I75
tp717
(I63
tp718
tp719
(dp720
I65
F0.3
sI58
F0.2
sI62
F0.2
sI74
F0.1
sI70
F0.2
ss((I70
tp721
(I50
tp722
tp723
(dp724
I59
F1.0
ss((I37
tp725
(I41
tp726
tp727
(dp728
I34
F0.5
sI46
F0.5
ss((I74
tp729
(I65
tp730
tp731
(dp732
I64
F0.08333333333333333
sI66
F0.08333333333333333
sI70
F0.25
sI75
F0.16666666666666666
sI76
F0.08333333333333333
sI58
F0.08333333333333333
sI62
F0.08333333333333333
sI63
F0.16666666666666666
ss((I64
tp733
(I65
tp734
tp735
(dp736
I96
F0.02127659574468085
sI65
F0.1702127659574468
sI34
F0.0425531914893617
sI67
F0.02127659574468085
sI68
F0.1276595744680851
sI64
F0.0425531914893617
sI46
F0.0425531914893617
sI79
F0.02127659574468085
sI88
F0.02127659574468085
sI57
F0.0425531914893617
sI58
F0.0425531914893617
sI91
F0.0425531914893617
sI60
F0.1276595744680851
sI61
F0.10638297872340426
sI62
F0.1276595744680851
ss((I45
tp737
(I58
tp738
tp739
(dp740
I57
F0.5
sI45
F0.5
ss((I60
tp741
(I58
tp742
tp743
(dp744
I64
F0.006024096385542169
sI65
F0.05120481927710843
sI66
F0.009036144578313253
sI68
F0.0030120481927710845
sI34
F0.024096385542168676
sI46
F0.024096385542168676
sI48
F0.02108433734939759
sI50
F0.11144578313253012
sI51
F0.009036144578313253
sI52
F0.1144578313253012
sI53
F0.015060240963855422
sI55
F0.2319277108433735
sI56
F0.006024096385542169
sI58
F0.16566265060240964
sI60
F0.15060240963855423
sI61
F0.006024096385542169
sI62
F0.03313253012048193
sI63
F0.018072289156626505
ss((I81
tp745
(I68
tp746
tp747
(dp748
I82
F0.5
sI70
F0.5
ss((I55
tp749
(I52
tp750
tp751
(dp752
I65
F0.019083969465648856
sI50
F0.17557251908396945
sI52
F0.1450381679389313
sI53
F0.019083969465648856
sI55
F0.32061068702290074
sI58
F0.17557251908396945
sI60
F0.1450381679389313
ss((I82
tp753
(I82
tp754
tp755
(dp756
I80
F0.1
sI72
F0.4
sI68
F0.1
sI84
F0.4
ss((I65
tp757
(I96
tp758
tp759
(dp760
I64
F0.3333333333333333
sI67
F0.3333333333333333
sI60
F0.3333333333333333
ss((I81
tp761
(I91
tp762
tp763
(dp764
I64
F0.3333333333333333
sI67
F0.3333333333333333
sI60
F0.3333333333333333
ss((I88
tp765
(I93
tp766
tp767
(dp768
I84
F1.0
ss((I43
tp769
(I34
tp770
tp771
(dp772
I41
F0.3333333333333333
sI34
F0.3333333333333333
sI46
F0.3333333333333333
ss((I31
tp773
(I69
tp774
tp775
(dp776
I67
F0.5
sI69
F0.5
ss((I54
tp777
(I58
tp778
tp779
(dp780
I66
F0.25
sI54
F0.25
sI58
F0.25
sI70
F0.25
ss((I70
tp781
(I65
tp782
tp783
(dp784
I64
F0.06666666666666667
sI65
F0.09333333333333334
sI66
F0.04
sI67
F0.10666666666666667
sI70
F0.25333333333333335
sI72
F0.013333333333333334
sI73
F0.013333333333333334
sI75
F0.013333333333333334
sI54
F0.013333333333333334
sI57
F0.013333333333333334
sI58
F0.06666666666666667
sI60
F0.08
sI62
F0.06666666666666667
sI63
F0.16
ss((I36
tp785
(I22
tp786
tp787
(dp788
I24
F0.5
sI36
F0.5
ss((I69
tp789
(I72
tp790
tp791
(dp792
I73
F0.14285714285714285
sI66
F0.14285714285714285
sI62
F0.14285714285714285
sI69
F0.14285714285714285
sI70
F0.42857142857142855
ss((I73
tp793
(I66
tp794
tp795
(dp796
I74
F1.0
ss((I48
tp797
(I36
tp798
tp799
(dp800
I43
F0.5
sI36
F0.5
ss((I39
tp801
(I34
tp802
tp803
(dp804
I41
F0.07142857142857142
sI27
F0.2857142857142857
sI36
F0.21428571428571427
sI29
F0.14285714285714285
sI39
F0.2857142857142857
ss((I81
tp805
(I62
tp806
tp807
(dp808
I85
F1.0
ss((I45
tp809
(I38
tp810
tp811
(dp812
I64
F0.15
sI33
F0.025
sI38
F0.2
sI45
F0.225
sI50
F0.125
sI57
F0.15
sI26
F0.125
ss((I39
tp813
(I27
tp814
tp815
(dp816
I34
F0.05405405405405406
sI38
F0.05405405405405406
sI39
F0.3918918918918919
sI46
F0.05405405405405406
sI26
F0.05405405405405406
sI27
F0.3918918918918919
ss((I43
tp817
(I50
tp818
tp819
(dp820
I48
F0.14285714285714285
sI50
F0.42857142857142855
sI43
F0.32142857142857145
sI45
F0.10714285714285714
ss((I93
tp821
(I93
tp822
tp823
(dp824
I91
F0.3333333333333333
sI95
F0.6666666666666666
ss((I58
tp825
(I63
tp826
tp827
(dp828
I65
F0.06060606060606061
sI66
F0.09090909090909091
sI70
F0.015151515151515152
sI72
F0.015151515151515152
sI74
F0.015151515151515152
sI46
F0.015151515151515152
sI51
F0.030303030303030304
sI57
F0.24242424242424243
sI58
F0.24242424242424243
sI60
F0.13636363636363635
sI62
F0.045454545454545456
sI63
F0.09090909090909091
ss((I65
tp829
(I97
tp830
tp831
(dp832
I86
F1.0
ss((I68
tp833
(I58
tp834
tp835
(dp836
I65
F0.15384615384615385
sI66
F0.07692307692307693
sI70
F0.15384615384615385
sI77
F0.07692307692307693
sI82
F0.07692307692307693
sI54
F0.07692307692307693
sI58
F0.23076923076923078
sI62
F0.15384615384615385
ss((I42
tp837
(I70
tp838
tp839
(dp840
I56
F0.5
sI68
F0.5
ss((I72
tp841
(I58
tp842
tp843
(dp844
I82
F0.25
sI67
F0.25
sI60
F0.25
sI77
F0.25
ss((I53
tp845
(I32
tp846
tp847
(dp848
I32
F0.25
sI51
F0.25
sI29
F0.25
sI53
F0.25
ss((I72
tp849
(I70
tp850
tp851
(dp852
I60
F0.14285714285714285
sI68
F0.14285714285714285
sI69
F0.14285714285714285
sI63
F0.5714285714285714
ss((I60
tp853
(I51
tp854
tp855
(dp856
I62
F1.0
ss((I55
tp857
(I56
tp858
tp859
(dp860
I53
F1.0
ss((I48
tp861
(I45
tp862
tp863
(dp864
I58
F0.5
sI46
F0.5
ss((I77
tp865
(I82
tp866
tp867
(dp868
I81
F0.5
sI69
F0.5
ss((I65
tp869
(I66
tp870
tp871
(dp872
I65
F0.2
sI58
F0.2
sI66
F0.2
sI53
F0.2
sI63
F0.2
ss((I69
tp873
(I68
tp874
tp875
(dp876
I73
F0.2
sI82
F0.2
sI66
F0.2
sI70
F0.4
ss((I56
tp877
(I67
tp878
tp879
(dp880
I63
F1.0
ss((I58
tp881
(I55
tp882
tp883
(dp884
I50
F0.074
sI52
F0.092
sI55
F0.324
sI57
F0.008
sI58
F0.246
sI60
F0.092
sI62
F0.164
ss((I67
tp885
(I36
tp886
tp887
(dp888
I67
F0.5
sI60
F0.5
ss((I46
tp889
(I58
tp890
tp891
(dp892
I48
F0.024390243902439025
sI65
F0.4878048780487805
sI58
F0.4878048780487805
ss((I49
tp893
(I50
tp894
tp895
(dp896
I61
F1.0
ss((I53
tp897
(I64
tp898
tp899
(dp900
I65
F0.125
sI67
F0.4375
sI55
F0.4375
ss((I61
tp901
(I58
tp902
tp903
(dp904
I66
F0.1111111111111111
sI44
F0.05555555555555555
sI49
F0.05555555555555555
sI56
F0.05555555555555555
sI58
F0.16666666666666666
sI59
F0.1111111111111111
sI60
F0.2777777777777778
sI61
F0.1111111111111111
sI63
F0.05555555555555555
ss((I39
tp905
(I24
tp906
tp907
(dp908
I24
F0.5
sI36
F0.5
ss((I40
tp909
(I50
tp910
tp911
(dp912
I55
F1.0
ss((I50
tp913
(I66
tp914
tp915
(dp916
I67
F1.0
ss((I50
tp917
(I51
tp918
tp919
(dp920
I51
F1.0
ss((I66
tp921
(I60
tp922
tp923
(dp924
I68
F0.25
sI72
F0.08333333333333333
sI75
F0.08333333333333333
sI56
F0.08333333333333333
sI58
F0.16666666666666666
sI60
F0.16666666666666666
sI63
F0.16666666666666666
ss((I38
tp925
(I24
tp926
tp927
(dp928
I26
F0.3333333333333333
sI27
F0.16666666666666666
sI38
F0.3333333333333333
sI39
F0.16666666666666666
ss((I60
tp929
(I70
tp930
tp931
(dp932
I65
F0.2682926829268293
sI67
F0.07317073170731707
sI68
F0.24390243902439024
sI70
F0.12195121951219512
sI60
F0.24390243902439024
sI62
F0.04878048780487805
ss((I46
tp933
(I48
tp934
tp935
(dp936
I39
F0.09523809523809523
sI40
F0.09523809523809523
sI45
F0.19047619047619047
sI46
F0.19047619047619047
sI48
F0.19047619047619047
sI53
F0.23809523809523808
ss((I41
tp937
(I48
tp938
tp939
(dp940
I65
F0.21052631578947367
sI72
F0.21052631578947367
sI41
F0.21052631578947367
sI48
F0.23684210526315788
sI50
F0.05263157894736842
sI53
F0.07894736842105263
ss((I77
tp941
(I79
tp942
tp943
(dp944
I80
F0.25
sI67
F0.25
sI68
F0.25
sI79
F0.25
ss((I49
tp945
(I42
tp946
tp947
(dp948
I49
F0.5
sI59
F0.5
ss((I43
tp949
(I39
tp950
tp951
(dp952
I46
F1.0
ss((I65
tp953
(I84
tp954
tp955
(dp956
I82
F0.5
sI70
F0.5
ss((I46
tp957
(I38
tp958
tp959
(dp960
I33
F0.25
sI38
F0.10714285714285714
sI45
F0.35714285714285715
sI46
F0.10714285714285714
sI39
F0.17857142857142858
ss((I79
tp961
(I65
tp962
tp963
(dp964
I80
F0.25
sI67
F0.25
sI68
F0.25
sI79
F0.25
ss((I64
tp965
(I48
tp966
tp967
(dp968
I48
F0.5
sI60
F0.5
ss((I61
tp969
(I90
tp970
tp971
(dp972
I88
F1.0
ss((I38
tp973
(I40
tp974
tp975
(dp976
I39
F1.0
ss((I77
tp977
(I60
tp978
tp979
(dp980
I53
F1.0
ss((I55
tp981
(I46
tp982
tp983
(dp984
I50
F1.0
ss((I57
tp985
(I65
tp986
tp987
(dp988
I64
F0.08955223880597014
sI65
F0.07462686567164178
sI34
F0.029850746268656716
sI67
F0.07462686567164178
sI69
F0.07462686567164178
sI45
F0.16417910447761194
sI46
F0.029850746268656716
sI55
F0.08955223880597014
sI57
F0.31343283582089554
sI58
F0.029850746268656716
sI62
F0.029850746268656716
ss((I61
tp989
(I64
tp990
tp991
(dp992
I65
F0.11864406779661017
sI66
F0.01694915254237288
sI69
F0.0847457627118644
sI70
F0.03389830508474576
sI50
F0.23728813559322035
sI56
F0.0847457627118644
sI58
F0.01694915254237288
sI60
F0.01694915254237288
sI62
F0.3559322033898305
sI63
F0.03389830508474576
ss((I36
tp993
(I36
tp994
tp995
(dp996
I34
F0.08928571428571429
sI36
F0.05357142857142857
sI38
F0.44642857142857145
sI41
F0.14285714285714285
sI43
F0.05357142857142857
sI22
F0.07142857142857142
sI29
F0.14285714285714285
ss((I67
tp997
(I55
tp998
tp999
(dp1000
I65
F1.0
ss((I53
tp1001
(I60
tp1002
tp1003
(dp1004
I65
F0.28125
sI72
F0.25
sI46
F0.03125
sI51
F0.125
sI53
F0.03125
sI58
F0.28125
ss((I50
tp1005
(I61
tp1006
tp1007
(dp1008
I64
F0.4375
sI49
F0.125
sI52
F0.4375
ss((I61
tp1009
(I54
tp1010
tp1011
(dp1012
I49
F0.5
sI58
F0.5
ss((I31
tp1013
(I31
tp1014
tp1015
(dp1016
I38
F1.0
ss((I64
tp1017
(I66
tp1018
tp1019
(dp1020
I61
F1.0
ss((I82
tp1021
(I74
tp1022
tp1023
(dp1024
I72
F0.5
sI84
F0.5
ss((I44
tp1025
(I51
tp1026
tp1027
(dp1028
I60
F1.0
ss((I82
tp1029
(I54
tp1030
tp1031
(dp1032
I80
F0.5
sI68
F0.5
ss((I32
tp1033
(I29
tp1034
tp1035
(dp1036
I32
F0.23529411764705882
sI34
F0.058823529411764705
sI51
F0.23529411764705882
sI53
F0.23529411764705882
sI29
F0.23529411764705882
ss((I27
tp1037
(I41
tp1038
tp1039
(dp1040
I34
F0.010309278350515464
sI39
F0.23711340206185566
sI41
F0.23711340206185566
sI43
F0.020618556701030927
sI27
F0.23711340206185566
sI29
F0.23711340206185566
sI31
F0.020618556701030927
ss((I96
tp1041
(I84
tp1042
tp1043
(dp1044
I91
F1.0
ss((I32
tp1045
(I34
tp1046
tp1047
(dp1048
I32
F0.6666666666666666
sI34
F0.3333333333333333
ss((I60
tp1049
(I63
tp1050
tp1051
(dp1052
I65
F0.10869565217391304
sI68
F0.021739130434782608
sI56
F0.021739130434782608
sI58
F0.13043478260869565
sI60
F0.06521739130434782
sI62
F0.6086956521739131
sI63
F0.043478260869565216
ss((I17
tp1053
(I15
tp1054
tp1055
(dp1056
I17
F0.25
sI27
F0.25
sI29
F0.25
sI15
F0.25
ss((I73
tp1057
(I75
tp1058
tp1059
(dp1060
I74
F1.0
ss((I27
tp1061
(I43
tp1062
tp1063
(dp1064
I27
F0.5
sI39
F0.5
ss((I49
tp1065
(I52
tp1066
tp1067
(dp1068
I50
F0.5
sI62
F0.5
ss((I81
tp1069
(I69
tp1070
tp1071
(dp1072
I81
F1.0
ss((I63
tp1073
(I60
tp1074
tp1075
(dp1076
I64
F0.014492753623188406
sI65
F0.028985507246376812
sI67
F0.07246376811594203
sI68
F0.043478260869565216
sI73
F0.014492753623188406
sI51
F0.014492753623188406
sI56
F0.11594202898550725
sI57
F0.057971014492753624
sI58
F0.07246376811594203
sI60
F0.043478260869565216
sI61
F0.057971014492753624
sI62
F0.43478260869565216
sI63
F0.028985507246376812
ss((I62
tp1077
(I58
tp1078
tp1079
(dp1080
I65
F0.03184713375796178
sI66
F0.009554140127388535
sI70
F0.006369426751592357
sI75
F0.006369426751592357
sI48
F0.028662420382165606
sI53
F0.03821656050955414
sI54
F0.0031847133757961785
sI55
F0.25796178343949044
sI58
F0.27388535031847133
sI60
F0.06369426751592357
sI62
F0.27070063694267515
sI63
F0.009554140127388535
ss((I37
tp1081
(I30
tp1082
tp1083
(dp1084
I34
F1.0
ss((I38
tp1085
(I36
tp1086
tp1087
(dp1088
I34
F0.15625
sI36
F0.03125
sI38
F0.25
sI39
F0.1875
sI26
F0.25
sI27
F0.125
ss((I69
tp1089
(I85
tp1090
tp1091
(dp1092
I64
F0.3333333333333333
sI67
F0.3333333333333333
sI61
F0.3333333333333333
ss((I67
tp1093
(I60
tp1094
tp1095
(dp1096
I64
F0.03535353535353535
sI65
F0.030303030303030304
sI67
F0.25252525252525254
sI68
F0.015151515151515152
sI70
F0.010101010101010102
sI48
F0.16161616161616163
sI52
F0.03535353535353535
sI56
F0.005050505050505051
sI36
F0.12121212121212122
sI58
F0.015151515151515152
sI60
F0.3181818181818182
ss((I82
tp1097
(I80
tp1098
tp1099
(dp1100
I67
F0.5
sI79
F0.5
ss((I66
tp1101
(I66
tp1102
tp1103
(dp1104
I64
F0.047619047619047616
sI65
F0.09523809523809523
sI66
F0.047619047619047616
sI67
F0.2857142857142857
sI68
F0.023809523809523808
sI70
F0.07142857142857142
sI74
F0.023809523809523808
sI80
F0.023809523809523808
sI54
F0.047619047619047616
sI58
F0.23809523809523808
sI62
F0.09523809523809523
ss((I50
tp1105
(I62
tp1106
tp1107
(dp1108
I49
F0.038461538461538464
sI61
F0.038461538461538464
sI62
F0.46153846153846156
sI69
F0.46153846153846156
ss((I68
tp1109
(I65
tp1110
tp1111
(dp1112
I64
F0.02702702702702703
sI65
F0.24324324324324326
sI67
F0.24324324324324326
sI68
F0.08108108108108109
sI79
F0.05405405405405406
sI60
F0.35135135135135137
ss((I85
tp1113
(I67
tp1114
tp1115
(dp1116
I65
F0.3333333333333333
sI69
F0.3333333333333333
sI62
F0.3333333333333333
ss((I76
tp1117
(I72
tp1118
tp1119
(dp1120
I74
F1.0
ss((I33
tp1121
(I45
tp1122
tp1123
(dp1124
I34
F0.25
sI53
F0.5
sI46
F0.25
ss((I98
tp1125
(I65
tp1126
tp1127
(dp1128
I90
F1.0
ss((I62
tp1129
(I97
tp1130
tp1131
(dp1132
I86
F1.0
ss((I45
tp1133
(I50
tp1134
tp1135
(dp1136
I64
F0.12244897959183673
sI38
F0.16326530612244897
sI43
F0.061224489795918366
sI45
F0.2857142857142857
sI50
F0.10204081632653061
sI53
F0.061224489795918366
sI57
F0.16326530612244897
sI61
F0.04081632653061224
ss((I65
tp1137
(I48
tp1138
tp1139
(dp1140
I55
F1.0
ss((I60
tp1141
(I52
tp1142
tp1143
(dp1144
I50
F0.3333333333333333
sI58
F0.3333333333333333
sI55
F0.3333333333333333
ss((I39
tp1145
(I28
tp1146
tp1147
(dp1148
I27
F1.0
ss((I62
tp1149
(I64
tp1150
tp1151
(dp1152
I65
F0.75
sI86
F0.25
ss((I55
tp1153
(I58
tp1154
tp1155
(dp1156
I50
F0.0744466800804829
sI52
F0.0925553319919517
sI53
F0.01006036217303823
sI55
F0.32595573440643866
sI58
F0.2454728370221328
sI60
F0.0925553319919517
sI62
F0.158953722334004
ss((I91
tp1157
(I69
tp1158
tp1159
(dp1160
I65
F1.0
ss((I97
tp1161
(I90
tp1162
tp1163
(dp1164
I98
F1.0
ss((I54
tp1165
(I60
tp1166
tp1167
(dp1168
I56
F1.0
ss((I38
tp1169
(I62
tp1170
tp1171
(dp1172
I50
F0.03942652329749104
sI69
F0.48028673835125446
sI62
F0.48028673835125446
ss((I24
tp1173
(I24
tp1174
tp1175
(dp1176
I41
F0.3333333333333333
sI34
F0.16666666666666666
sI29
F0.3333333333333333
sI22
F0.16666666666666666
ss((I70
tp1177
(I57
tp1178
tp1179
(dp1180
I65
F0.3333333333333333
sI57
F0.25
sI70
F0.25
sI63
F0.16666666666666666
ss((I62
tp1181
(I51
tp1182
tp1183
(dp1184
I51
F0.5
sI63
F0.5
ss((I48
tp1185
(I67
tp1186
tp1187
(dp1188
I65
F0.037037037037037035
sI67
F0.3950617283950617
sI60
F0.3950617283950617
sI69
F0.08641975308641975
sI57
F0.08641975308641975
ss((I34
tp1189
(I42
tp1190
tp1191
(dp1192
I38
F1.0
ss((I65
tp1193
(I67
tp1194
tp1195
(dp1196
I65
F0.07894736842105263
sI67
F0.11842105263157894
sI68
F0.05263157894736842
sI69
F0.06578947368421052
sI70
F0.09210526315789473
sI48
F0.10526315789473684
sI72
F0.05263157894736842
sI79
F0.013157894736842105
sI80
F0.013157894736842105
sI81
F0.013157894736842105
sI86
F0.013157894736842105
sI55
F0.07894736842105263
sI36
F0.10526315789473684
sI58
F0.02631578947368421
sI60
F0.10526315789473684
sI62
F0.06578947368421052
ss((I60
tp1197
(I49
tp1198
tp1199
(dp1200
I49
F0.5
sI61
F0.5
ss((I41
tp1201
(I53
tp1202
tp1203
(dp1204
I34
F0.05
sI41
F0.3
sI46
F0.15
sI48
F0.15
sI53
F0.15
sI29
F0.2
ss((I69
tp1205
(I70
tp1206
tp1207
(dp1208
I64
F0.21739130434782608
sI67
F0.21739130434782608
sI69
F0.13043478260869565
sI70
F0.17391304347826086
sI74
F0.08695652173913043
sI75
F0.043478260869565216
sI61
F0.08695652173913043
sI63
F0.043478260869565216
ss((I58
tp1209
(I75
tp1210
tp1211
(dp1212
I65
F0.2727272727272727
sI70
F0.09090909090909091
sI72
F0.09090909090909091
sI74
F0.09090909090909091
sI77
F0.09090909090909091
sI58
F0.09090909090909091
sI60
F0.09090909090909091
sI62
F0.18181818181818182
ss((I65
tp1213
(I41
tp1214
tp1215
(dp1216
I72
F0.5
sI65
F0.5
ss((I86
tp1217
(I91
tp1218
tp1219
(dp1220
I64
F0.3333333333333333
sI67
F0.3333333333333333
sI60
F0.3333333333333333
ss((I48
tp1221
(I34
tp1222
tp1223
(dp1224
I34
F0.08333333333333333
sI67
F0.3333333333333333
sI36
F0.08333333333333333
sI46
F0.08333333333333333
sI48
F0.08333333333333333
sI60
F0.3333333333333333
ss((I44
tp1225
(I63
tp1226
tp1227
(dp1228
I61
F1.0
ss((I58
tp1229
(I50
tp1230
tp1231
(dp1232
I48
F0.21428571428571427
sI60
F0.40476190476190477
sI52
F0.19047619047619047
sI55
F0.19047619047619047
ss((I84
tp1233
(I82
tp1234
tp1235
(dp1236
I84
F1.0
ss((I45
tp1237
(I46
tp1238
tp1239
(dp1240
I57
F0.11764705882352941
sI50
F0.4117647058823529
sI45
F0.23529411764705882
sI46
F0.11764705882352941
sI39
F0.11764705882352941
ss((I65
tp1241
(I93
tp1242
tp1243
(dp1244
I69
F1.0
ss((I36
tp1245
(I33
tp1246
tp1247
(dp1248
I34
F0.5
sI46
F0.5
ss((I51
tp1249
(I65
tp1250
tp1251
(dp1252
I63
F1.0
ss((I34
tp1253
(I53
tp1254
tp1255
(dp1256
I53
F0.8333333333333334
sI46
F0.16666666666666666
ss((I53
tp1257
(I49
tp1258
tp1259
(dp1260
I49
F0.25
sI37
F0.25
sI29
F0.25
sI53
F0.25
ss((I54
tp1261
(I77
tp1262
tp1263
(dp1264
I58
F0.25
sI54
F0.25
sI66
F0.25
sI70
F0.25
ss((I91
tp1265
(I64
tp1266
tp1267
(dp1268
I89
F1.0
ss((I62
tp1269
(I57
tp1270
tp1271
(dp1272
I65
F0.21428571428571427
sI58
F0.14285714285714285
sI57
F0.21428571428571427
sI62
F0.21428571428571427
sI55
F0.21428571428571427
ss((I22
tp1273
(I26
tp1274
tp1275
(dp1276
I24
F1.0
ss((I76
tp1277
(I71
tp1278
tp1279
(dp1280
I68
F1.0
ss((I44
tp1281
(I60
tp1282
tp1283
(dp1284
I58
F0.6666666666666666
sI70
F0.3333333333333333
ss((I49
tp1285
(I64
tp1286
tp1287
(dp1288
I50
F0.48
sI61
F0.04
sI62
F0.48
ss((I26
tp1289
(I36
tp1290
tp1291
(dp1292
I26
F0.3333333333333333
sI27
F0.16666666666666666
sI38
F0.3333333333333333
sI39
F0.16666666666666666
ss((I60
tp1293
(I68
tp1294
tp1295
(dp1296
I65
F0.3333333333333333
sI67
F0.1111111111111111
sI70
F0.037037037037037035
sI44
F0.037037037037037035
sI51
F0.037037037037037035
sI55
F0.1111111111111111
sI58
F0.037037037037037035
sI60
F0.14814814814814814
sI63
F0.14814814814814814
ss((I27
tp1297
(I48
tp1298
tp1299
(dp1300
I48
F0.25
sI27
F0.25
sI36
F0.25
sI39
F0.25
ss((I36
tp1301
(I32
tp1302
tp1303
(dp1304
I48
F0.25
sI32
F0.25
sI51
F0.25
sI36
F0.25
ss((I27
tp1305
(I36
tp1306
tp1307
(dp1308
I36
F0.2807017543859649
sI39
F0.14035087719298245
sI15
F0.07017543859649122
sI48
F0.14035087719298245
sI24
F0.14035087719298245
sI27
F0.21052631578947367
sI28
F0.017543859649122806
ss((I55
tp1309
(I64
tp1310
tp1311
(dp1312
I65
F0.19230769230769232
sI60
F0.38461538461538464
sI53
F0.19230769230769232
sI62
F0.11538461538461539
sI55
F0.11538461538461539
ss((I38
tp1313
(I55
tp1314
tp1315
(dp1316
I41
F1.0
ss((I48
tp1317
(I39
tp1318
tp1319
(dp1320
I48
F0.23529411764705882
sI27
F0.23529411764705882
sI43
F0.058823529411764705
sI36
F0.23529411764705882
sI39
F0.23529411764705882
ss((I36
tp1321
(I40
tp1322
tp1323
(dp1324
I38
F1.0
ss((I39
tp1325
(I39
tp1326
tp1327
(dp1328
I34
F0.0673076923076923
sI38
F0.057692307692307696
sI39
F0.41346153846153844
sI46
F0.14423076923076922
sI26
F0.038461538461538464
sI27
F0.27884615384615385
ss((I76
tp1329
(I77
tp1330
tp1331
(dp1332
I67
F0.5
sI79
F0.5
ss((I88
tp1333
(I84
tp1334
tp1335
(dp1336
I84
F0.5
sI86
F0.5
ss((I64
tp1337
(I63
tp1338
tp1339
(dp1340
I64
F0.125
sI58
F0.25
sI66
F0.25
sI61
F0.375
ss((I80
tp1341
(I76
tp1342
tp1343
(dp1344
I72
F1.0
ss((I57
tp1345
(I69
tp1346
tp1347
(dp1348
I64
F0.02127659574468085
sI69
F0.2553191489361702
sI38
F0.14893617021276595
sI45
F0.02127659574468085
sI50
F0.14893617021276595
sI57
F0.14893617021276595
sI62
F0.2553191489361702
ss((I69
tp1349
(I75
tp1350
tp1351
(dp1352
I73
F0.2
sI66
F0.2
sI74
F0.2
sI70
F0.2
sI69
F0.2
ss((I53
tp1353
(I45
tp1354
tp1355
(dp1356
I33
F0.10526315789473684
sI34
F0.10526315789473684
sI45
F0.21052631578947367
sI46
F0.13157894736842105
sI50
F0.05263157894736842
sI53
F0.39473684210526316
ss((I46
tp1357
(I51
tp1358
tp1359
(dp1360
I46
F0.5
sI39
F0.5
ss((I29
tp1361
(I17
tp1362
tp1363
(dp1364
I17
F0.5
sI29
F0.5
ss((I64
tp1365
(I67
tp1366
tp1367
(dp1368
I64
F0.03571428571428571
sI65
F0.35714285714285715
sI66
F0.07142857142857142
sI69
F0.10714285714285714
sI76
F0.03571428571428571
sI77
F0.03571428571428571
sI53
F0.25
sI62
F0.10714285714285714
ss((I64
tp1369
(I64
tp1370
tp1371
(dp1372
I64
F0.2413793103448276
sI65
F0.040229885057471264
sI68
F0.005747126436781609
sI69
F0.011494252873563218
sI70
F0.028735632183908046
sI33
F0.14942528735632185
sI72
F0.005747126436781609
sI45
F0.1839080459770115
sI56
F0.034482758620689655
sI57
F0.2413793103448276
sI60
F0.005747126436781609
sI62
F0.040229885057471264
sI63
F0.011494252873563218
ss((I34
tp1373
(I43
tp1374
tp1375
(dp1376
I24
F0.5
sI36
F0.5
ss((I48
tp1377
(I43
tp1378
tp1379
(dp1380
I48
F0.1111111111111111
sI41
F0.1111111111111111
sI50
F0.1111111111111111
sI43
F0.5
sI36
F0.16666666666666666
ss((I70
tp1381
(I85
tp1382
tp1383
(dp1384
I86
F1.0
ss((I68
tp1385
(I61
tp1386
tp1387
(dp1388
I56
F0.3333333333333333
sI60
F0.3333333333333333
sI63
F0.3333333333333333
ss((I29
tp1389
(I51
tp1390
tp1391
(dp1392
I32
F0.25
sI51
F0.25
sI29
F0.25
sI53
F0.25
ss((I36
tp1393
(I51
tp1394
tp1395
(dp1396
I48
F0.25
sI32
F0.25
sI51
F0.25
sI36
F0.25
ss((I29
tp1397
(I39
tp1398
tp1399
(dp1400
I41
F0.24285714285714285
sI34
F0.02857142857142857
sI27
F0.24285714285714285
sI29
F0.24285714285714285
sI39
F0.24285714285714285
ss((I46
tp1401
(I67
tp1402
tp1403
(dp1404
I70
F1.0
ss((I61
tp1405
(I88
tp1406
tp1407
(dp1408
I85
F1.0
ss((I60
tp1409
(I61
tp1410
tp1411
(dp1412
I56
F0.3
sI64
F0.2
sI58
F0.1
sI61
F0.2
sI63
F0.2
ss((I67
tp1413
(I63
tp1414
tp1415
(dp1416
I65
F0.08333333333333333
sI67
F0.16666666666666666
sI72
F0.16666666666666666
sI58
F0.08333333333333333
sI62
F0.3333333333333333
sI63
F0.16666666666666666
ss((I46
tp1417
(I41
tp1418
tp1419
(dp1420
I41
F0.3
sI34
F0.2
sI29
F0.3
sI46
F0.2
ss((I29
tp1421
(I53
tp1422
tp1423
(dp1424
I53
F0.5
sI46
F0.5
ss((I82
tp1425
(I66
tp1426
tp1427
(dp1428
I80
F0.5
sI68
F0.5
ss((I68
tp1429
(I77
tp1430
tp1431
(dp1432
I67
F0.5
sI79
F0.5
ss((I53
tp1433
(I77
tp1434
tp1435
(dp1436
I58
F0.5
sI53
F0.5
ss((I66
tp1437
(I45
tp1438
tp1439
(dp1440
I64
F1.0
ss((I36
tp1441
(I67
tp1442
tp1443
(dp1444
I48
F0.14285714285714285
sI67
F0.42857142857142855
sI60
F0.42857142857142855
ss((I70
tp1445
(I75
tp1446
tp1447
(dp1448
I65
F0.2
sI66
F0.1
sI70
F0.1
sI72
F0.1
sI74
F0.1
sI77
F0.1
sI58
F0.1
sI60
F0.1
sI62
F0.1
ss((I15
tp1449
(I15
tp1450
tp1451
(dp1452
I34
F0.08695652173913043
sI27
F0.41304347826086957
sI22
F0.08695652173913043
sI15
F0.41304347826086957
ss((I80
tp1453
(I80
tp1454
tp1455
(dp1456
I66
F0.3333333333333333
sI70
F0.16666666666666666
sI82
F0.16666666666666666
sI78
F0.3333333333333333
ss((I68
tp1457
(I56
tp1458
tp1459
(dp1460
I64
F0.16666666666666666
sI68
F0.16666666666666666
sI73
F0.16666666666666666
sI56
F0.16666666666666666
sI60
F0.16666666666666666
sI63
F0.16666666666666666
ss((I57
tp1461
(I64
tp1462
tp1463
(dp1464
I64
F0.22950819672131148
sI65
F0.07650273224043716
sI69
F0.02185792349726776
sI33
F0.14207650273224043
sI45
F0.17486338797814208
sI53
F0.07650273224043716
sI57
F0.25136612021857924
sI62
F0.0273224043715847
ss((I62
tp1465
(I45
tp1466
tp1467
(dp1468
I69
F0.5
sI62
F0.5
ss((I75
tp1469
(I60
tp1470
tp1471
(dp1472
I64
F0.3333333333333333
sI67
F0.3333333333333333
sI60
F0.3333333333333333
ss((I47
tp1473
(I42
tp1474
tp1475
(dp1476
I46
F1.0
ss((I15
tp1477
(I34
tp1478
tp1479
(dp1480
I27
F0.5
sI15
F0.5
ss((I71
tp1481
(I71
tp1482
tp1483
(dp1484
I68
F1.0
ss((I70
tp1485
(I61
tp1486
tp1487
(dp1488
I64
F0.4666666666666667
sI69
F0.4666666666666667
sI86
F0.06666666666666667
ss((I63
tp1489
(I44
tp1490
tp1491
(dp1492
I51
F0.5
sI61
F0.5
ss((I31
tp1493
(I36
tp1494
tp1495
(dp1496
I34
F1.0
ss((I44
tp1497
(I67
tp1498
tp1499
(dp1500
I63
F1.0
ss((I62
tp1501
(I61
tp1502
tp1503
(dp1504
I64
F0.4
sI69
F0.2
sI49
F0.05714285714285714
sI50
F0.05714285714285714
sI51
F0.02857142857142857
sI52
F0.2
sI86
F0.02857142857142857
sI63
F0.02857142857142857
ss((I93
tp1505
(I98
tp1506
tp1507
(dp1508
I91
F1.0
ss((I60
tp1509
(I64
tp1510
tp1511
(dp1512
I65
F0.11363636363636363
sI70
F0.11363636363636363
sI48
F0.06818181818181818
sI55
F0.22727272727272727
sI56
F0.022727272727272728
sI58
F0.022727272727272728
sI60
F0.13636363636363635
sI61
F0.022727272727272728
sI62
F0.25
sI63
F0.022727272727272728
ss((I80
tp1513
(I66
tp1514
tp1515
(dp1516
I58
F0.25
sI70
F0.25
sI66
F0.25
sI54
F0.25
ss((I45
tp1517
(I26
tp1518
tp1519
(dp1520
I33
F0.08333333333333333
sI26
F0.4166666666666667
sI45
F0.08333333333333333
sI38
F0.4166666666666667
ss((I42
tp1521
(I60
tp1522
tp1523
(dp1524
I44
F0.5
sI61
F0.5
ss((I27
tp1525
(I24
tp1526
tp1527
(dp1528
I24
F0.3333333333333333
sI27
F0.16666666666666666
sI36
F0.3333333333333333
sI15
F0.16666666666666666
ss((I43
tp1529
(I52
tp1530
tp1531
(dp1532
I43
F0.5
sI36
F0.5
ss((I68
tp1533
(I70
tp1534
tp1535
(dp1536
I65
F0.1111111111111111
sI66
F0.1111111111111111
sI68
F0.1111111111111111
sI70
F0.2222222222222222
sI71
F0.1111111111111111
sI77
F0.1111111111111111
sI54
F0.1111111111111111
sI58
F0.1111111111111111
ss((I45
tp1537
(I51
tp1538
tp1539
(dp1540
I48
F1.0
ss((I52
tp1541
(I45
tp1542
tp1543
(dp1544
I49
F0.5
sI61
F0.5
ss((I24
tp1545
(I30
tp1546
tp1547
(dp1548
I26
F1.0
ss((I65
tp1549
(I64
tp1550
tp1551
(dp1552
I64
F0.09090909090909091
sI65
F0.17355371900826447
sI67
F0.05785123966942149
sI69
F0.0743801652892562
sI70
F0.04132231404958678
sI33
F0.08264462809917356
sI76
F0.008264462809917356
sI45
F0.08264462809917356
sI81
F0.008264462809917356
sI86
F0.024793388429752067
sI55
F0.05785123966942149
sI57
F0.11570247933884298
sI58
F0.08264462809917356
sI60
F0.024793388429752067
sI62
F0.0743801652892562
ss((I33
tp1553
(I53
tp1554
tp1555
(dp1556
I48
F1.0
ss((I74
tp1557
(I81
tp1558
tp1559
(dp1560
I65
F0.5
sI77
F0.5
ss((I68
tp1561
(I60
tp1562
tp1563
(dp1564
I64
F0.04878048780487805
sI65
F0.21951219512195122
sI67
F0.0975609756097561
sI68
F0.024390243902439025
sI70
F0.17073170731707318
sI73
F0.024390243902439025
sI74
F0.024390243902439025
sI55
F0.024390243902439025
sI56
F0.024390243902439025
sI58
F0.024390243902439025
sI60
F0.1951219512195122
sI62
F0.12195121951219512
ss((I69
tp1565
(I66
tp1566
tp1567
(dp1568
I66
F0.14285714285714285
sI67
F0.5714285714285714
sI61
F0.14285714285714285
sI62
F0.14285714285714285
ss((I58
tp1569
(I62
tp1570
tp1571
(dp1572
I66
F0.00949367088607595
sI68
F0.0031645569620253164
sI70
F0.0031645569620253164
sI72
F0.0031645569620253164
sI75
F0.0031645569620253164
sI46
F0.0031645569620253164
sI48
F0.028481012658227847
sI53
F0.022151898734177215
sI55
F0.25
sI56
F0.0031645569620253164
sI57
F0.00949367088607595
sI58
F0.2911392405063291
sI60
F0.07911392405063292
sI62
F0.27531645569620256
sI63
F0.015822784810126583
ss((I26
tp1573
(I29
tp1574
tp1575
(dp1576
I24
F0.47058823529411764
sI27
F0.058823529411764705
sI36
F0.47058823529411764
ss((I48
tp1577
(I40
tp1578
tp1579
(dp1580
I40
F0.5
sI48
F0.5
ss((I65
tp1581
(I80
tp1582
tp1583
(dp1584
I67
F0.5
sI79
F0.5
ss((I62
tp1585
(I67
tp1586
tp1587
(dp1588
I65
F0.07317073170731707
sI67
F0.16463414634146342
sI36
F0.04878048780487805
sI69
F0.1951219512195122
sI70
F0.018292682926829267
sI72
F0.006097560975609756
sI43
F0.07317073170731707
sI48
F0.04878048780487805
sI55
F0.018292682926829267
sI31
F0.07317073170731707
sI60
F0.06097560975609756
sI62
F0.14634146341463414
sI63
F0.07317073170731707
ss((I45
tp1589
(I41
tp1590
tp1591
(dp1592
I43
F1.0
ss((I24
tp1593
(I45
tp1594
tp1595
(dp1596
I34
F0.5
sI46
F0.5
ss((I49
tp1597
(I62
tp1598
tp1599
(dp1600
I61
F1.0
ss((I31
tp1601
(I33
tp1602
tp1603
(dp1604
I38
F1.0
ss((I64
tp1605
(I58
tp1606
tp1607
(dp1608
I64
F0.08695652173913043
sI65
F0.08695652173913043
sI66
F0.08695652173913043
sI67
F0.043478260869565216
sI34
F0.08695652173913043
sI46
F0.08695652173913043
sI56
F0.08695652173913043
sI57
F0.08695652173913043
sI58
F0.17391304347826086
sI61
F0.13043478260869565
sI63
F0.043478260869565216
ss((I22
tp1609
(I27
tp1610
tp1611
(dp1612
I27
F0.5
sI15
F0.5
ss((I63
tp1613
(I56
tp1614
tp1615
(dp1616
I64
F0.15789473684210525
sI68
F0.05263157894736842
sI73
F0.05263157894736842
sI51
F0.05263157894736842
sI56
F0.2631578947368421
sI58
F0.05263157894736842
sI60
F0.05263157894736842
sI61
F0.21052631578947367
sI63
F0.10526315789473684
ss((I76
tp1617
(I70
tp1618
tp1619
(dp1620
I68
F1.0
ss((I69
tp1621
(I80
tp1622
tp1623
(dp1624
I82
F0.5
sI70
F0.5
ss((I65
tp1625
(I71
tp1626
tp1627
(dp1628
I72
F0.3333333333333333
sI74
F0.3333333333333333
sI79
F0.3333333333333333
ss((I43
tp1629
(I41
tp1630
tp1631
(dp1632
I41
F0.5
sI29
F0.5
ss((I65
tp1633
(I45
tp1634
tp1635
(dp1636
I65
F0.5
sI58
F0.5
ss((I67
tp1637
(I66
tp1638
tp1639
(dp1640
I80
F0.5
sI68
F0.5
ss((I51
tp1641
(I48
tp1642
tp1643
(dp1644
I53
F1.0
ss((I33
tp1645
(I64
tp1646
tp1647
(dp1648
I64
F0.4605263157894737
sI57
F0.4605263157894737
sI45
F0.07894736842105263
ss((I43
tp1649
(I67
tp1650
tp1651
(dp1652
I67
F0.5
sI69
F0.5
ss((I86
tp1653
(I61
tp1654
tp1655
(dp1656
I64
F0.3333333333333333
sI97
F0.3333333333333333
sI69
F0.3333333333333333
ss((I78
tp1657
(I78
tp1658
tp1659
(dp1660
I80
F0.5
sI68
F0.5
ss((I77
tp1661
(I58
tp1662
tp1663
(dp1664
I58
F0.5
sI53
F0.5
ss((I61
tp1665
(I61
tp1666
tp1667
(dp1668
I64
F0.05263157894736842
sI56
F0.47368421052631576
sI58
F0.21052631578947367
sI60
F0.05263157894736842
sI61
F0.10526315789473684
sI63
F0.10526315789473684
ss((I60
tp1669
(I67
tp1670
tp1671
(dp1672
I64
F0.005
sI65
F0.04
sI67
F0.26
sI36
F0.12
sI69
F0.035
sI70
F0.03
sI75
F0.005
sI48
F0.16
sI55
F0.015
sI57
F0.035
sI60
F0.26
sI62
F0.025
sI63
F0.01
ss((I61
tp1673
(I63
tp1674
tp1675
(dp1676
I64
F0.07692307692307693
sI66
F0.23076923076923078
sI44
F0.07692307692307693
sI51
F0.15384615384615385
sI56
F0.07692307692307693
sI58
F0.15384615384615385
sI60
F0.07692307692307693
sI61
F0.15384615384615385
ss((I55
tp1677
(I72
tp1678
tp1679
(dp1680
I64
F1.0
ss((I64
tp1681
(I62
tp1682
tp1683
(dp1684
I96
F0.015625
sI65
F0.15625
sI68
F0.09375
sI69
F0.109375
sI38
F0.109375
sI64
F0.015625
sI50
F0.109375
sI85
F0.015625
sI55
F0.046875
sI88
F0.015625
sI57
F0.015625
sI60
F0.09375
sI61
F0.09375
sI62
F0.109375
ss((I73
tp1685
(I60
tp1686
tp1687
(dp1688
I72
F0.3333333333333333
sI75
F0.3333333333333333
sI68
F0.3333333333333333
ss((I29
tp1689
(I46
tp1690
tp1691
(dp1692
I36
F0.3333333333333333
sI43
F0.08333333333333333
sI46
F0.08333333333333333
sI53
F0.08333333333333333
sI24
F0.3333333333333333
sI31
F0.08333333333333333
ss((I46
tp1693
(I26
tp1694
tp1695
(dp1696
I33
F0.5
sI45
F0.5
ss((I46
tp1697
(I44
tp1698
tp1699
(dp1700
I42
F1.0
ss((I73
tp1701
(I68
tp1702
tp1703
(dp1704
I68
F0.25
sI71
F0.125
sI72
F0.125
sI75
F0.125
sI76
F0.25
sI63
F0.125
ss((I24
tp1705
(I36
tp1706
tp1707
(dp1708
I41
F0.3333333333333333
sI34
F0.16666666666666666
sI29
F0.3333333333333333
sI22
F0.16666666666666666
ss((I52
tp1709
(I57
tp1710
tp1711
(dp1712
I48
F0.2916666666666667
sI49
F0.20833333333333334
sI60
F0.2916666666666667
sI61
F0.20833333333333334
ss((I57
tp1713
(I33
tp1714
tp1715
(dp1716
I64
F0.5
sI57
F0.5
ss((I78
tp1717
(I65
tp1718
tp1719
(dp1720
I80
F0.5
sI63
F0.5
ss((I36
tp1721
(I24
tp1722
tp1723
(dp1724
I41
F0.3333333333333333
sI34
F0.16666666666666666
sI29
F0.3333333333333333
sI22
F0.16666666666666666
ss((I77
tp1725
(I73
tp1726
tp1727
(dp1728
I69
F1.0
ss((I53
tp1729
(I48
tp1730
tp1731
(dp1732
I65
F0.22857142857142856
sI72
F0.22857142857142856
sI41
F0.08571428571428572
sI46
F0.05714285714285714
sI48
F0.2
sI53
F0.2
ss((I72
tp1733
(I72
tp1734
tp1735
(dp1736
I65
F0.33858267716535434
sI67
F0.11811023622047244
sI70
F0.023622047244094488
sI71
F0.007874015748031496
sI72
F0.2125984251968504
sI41
F0.12598425196850394
sI74
F0.007874015748031496
sI82
F0.023622047244094488
sI53
F0.12598425196850394
sI60
F0.007874015748031496
sI63
F0.007874015748031496
ss((I39
tp1737
(I51
tp1738
tp1739
(dp1740
I46
F0.5
sI39
F0.5
ss((I82
tp1741
(I69
tp1742
tp1743
(dp1744
I81
F1.0
ss((I67
tp1745
(I77
tp1746
tp1747
(dp1748
I80
F0.2
sI79
F0.2
sI67
F0.2
sI68
F0.2
sI63
F0.2
ss((I58
tp1749
(I56
tp1750
tp1751
(dp1752
I64
F0.10714285714285714
sI66
F0.03571428571428571
sI51
F0.10714285714285714
sI54
F0.03571428571428571
sI56
F0.25
sI60
F0.25
sI61
F0.14285714285714285
sI63
F0.07142857142857142
ss((I61
tp1753
(I67
tp1754
tp1755
(dp1756
I65
F0.21739130434782608
sI66
F0.08695652173913043
sI50
F0.08695652173913043
sI62
F0.30434782608695654
sI69
F0.30434782608695654
ss((I61
tp1757
(I69
tp1758
tp1759
(dp1760
I65
F0.3333333333333333
sI62
F0.3333333333333333
sI70
F0.3333333333333333
ss((I52
tp1761
(I67
tp1762
tp1763
(dp1764
I65
F0.5
sI53
F0.5
ss((I62
tp1765
(I55
tp1766
tp1767
(dp1768
I64
F0.030405405405405407
sI65
F0.010135135135135136
sI53
F0.006756756756756757
sI55
F0.3141891891891892
sI57
F0.010135135135135136
sI58
F0.27364864864864863
sI60
F0.06756756756756757
sI62
F0.28716216216216217
ss((I57
tp1769
(I45
tp1770
tp1771
(dp1772
I64
F0.45714285714285713
sI57
F0.45714285714285713
sI33
F0.08571428571428572
ss((I48
tp1773
(I64
tp1774
tp1775
(dp1776
I62
F1.0
ss((I50
tp1777
(I53
tp1778
tp1779
(dp1780
I51
F1.0
ss((I50
tp1781
(I38
tp1782
tp1783
(dp1784
I50
F0.25
sI45
F0.25
sI62
F0.25
sI69
F0.25
ss((I37
tp1785
(I34
tp1786
tp1787
(dp1788
I49
F0.5
sI37
F0.5
ss((I55
tp1789
(I50
tp1790
tp1791
(dp1792
I41
F0.007782101167315175
sI50
F0.1517509727626459
sI52
F0.17898832684824903
sI55
F0.3229571984435798
sI58
F0.15953307392996108
sI60
F0.17898832684824903
ss((I65
tp1793
(I59
tp1794
tp1795
(dp1796
I70
F1.0
ss((I44
tp1797
(I57
tp1798
tp1799
(dp1800
I68
F1.0
ss((I70
tp1801
(I77
tp1802
tp1803
(dp1804
I58
F0.25
sI54
F0.25
sI66
F0.25
sI70
F0.25
ss((I69
tp1805
(I50
tp1806
tp1807
(dp1808
I67
F0.04395604395604396
sI38
F0.040293040293040296
sI69
F0.48717948717948717
sI62
F0.42857142857142855
ss((I40
tp1809
(I55
tp1810
tp1811
(dp1812
I48
F0.5
sI40
F0.5
ss((I57
tp1813
(I66
tp1814
tp1815
(dp1816
I57
F0.5
sI45
F0.5
ss((I97
tp1817
(I65
tp1818
tp1819
(dp1820
I64
F0.3333333333333333
sI61
F0.3333333333333333
sI69
F0.3333333333333333
ss((I66
tp1821
(I78
tp1822
tp1823
(dp1824
I80
F0.5
sI68
F0.5
ss((I61
tp1825
(I70
tp1826
tp1827
(dp1828
I44
F0.3333333333333333
sI60
F0.3333333333333333
sI77
F0.3333333333333333
ss((I29
tp1829
(I41
tp1830
tp1831
(dp1832
I41
F0.4140625
sI43
F0.0859375
sI29
F0.4140625
sI31
F0.0859375
ss((I24
tp1833
(I33
tp1834
tp1835
(dp1836
I34
F0.5
sI46
F0.5
ss((I17
tp1837
(I29
tp1838
tp1839
(dp1840
I17
F0.5
sI29
F0.5
ss((I70
tp1841
(I63
tp1842
tp1843
(dp1844
I65
F0.15384615384615385
sI70
F0.2692307692307692
sI72
F0.038461538461538464
sI74
F0.038461538461538464
sI58
F0.07692307692307693
sI60
F0.038461538461538464
sI62
F0.23076923076923078
sI63
F0.15384615384615385
ss((I68
tp1845
(I66
tp1846
tp1847
(dp1848
I65
F0.14285714285714285
sI66
F0.14285714285714285
sI70
F0.14285714285714285
sI54
F0.14285714285714285
sI58
F0.2857142857142857
sI62
F0.14285714285714285
ss((I56
tp1849
(I68
tp1850
tp1851
(dp1852
I63
F1.0
ss((I70
tp1853
(I71
tp1854
tp1855
(dp1856
I72
F0.3333333333333333
sI74
F0.3333333333333333
sI79
F0.3333333333333333
ss((I29
tp1857
(I43
tp1858
tp1859
(dp1860
I41
F0.5
sI29
F0.5
ss((I58
tp1861
(I53
tp1862
tp1863
(dp1864
I77
F0.06521739130434782
sI82
F0.06521739130434782
sI53
F0.043478260869565216
sI55
F0.08695652173913043
sI58
F0.17391304347826086
sI60
F0.41304347826086957
sI62
F0.10869565217391304
sI63
F0.043478260869565216
ss((I60
tp1865
(I79
tp1866
tp1867
(dp1868
I65
F0.2
sI75
F0.2
sI62
F0.2
sI70
F0.2
sI63
F0.2
ss((I51
tp1869
(I57
tp1870
tp1871
(dp1872
I58
F0.5
sI68
F0.5
ss((I53
tp1873
(I34
tp1874
tp1875
(dp1876
I41
F0.07142857142857142
sI53
F0.6428571428571429
sI46
F0.2857142857142857
ss((I65
tp1877
(I65
tp1878
tp1879
(dp1880
I64
F0.0412621359223301
sI65
F0.279126213592233
sI66
F0.009708737864077669
sI67
F0.038834951456310676
sI68
F0.007281553398058253
sI69
F0.0024271844660194173
sI70
F0.03398058252427184
sI72
F0.0970873786407767
sI41
F0.038834951456310676
sI75
F0.0048543689320388345
sI34
F0.04854368932038835
sI46
F0.04854368932038835
sI52
F0.01699029126213592
sI53
F0.038834951456310676
sI57
F0.01699029126213592
sI58
F0.1407766990291262
sI60
F0.09223300970873786
sI62
F0.021844660194174758
sI63
F0.021844660194174758
ss((I49
tp1881
(I56
tp1882
tp1883
(dp1884
I42
F0.3333333333333333
sI66
F0.3333333333333333
sI58
F0.3333333333333333
ss((I41
tp1885
(I50
tp1886
tp1887
(dp1888
I48
F0.15384615384615385
sI41
F0.3076923076923077
sI50
F0.3076923076923077
sI43
F0.15384615384615385
sI55
F0.07692307692307693
ss((I66
tp1889
(I64
tp1890
tp1891
(dp1892
I68
F0.16666666666666666
sI72
F0.16666666666666666
sI75
F0.16666666666666666
sI56
F0.16666666666666666
sI60
F0.16666666666666666
sI63
F0.16666666666666666
ss((I55
tp1893
(I70
tp1894
tp1895
(dp1896
I65
F0.5
sI70
F0.5
ss((I66
tp1897
(I51
tp1898
tp1899
(dp1900
I56
F0.6666666666666666
sI46
F0.3333333333333333
ss((I68
tp1901
(I84
tp1902
tp1903
(dp1904
I82
F0.5
sI70
F0.5
ss((I53
tp1905
(I68
tp1906
tp1907
(dp1908
I65
F1.0
ss((I24
tp1909
(I29
tp1910
tp1911
(dp1912
I43
F0.5
sI31
F0.5
ss((I77
tp1913
(I72
tp1914
tp1915
(dp1916
I82
F0.3333333333333333
sI70
F0.6666666666666666
ss((I54
tp1917
(I70
tp1918
tp1919
(dp1920
I66
F0.25
sI54
F0.25
sI58
F0.25
sI70
F0.25
ss((I72
tp1921
(I73
tp1922
tp1923
(dp1924
I69
F1.0
ss((I56
tp1925
(I84
tp1926
tp1927
(dp1928
I82
F0.5
sI70
F0.5
ss((I65
tp1929
(I42
tp1930
tp1931
(dp1932
I54
F1.0
ss((I42
tp1933
(I56
tp1934
tp1935
(dp1936
I66
F0.5
sI61
F0.5
ss((I69
tp1937
(I38
tp1938
tp1939
(dp1940
I67
F0.04580152671755725
sI69
F0.5076335877862596
sI62
F0.44656488549618323
ss((I45
tp1941
(I69
tp1942
tp1943
(dp1944
I64
F0.20689655172413793
sI57
F0.27586206896551724
sI45
F0.034482758620689655
sI69
F0.41379310344827586
sI61
F0.06896551724137931
ss((I89
tp1945
(I88
tp1946
tp1947
(dp1948
I64
F0.25
sI91
F0.5
sI67
F0.25
ss((I45
tp1949
(I43
tp1950
tp1951
(dp1952
I50
F0.1875
sI43
F0.1875
sI53
F0.1875
sI46
F0.25
sI45
F0.1875
ss((I61
tp1953
(I60
tp1954
tp1955
(dp1956
I72
F0.07142857142857142
sI56
F0.07142857142857142
sI58
F0.2857142857142857
sI66
F0.21428571428571427
sI61
F0.35714285714285715
ss((I51
tp1957
(I51
tp1958
tp1959
(dp1960
I56
F0.5
sI51
F0.1
sI60
F0.3
sI63
F0.1
ss((I26
tp1961
(I41
tp1962
tp1963
(dp1964
I24
F0.5
sI36
F0.5
ss((I67
tp1965
(I80
tp1966
tp1967
(dp1968
I65
F0.5
sI77
F0.5
ss((I40
tp1969
(I48
tp1970
tp1971
(dp1972
I40
F0.5
sI48
F0.5
ss((I55
tp1973
(I55
tp1974
tp1975
(dp1976
I64
F0.011568123393316195
sI67
F0.0038560411311053984
sI50
F0.10668380462724936
sI52
F0.10796915167095116
sI53
F0.002570694087403599
sI55
F0.32390745501285345
sI58
F0.21079691516709512
sI60
F0.12724935732647816
sI62
F0.10539845758354756
ss((I63
tp1977
(I70
tp1978
tp1979
(dp1980
I65
F0.14
sI68
F0.06
sI70
F0.26
sI72
F0.1
sI74
F0.02
sI58
F0.06
sI60
F0.02
sI62
F0.04
sI63
F0.3
ss((I53
tp1981
(I53
tp1982
tp1983
(dp1984
I64
F0.03289473684210526
sI65
F0.006578947368421052
sI34
F0.08552631578947369
sI33
F0.05263157894736842
sI77
F0.019736842105263157
sI46
F0.125
sI45
F0.039473684210526314
sI48
F0.06578947368421052
sI82
F0.019736842105263157
sI51
F0.02631578947368421
sI52
F0.03289473684210526
sI53
F0.32894736842105265
sI55
F0.013157894736842105
sI56
F0.07894736842105263
sI58
F0.05263157894736842
sI62
F0.019736842105263157
ss((I63
tp1985
(I80
tp1986
tp1987
(dp1988
I67
F0.5
sI79
F0.5
ss((I60
tp1989
(I46
tp1990
tp1991
(dp1992
I48
F0.3888888888888889
sI60
F0.3888888888888889
sI62
F0.16666666666666666
sI63
F0.05555555555555555
ss((I62
tp1993
(I70
tp1994
tp1995
(dp1996
I65
F0.34615384615384615
sI66
F0.038461538461538464
sI70
F0.15384615384615385
sI75
F0.038461538461538464
sI46
F0.11538461538461539
sI53
F0.11538461538461539
sI55
F0.038461538461538464
sI58
F0.038461538461538464
sI62
F0.038461538461538464
sI63
F0.07692307692307693
ss((I64
tp1997
(I73
tp1998
tp1999
(dp2000
I72
F0.3333333333333333
sI68
F0.3333333333333333
sI63
F0.3333333333333333
ss((I41
tp2001
(I72
tp2002
tp2003
(dp2004
I72
F0.5
sI65
F0.5
ss((I91
tp2005
(I93
tp2006
tp2007
(dp2008
I98
F1.0
ss((I79
tp2009
(I79
tp2010
tp2011
(dp2012
I80
F0.16666666666666666
sI65
F0.3333333333333333
sI68
F0.16666666666666666
sI77
F0.3333333333333333
ss((I63
tp2013
(I64
tp2014
tp2015
(dp2016
I56
F0.2
sI64
F0.2
sI51
F0.2
sI61
F0.2
sI63
F0.2
ss((I43
tp2017
(I43
tp2018
tp2019
(dp2020
I50
F0.3333333333333333
sI43
F0.5
sI36
F0.16666666666666666
ss((I31
tp2021
(I67
tp2022
tp2023
(dp2024
I67
F0.5
sI69
F0.5
ss((I63
tp2025
(I66
tp2026
tp2027
(dp2028
I64
F0.06451612903225806
sI65
F0.22580645161290322
sI70
F0.03225806451612903
sI74
F0.03225806451612903
sI56
F0.06451612903225806
sI58
F0.2903225806451613
sI60
F0.03225806451612903
sI61
F0.06451612903225806
sI62
F0.1935483870967742
ss((I36
tp2029
(I65
tp2030
tp2031
(dp2032
I67
F0.5
sI60
F0.5
ss((I58
tp2033
(I57
tp2034
tp2035
(dp2036
I64
F0.11904761904761904
sI65
F0.16666666666666666
sI33
F0.11904761904761904
sI45
F0.21428571428571427
sI57
F0.21428571428571427
sI58
F0.15476190476190477
sI62
F0.011904761904761904
ss((I58
tp2037
(I51
tp2038
tp2039
(dp2040
I50
F0.2
sI51
F0.05
sI53
F0.2
sI56
F0.1
sI58
F0.05
sI60
F0.3
sI61
F0.05
sI63
F0.05
ss((I51
tp2041
(I60
tp2042
tp2043
(dp2044
I56
F0.4
sI58
F0.3
sI51
F0.2
sI61
F0.1
ss((I43
tp2045
(I36
tp2046
tp2047
(dp2048
I43
F0.5
sI36
F0.5
ss((I55
tp2049
(I59
tp2050
tp2051
(dp2052
I59
F0.6666666666666666
sI55
F0.3333333333333333
ss((I63
tp2053
(I74
tp2054
tp2055
(dp2056
I72
F0.5
sI68
F0.5
ss((I38
tp2057
(I50
tp2058
tp2059
(dp2060
I62
F0.25
sI45
F0.25
sI38
F0.25
sI69
F0.25
ss((I75
tp2061
(I76
tp2062
tp2063
(dp2064
I72
F1.0
ss((I53
tp2065
(I33
tp2066
tp2067
(dp2068
I34
F0.25
sI53
F0.5
sI45
F0.25
ss((I79
tp2069
(I70
tp2070
tp2071
(dp2072
I80
F0.5
sI68
F0.5
ss((I15
tp2073
(I36
tp2074
tp2075
(dp2076
I24
F0.25
sI27
F0.25
sI36
F0.25
sI15
F0.25
ss((I48
tp2077
(I60
tp2078
tp2079
(dp2080
I67
F0.3333333333333333
sI46
F0.07291666666666667
sI50
F0.09375
sI58
F0.07291666666666667
sI60
F0.3333333333333333
sI62
F0.09375
ss((I74
tp2081
(I60
tp2082
tp2083
(dp2084
I69
F0.5
sI62
F0.5
ss((I39
tp2085
(I45
tp2086
tp2087
(dp2088
I50
F0.1
sI38
F0.15
sI45
F0.25
sI46
F0.25
sI39
F0.25
ss((I72
tp2089
(I41
tp2090
tp2091
(dp2092
I72
F0.5
sI65
F0.5
ss((I80
tp2093
(I82
tp2094
tp2095
(dp2096
I65
F0.5
sI77
F0.5
ss((I55
tp2097
(I69
tp2098
tp2099
(dp2100
I65
F0.5
sI57
F0.5
ss((I49
tp2101
(I61
tp2102
tp2103
(dp2104
I54
F1.0
ss((I46
tp2105
(I45
tp2106
tp2107
(dp2108
I65
F0.12658227848101267
sI34
F0.05063291139240506
sI33
F0.012658227848101266
sI38
F0.0379746835443038
sI39
F0.06329113924050633
sI45
F0.21518987341772153
sI46
F0.13924050632911392
sI50
F0.05063291139240506
sI53
F0.10126582278481013
sI57
F0.0759493670886076
sI58
F0.12658227848101267
ss((I84
tp2109
(I84
tp2110
tp2111
(dp2112
I82
F0.7
sI70
F0.3
ss((I38
tp2113
(I39
tp2114
tp2115
(dp2116
I50
F1.0
ss((I67
tp2117
(I85
tp2118
tp2119
(dp2120
I81
F1.0
ss((I53
tp2121
(I65
tp2122
tp2123
(dp2124
I64
F0.10416666666666667
sI65
F0.3541666666666667
sI72
F0.3333333333333333
sI52
F0.10416666666666667
sI53
F0.020833333333333332
sI58
F0.041666666666666664
sI60
F0.020833333333333332
sI62
F0.020833333333333332
ss((I51
tp2125
(I63
tp2126
tp2127
(dp2128
I56
F0.3333333333333333
sI60
F0.5
sI63
F0.16666666666666666
ss((I59
tp2129
(I68
tp2130
tp2131
(dp2132
I42
F0.5
sI58
F0.5
ss((I24
tp2133
(I22
tp2134
tp2135
(dp2136
I24
F0.5
sI36
F0.5
ss((I81
tp2137
(I80
tp2138
tp2139
(dp2140
I82
F0.5
sI70
F0.5
ss((I80
tp2141
(I68
tp2142
tp2143
(dp2144
I66
F0.25
sI70
F0.25
sI82
F0.25
sI78
F0.25
ss((I70
tp2145
(I86
tp2146
tp2147
(dp2148
I72
F0.5
sI84
F0.5
ss((I43
tp2149
(I69
tp2150
tp2151
(dp2152
I67
F0.5
sI69
F0.5
ss((I45
tp2153
(I53
tp2154
tp2155
(dp2156
I48
F0.13333333333333333
sI33
F0.13333333333333333
sI57
F0.26666666666666666
sI53
F0.1
sI45
F0.36666666666666664
ss((I65
tp2157
(I63
tp2158
tp2159
(dp2160
I66
F0.1875
sI70
F0.125
sI75
F0.0625
sI58
F0.3125
sI62
F0.0625
sI63
F0.25
ss((I57
tp2161
(I58
tp2162
tp2163
(dp2164
I64
F0.08695652173913043
sI65
F0.08695652173913043
sI34
F0.08695652173913043
sI45
F0.08695652173913043
sI46
F0.08695652173913043
sI55
F0.08695652173913043
sI57
F0.17391304347826086
sI58
F0.08695652173913043
sI60
F0.13043478260869565
sI62
F0.08695652173913043
ss((I52
tp2165
(I60
tp2166
tp2167
(dp2168
I48
F0.17073170731707318
sI50
F0.21951219512195122
sI60
F0.17073170731707318
sI58
F0.21951219512195122
sI55
F0.21951219512195122
ss((I60
tp2169
(I77
tp2170
tp2171
(dp2172
I74
F0.5
sI62
F0.5
ss((I44
tp2173
(I64
tp2174
tp2175
(dp2176
I61
F1.0
ss((I36
tp2177
(I43
tp2178
tp2179
(dp2180
I48
F0.4
sI43
F0.3
sI36
F0.3
ss((I43
tp2181
(I53
tp2182
tp2183
(dp2184
I52
F1.0
ss((I37
tp2185
(I46
tp2186
tp2187
(dp2188
I49
F0.5
sI37
F0.5
ss((I26
tp2189
(I26
tp2190
tp2191
(dp2192
I26
F0.5
sI38
F0.5
ss((I66
tp2193
(I61
tp2194
tp2195
(dp2196
I64
F0.1111111111111111
sI66
F0.1111111111111111
sI56
F0.1111111111111111
sI58
F0.2222222222222222
sI60
F0.1111111111111111
sI61
F0.1111111111111111
sI63
F0.2222222222222222
ss((I52
tp2197
(I49
tp2198
tp2199
(dp2200
I50
F0.5
sI62
F0.5
ss((I24
tp2201
(I27
tp2202
tp2203
(dp2204
I24
F0.2222222222222222
sI26
F0.1111111111111111
sI27
F0.2222222222222222
sI36
F0.2222222222222222
sI15
F0.2222222222222222
ss((I58
tp2205
(I61
tp2206
tp2207
(dp2208
I54
F0.09090909090909091
sI56
F0.18181818181818182
sI58
F0.18181818181818182
sI60
F0.36363636363636365
sI61
F0.09090909090909091
sI63
F0.09090909090909091
ss((I76
tp2209
(I79
tp2210
tp2211
(dp2212
I64
F0.25
sI65
F0.25
sI76
F0.25
sI77
F0.25
ss((I70
tp2213
(I67
tp2214
tp2215
(dp2216
I67
F0.125
sI68
F0.125
sI70
F0.125
sI72
F0.125
sI75
F0.125
sI58
F0.25
sI60
F0.125
ss((I63
tp2217
(I67
tp2218
tp2219
(dp2220
I65
F0.23809523809523808
sI67
F0.38095238095238093
sI62
F0.19047619047619047
sI63
F0.19047619047619047
ss((I80
tp2221
(I72
tp2222
tp2223
(dp2224
I65
F1.0
ss((I56
tp2225
(I49
tp2226
tp2227
(dp2228
I56
F0.3333333333333333
sI58
F0.3333333333333333
sI61
F0.3333333333333333
ss((I72
tp2229
(I62
tp2230
tp2231
(dp2232
I65
F0.16666666666666666
sI74
F0.16666666666666666
sI70
F0.6666666666666666
ss((I65
tp2233
(I69
tp2234
tp2235
(dp2236
I65
F0.06451612903225806
sI67
F0.0967741935483871
sI69
F0.22580645161290322
sI70
F0.03225806451612903
sI74
F0.06451612903225806
sI86
F0.06451612903225806
sI57
F0.16129032258064516
sI58
F0.12903225806451613
sI62
F0.16129032258064516
ss((I27
tp2237
(I34
tp2238
tp2239
(dp2240
I15
F0.25
sI27
F0.5
sI39
F0.25
ss((I53
tp2241
(I51
tp2242
tp2243
(dp2244
I32
F0.25
sI51
F0.25
sI29
F0.25
sI53
F0.25
ss((I45
tp2245
(I45
tp2246
tp2247
(dp2248
I34
F0.05714285714285714
sI38
F0.08571428571428572
sI45
F0.37142857142857144
sI46
F0.05714285714285714
sI50
F0.2
sI53
F0.08571428571428572
sI57
F0.08571428571428572
sI61
F0.05714285714285714
ss((I44
tp2249
(I72
tp2250
tp2251
(dp2252
I58
F0.5
sI70
F0.5
ss((I65
tp2253
(I70
tp2254
tp2255
(dp2256
I65
F0.13157894736842105
sI66
F0.02631578947368421
sI67
F0.02631578947368421
sI69
F0.02631578947368421
sI70
F0.2894736842105263
sI72
F0.05263157894736842
sI74
F0.02631578947368421
sI75
F0.02631578947368421
sI81
F0.02631578947368421
sI58
F0.07894736842105263
sI60
F0.02631578947368421
sI62
F0.10526315789473684
sI63
F0.15789473684210525
ss((I69
tp2257
(I45
tp2258
tp2259
(dp2260
I69
F0.75
sI62
F0.25
ss((I51
tp2261
(I53
tp2262
tp2263
(dp2264
I32
F0.2
sI46
F0.05
sI51
F0.2
sI53
F0.3
sI29
F0.2
sI63
F0.05
ss((I72
tp2265
(I77
tp2266
tp2267
(dp2268
I74
F0.5
sI62
F0.5
ss((I75
tp2269
(I66
tp2270
tp2271
(dp2272
I65
F0.25
sI58
F0.25
sI62
F0.25
sI74
F0.125
sI70
F0.125
ss((I68
tp2273
(I48
tp2274
tp2275
(dp2276
I57
F1.0
ss((I63
tp2277
(I68
tp2278
tp2279
(dp2280
I63
F0.3333333333333333
sI67
F0.3333333333333333
sI79
F0.3333333333333333
ss((I84
tp2281
(I64
tp2282
tp2283
(dp2284
I74
F0.5
sI86
F0.5
ss((I80
tp2285
(I58
tp2286
tp2287
(dp2288
I66
F0.16666666666666666
sI70
F0.16666666666666666
sI77
F0.16666666666666666
sI82
F0.16666666666666666
sI54
F0.16666666666666666
sI58
F0.16666666666666666
ss((I52
tp2289
(I61
tp2290
tp2291
(dp2292
I56
F0.16666666666666666
sI50
F0.4166666666666667
sI62
F0.4166666666666667
ss((I48
tp2293
(I48
tp2294
tp2295
(dp2296
I40
F0.03571428571428571
sI41
F0.07142857142857142
sI46
F0.16071428571428573
sI48
F0.19642857142857142
sI50
F0.16071428571428573
sI53
F0.08928571428571429
sI58
F0.125
sI62
F0.16071428571428573
ss((I68
tp2297
(I67
tp2298
tp2299
(dp2300
I65
F0.34782608695652173
sI82
F0.043478260869565216
sI68
F0.13043478260869565
sI62
F0.21739130434782608
sI70
F0.2608695652173913
ss((I50
tp2301
(I46
tp2302
tp2303
(dp2304
I39
F0.15555555555555556
sI43
F0.06666666666666667
sI45
F0.044444444444444446
sI46
F0.2222222222222222
sI48
F0.2
sI50
F0.1111111111111111
sI60
F0.2
ss((I67
tp2305
(I68
tp2306
tp2307
(dp2308
I65
F0.23529411764705882
sI67
F0.17647058823529413
sI68
F0.17647058823529413
sI77
F0.058823529411764705
sI55
F0.17647058823529413
sI60
F0.17647058823529413
ss((I82
tp2309
(I72
tp2310
tp2311
(dp2312
I80
F0.5
sI75
F0.5
ss((I86
tp2313
(I86
tp2314
tp2315
(dp2316
I88
F0.3333333333333333
sI85
F0.6666666666666666
ss((I80
tp2317
(I77
tp2318
tp2319
(dp2320
I67
F0.5
sI79
F0.5
ss((I74
tp2321
(I72
tp2322
tp2323
(dp2324
I69
F0.3333333333333333
sI62
F0.3333333333333333
sI71
F0.3333333333333333
ss((I46
tp2325
(I64
tp2326
tp2327
(dp2328
I65
F0.5
sI58
F0.5
ss((I69
tp2329
(I74
tp2330
tp2331
(dp2332
I74
F0.5
sI69
F0.5
ss((I64
tp2333
(I38
tp2334
tp2335
(dp2336
I64
F0.5
sI57
F0.5
ss((I73
tp2337
(I58
tp2338
tp2339
(dp2340
I65
F1.0
ss((I67
tp2341
(I91
tp2342
tp2343
(dp2344
I88
F0.5
sI96
F0.5
ss((I49
tp2345
(I46
tp2346
tp2347
(dp2348
I49
F0.4
sI37
F0.4
sI47
F0.2
ss((I73
tp2349
(I73
tp2350
tp2351
(dp2352
I72
F0.3333333333333333
sI68
F0.3333333333333333
sI63
F0.3333333333333333
ss((I91
tp2353
(I70
tp2354
tp2355
(dp2356
I96
F1.0
ss((I57
tp2357
(I52
tp2358
tp2359
(dp2360
I65
F0.5
sI53
F0.5
ss((I64
tp2361
(I77
tp2362
tp2363
(dp2364
I67
F0.5
sI79
F0.5
ss((I33
tp2365
(I26
tp2366
tp2367
(dp2368
I33
F0.0625
sI26
F0.4375
sI45
F0.0625
sI38
F0.4375
ss((I64
tp2369
(I34
tp2370
tp2371
(dp2372
I64
F0.5
sI57
F0.5
ss((I77
tp2373
(I68
tp2374
tp2375
(dp2376
I67
F0.5
sI79
F0.5
ss((I63
tp2377
(I72
tp2378
tp2379
(dp2380
I65
F0.2
sI63
F0.2
sI68
F0.4
sI60
F0.2
ss((I63
tp2381
(I57
tp2382
tp2383
(dp2384
I65
F0.2
sI63
F0.4
sI68
F0.1
sI62
F0.1
sI57
F0.2
ss((I54
tp2385
(I61
tp2386
tp2387
(dp2388
I58
F0.5
sI42
F0.5
ss((I29
tp2389
(I27
tp2390
tp2391
(dp2392
I39
F0.17
sI41
F0.17
sI15
F0.08
sI17
F0.08
sI27
F0.25
sI29
F0.25
ss((I54
tp2393
(I63
tp2394
tp2395
(dp2396
I58
F1.0
ss((I30
tp2397
(I32
tp2398
tp2399
(dp2400
I32
F1.0
ss((I67
tp2401
(I62
tp2402
tp2403
(dp2404
I96
F0.008264462809917356
sI65
F0.049586776859504134
sI67
F0.18181818181818182
sI68
F0.049586776859504134
sI69
F0.19834710743801653
sI70
F0.024793388429752067
sI50
F0.09917355371900827
sI85
F0.008264462809917356
sI88
F0.008264462809917356
sI38
F0.09917355371900827
sI60
F0.09090909090909091
sI62
F0.1487603305785124
sI63
F0.03305785123966942
ss((I52
tp2405
(I50
tp2406
tp2407
(dp2408
I50
F0.16299559471365638
sI52
F0.16740088105726872
sI55
F0.3303964757709251
sI58
F0.16299559471365638
sI60
F0.16740088105726872
sI62
F0.00881057268722467
ss((I69
tp2409
(I88
tp2410
tp2411
(dp2412
I89
F0.8
sI61
F0.2
ss((I58
tp2413
(I74
tp2414
tp2415
(dp2416
I72
F0.125
sI74
F0.125
sI60
F0.125
sI69
F0.375
sI62
F0.25
ss((I50
tp2417
(I60
tp2418
tp2419
(dp2420
I64
F0.029288702928870293
sI50
F0.15481171548117154
sI52
F0.18828451882845187
sI55
F0.3138075313807531
sI58
F0.15481171548117154
sI60
F0.1589958158995816
ss((I77
tp2421
(I84
tp2422
tp2423
(dp2424
I82
F0.5
sI70
F0.5
ss((I68
tp2425
(I72
tp2426
tp2427
(dp2428
I65
F0.1
sI58
F0.1
sI62
F0.1
sI82
F0.1
sI70
F0.6
ss((I27
tp2429
(I17
tp2430
tp2431
(dp2432
I17
F0.25
sI27
F0.25
sI29
F0.25
sI15
F0.25
ss((I32
tp2433
(I31
tp2434
tp2435
(dp2436
I29
F1.0
ss((I27
tp2437
(I31
tp2438
tp2439
(dp2440
I27
F0.5
sI39
F0.5
ss((I75
tp2441
(I73
tp2442
tp2443
(dp2444
I68
F0.5
sI63
F0.5
ss((I41
tp2445
(I46
tp2446
tp2447
(dp2448
I34
F0.030303030303030304
sI36
F0.24242424242424243
sI41
F0.09090909090909091
sI43
F0.09090909090909091
sI46
F0.06060606060606061
sI53
F0.06060606060606061
sI24
F0.24242424242424243
sI29
F0.12121212121212122
sI31
F0.06060606060606061
ss((I60
tp2449
(I36
tp2450
tp2451
(dp2452
I67
F0.5
sI60
F0.5
ss((I65
tp2453
(I34
tp2454
tp2455
(dp2456
I65
F0.5
sI58
F0.5
ss((I72
tp2457
(I74
tp2458
tp2459
(dp2460
I73
F0.5
sI70
F0.5
ss((I55
tp2461
(I62
tp2462
tp2463
(dp2464
I65
F0.009900990099009901
sI48
F0.009900990099009901
sI53
F0.0033003300330033004
sI55
F0.29372937293729373
sI57
F0.009900990099009901
sI58
F0.264026402640264
sI60
F0.13861386138613863
sI62
F0.2706270627062706
ss((I91
tp2465
(I65
tp2466
tp2467
(dp2468
I96
F0.5
sI84
F0.5
ss((I81
tp2469
(I81
tp2470
tp2471
(dp2472
I81
F1.0
ss((I69
tp2473
(I36
tp2474
tp2475
(dp2476
I69
F0.5
sI62
F0.5
ss((I51
tp2477
(I29
tp2478
tp2479
(dp2480
I32
F0.25
sI51
F0.25
sI53
F0.25
sI29
F0.25
ss((I57
tp2481
(I57
tp2482
tp2483
(dp2484
I64
F0.21105527638190955
sI65
F0.02512562814070352
sI69
F0.02512562814070352
sI33
F0.1306532663316583
sI45
F0.16080402010050251
sI57
F0.25125628140703515
sI58
F0.09045226130653267
sI62
F0.02512562814070352
sI63
F0.08040201005025126
ss((I62
tp2485
(I63
tp2486
tp2487
(dp2488
I65
F0.11666666666666667
sI66
F0.03333333333333333
sI67
F0.06666666666666667
sI70
F0.03333333333333333
sI58
F0.05
sI60
F0.016666666666666666
sI62
F0.4
sI63
F0.2833333333333333
ss((I95
tp2489
(I98
tp2490
tp2491
(dp2492
I97
F1.0
ss((I80
tp2493
(I67
tp2494
tp2495
(dp2496
I82
F0.5
sI70
F0.5
ss((I70
tp2497
(I72
tp2498
tp2499
(dp2500
I80
F0.25
sI66
F0.25
sI75
F0.25
sI71
F0.25
ss((I68
tp2501
(I68
tp2502
tp2503
(dp2504
I64
F0.0625
sI66
F0.0625
sI67
F0.0625
sI68
F0.0625
sI70
F0.0625
sI71
F0.0625
sI72
F0.0625
sI73
F0.0625
sI78
F0.0625
sI82
F0.0625
sI60
F0.25
sI63
F0.125
ss((I70
tp2505
(I80
tp2506
tp2507
(dp2508
I66
F0.3333333333333333
sI67
F0.3333333333333333
sI79
F0.3333333333333333
ss((I62
tp2509
(I43
tp2510
tp2511
(dp2512
I69
F0.5
sI62
F0.5
ss((I15
tp2513
(I27
tp2514
tp2515
(dp2516
I34
F0.08695652173913043
sI27
F0.41304347826086957
sI22
F0.08695652173913043
sI15
F0.41304347826086957
ss((I26
tp2517
(I24
tp2518
tp2519
(dp2520
I26
F0.3333333333333333
sI27
F0.16666666666666666
sI38
F0.3333333333333333
sI39
F0.16666666666666666
ss((I65
tp2521
(I52
tp2522
tp2523
(dp2524
I67
F0.5
sI55
F0.5
ss((I70
tp2525
(I78
tp2526
tp2527
(dp2528
I73
F1.0
ss((I39
tp2529
(I36
tp2530
tp2531
(dp2532
I48
F0.2
sI24
F0.1
sI27
F0.2
sI36
F0.3
sI39
F0.2
ss((I60
tp2533
(I50
tp2534
tp2535
(dp2536
I60
F0.1688888888888889
sI58
F0.16444444444444445
sI52
F0.1688888888888889
sI50
F0.16444444444444445
sI55
F0.3333333333333333
ss((I22
tp2537
(I43
tp2538
tp2539
(dp2540
I24
F0.5
sI36
F0.5
ss((I62
tp2541
(I69
tp2542
tp2543
(dp2544
I64
F0.002320185614849188
sI65
F0.004640371229698376
sI67
F0.013921113689095127
sI69
F0.34454756380510443
sI38
F0.12761020881670534
sI33
F0.004640371229698376
sI74
F0.002320185614849188
sI43
F0.013921113689095127
sI77
F0.001160092807424594
sI45
F0.004640371229698376
sI50
F0.13805104408352667
sI86
F0.002320185614849188
sI57
F0.0034802784222737818
sI62
F0.3225058004640371
sI31
F0.013921113689095127
ss((I41
tp2545
(I43
tp2546
tp2547
(dp2548
I48
F0.03571428571428571
sI41
F0.4642857142857143
sI50
F0.03571428571428571
sI43
F0.03571428571428571
sI29
F0.42857142857142855
ss((I31
tp2549
(I41
tp2550
tp2551
(dp2552
I41
F0.5
sI29
F0.5
ss((I91
tp2553
(I84
tp2554
tp2555
(dp2556
I88
F1.0
ss((I44
tp2557
(I62
tp2558
tp2559
(dp2560
I63
F1.0
ss((I70
tp2561
(I69
tp2562
tp2563
(dp2564
I65
F0.1875
sI69
F0.1875
sI70
F0.0625
sI74
F0.125
sI86
F0.125
sI57
F0.125
sI58
F0.1875
ss((I32
tp2565
(I53
tp2566
tp2567
(dp2568
I32
F0.25
sI51
F0.25
sI53
F0.25
sI29
F0.25
ss((I43
tp2569
(I45
tp2570
tp2571
(dp2572
I50
F0.5
sI43
F0.25
sI45
F0.25
ss((I45
tp2573
(I65
tp2574
tp2575
(dp2576
I57
F0.5
sI45
F0.5
ss((I34
tp2577
(I45
tp2578
tp2579
(dp2580
I65
F0.45454545454545453
sI58
F0.45454545454545453
sI45
F0.045454545454545456
sI33
F0.045454545454545456
ss((I86
tp2581
(I65
tp2582
tp2583
(dp2584
I64
F0.3333333333333333
sI76
F0.16666666666666666
sI61
F0.16666666666666666
sI69
F0.16666666666666666
sI85
F0.16666666666666666
ss((I59
tp2585
(I59
tp2586
tp2587
(dp2588
I55
F1.0
ss((I48
tp2589
(I27
tp2590
tp2591
(dp2592
I48
F0.25
sI27
F0.25
sI36
F0.25
sI39
F0.25
ss((I70
tp2593
(I55
tp2594
tp2595
(dp2596
I59
F0.5
sI60
F0.5
ss((I67
tp2597
(I71
tp2598
tp2599
(dp2600
I69
F1.0
ss((I72
tp2601
(I79
tp2602
tp2603
(dp2604
I75
F0.3333333333333333
sI76
F0.3333333333333333
sI63
F0.3333333333333333
ss((I74
tp2605
(I64
tp2606
tp2607
(dp2608
I66
F1.0
ss((I72
tp2609
(I75
tp2610
tp2611
(dp2612
I73
F0.5
sI82
F0.16666666666666666
sI70
F0.16666666666666666
sI71
F0.16666666666666666
ss((I82
tp2613
(I58
tp2614
tp2615
(dp2616
I80
F0.1
sI58
F0.4
sI68
F0.1
sI53
F0.4
ss((I89
tp2617
(I86
tp2618
tp2619
(dp2620
I88
F1.0
ss((I75
tp2621
(I53
tp2622
tp2623
(dp2624
I82
F0.25
sI77
F0.5
sI62
F0.25
ss((I56
tp2625
(I55
tp2626
tp2627
(dp2628
I53
F1.0
ss((I50
tp2629
(I41
tp2630
tp2631
(dp2632
I48
F0.13333333333333333
sI41
F0.4
sI50
F0.26666666666666666
sI51
F0.2
ss((I39
tp2633
(I40
tp2634
tp2635
(dp2636
I40
F0.25
sI48
F0.25
sI46
F0.25
sI39
F0.25
ss((I27
tp2637
(I26
tp2638
tp2639
(dp2640
I27
F0.5
sI39
F0.5
ss((I39
tp2641
(I41
tp2642
tp2643
(dp2644
I39
F0.26732673267326734
sI40
F0.009900990099009901
sI41
F0.22772277227722773
sI43
F0.019801980198019802
sI27
F0.22772277227722773
sI29
F0.22772277227722773
sI31
F0.019801980198019802
ss((I26
tp2645
(I34
tp2646
tp2647
(dp2648
I27
F1.0
ss((I69
tp2649
(I53
tp2650
tp2651
(dp2652
I67
F0.5
sI55
F0.5
ss((I84
tp2653
(I80
tp2654
tp2655
(dp2656
I82
F0.5
sI70
F0.5
ss((I63
tp2657
(I55
tp2658
tp2659
(dp2660
I68
F1.0
ss((I51
tp2661
(I70
tp2662
tp2663
(dp2664
I44
F0.5
sI60
F0.5
ss((I86
tp2665
(I82
tp2666
tp2667
(dp2668
I84
F1.0
ss((I74
tp2669
(I71
tp2670
tp2671
(dp2672
I72
F1.0
ss((I85
tp2673
(I65
tp2674
tp2675
(dp2676
I62
F1.0
ss((I46
tp2677
(I53
tp2678
tp2679
(dp2680
I34
F0.16326530612244897
sI45
F0.061224489795918366
sI46
F0.24489795918367346
sI48
F0.061224489795918366
sI51
F0.02040816326530612
sI53
F0.42857142857142855
sI62
F0.02040816326530612
ss((I62
tp2681
(I31
tp2682
tp2683
(dp2684
I69
F0.5
sI62
F0.5
ss((I48
tp2685
(I62
tp2686
tp2687
(dp2688
I53
F1.0
ss((I34
tp2689
(I37
tp2690
tp2691
(dp2692
I36
F1.0
ss((I67
tp2693
(I76
tp2694
tp2695
(dp2696
I65
F0.5
sI77
F0.5
ss((I46
tp2697
(I59
tp2698
tp2699
(dp2700
I70
F1.0
ss((I45
tp2701
(I52
tp2702
tp2703
(dp2704
I65
F0.5
sI53
F0.5
ss((I77
tp2705
(I70
tp2706
tp2707
(dp2708
I81
F0.25
sI68
F0.25
sI69
F0.5
ss((I69
tp2709
(I91
tp2710
tp2711
(dp2712
I93
F1.0
ss((I53
tp2713
(I37
tp2714
tp2715
(dp2716
I49
F0.25
sI37
F0.25
sI29
F0.25
sI53
F0.25
ss((I46
tp2717
(I43
tp2718
tp2719
(dp2720
I48
F0.3333333333333333
sI51
F0.3333333333333333
sI45
F0.3333333333333333
ss((I60
tp2721
(I62
tp2722
tp2723
(dp2724
I65
F0.12790697674418605
sI67
F0.023255813953488372
sI68
F0.11627906976744186
sI70
F0.03488372093023256
sI53
F0.023255813953488372
sI55
F0.03488372093023256
sI58
F0.05813953488372093
sI60
F0.38372093023255816
sI62
F0.18604651162790697
sI63
F0.011627906976744186
ss((I41
tp2725
(I67
tp2726
tp2727
(dp2728
I72
F0.5
sI65
F0.5
ss((I64
tp2729
(I69
tp2730
tp2731
(dp2732
I64
F0.014285714285714285
sI65
F0.14285714285714285
sI69
F0.11428571428571428
sI70
F0.07142857142857142
sI48
F0.1
sI81
F0.014285714285714285
sI50
F0.1
sI57
F0.014285714285714285
sI38
F0.1
sI60
F0.1
sI61
F0.04285714285714286
sI62
F0.18571428571428572
ss((I69
tp2733
(I33
tp2734
tp2735
(dp2736
I69
F0.75
sI62
F0.25
ss((I88
tp2737
(I91
tp2738
tp2739
(dp2740
I89
F0.6666666666666666
sI90
F0.3333333333333333
ss((I64
tp2741
(I46
tp2742
tp2743
(dp2744
I64
F0.5
sI57
F0.5
ss((I91
tp2745
(I88
tp2746
tp2747
(dp2748
I89
F1.0
ss((I55
tp2749
(I65
tp2750
tp2751
(dp2752
I58
F0.2
sI60
F0.2
sI53
F0.2
sI62
F0.2
sI55
F0.2
ss((I51
tp2753
(I55
tp2754
tp2755
(dp2756
I53
F1.0
ss((I45
tp2757
(I33
tp2758
tp2759
(dp2760
I34
F0.5
sI46
F0.5
ss((I29
tp2761
(I32
tp2762
tp2763
(dp2764
I32
F0.25
sI51
F0.25
sI29
F0.25
sI53
F0.25
ss((I80
tp2765
(I70
tp2766
tp2767
(dp2768
I65
F0.16666666666666666
sI66
F0.16666666666666666
sI70
F0.16666666666666666
sI77
F0.16666666666666666
sI54
F0.16666666666666666
sI58
F0.16666666666666666
ss((I48
tp2769
(I51
tp2770
tp2771
(dp2772
I48
F0.13333333333333333
sI32
F0.13333333333333333
sI50
F0.4666666666666667
sI51
F0.13333333333333333
sI36
F0.13333333333333333
ss((I65
tp2773
(I61
tp2774
tp2775
(dp2776
I64
F0.4375
sI65
F0.0625
sI69
F0.4375
sI86
F0.0625
ss((I69
tp2777
(I63
tp2778
tp2779
(dp2780
I66
F0.2
sI67
F0.2
sI74
F0.2
sI62
F0.2
sI69
F0.2
ss((I76
tp2781
(I73
tp2782
tp2783
(dp2784
I68
F1.0
ss((I58
tp2785
(I34
tp2786
tp2787
(dp2788
I65
F0.5
sI58
F0.5
ss((I36
tp2789
(I48
tp2790
tp2791
(dp2792
I36
F1.0
ss((I84
tp2793
(I75
tp2794
tp2795
(dp2796
I82
F0.5
sI70
F0.5
ss((I65
tp2797
(I89
tp2798
tp2799
(dp2800
I69
F1.0
ss((I60
tp2801
(I55
tp2802
tp2803
(dp2804
I64
F0.045180722891566265
sI65
F0.018072289156626505
sI69
F0.02108433734939759
sI50
F0.13855421686746988
sI52
F0.1144578313253012
sI55
F0.2710843373493976
sI57
F0.02108433734939759
sI58
F0.13855421686746988
sI59
F0.006024096385542169
sI60
F0.15963855421686746
sI61
F0.006024096385542169
sI62
F0.060240963855421686
ss((I77
tp2805
(I67
tp2806
tp2807
(dp2808
I80
F0.25
sI67
F0.25
sI68
F0.25
sI79
F0.25
ss((I81
tp2809
(I71
tp2810
tp2811
(dp2812
I69
F1.0
ss((I73
tp2813
(I72
tp2814
tp2815
(dp2816
I61
F1.0
ss((I70
tp2817
(I82
tp2818
tp2819
(dp2820
I80
F0.08333333333333333
sI56
F0.08333333333333333
sI68
F0.16666666666666666
sI72
F0.3333333333333333
sI84
F0.3333333333333333
ss((I36
tp2821
(I39
tp2822
tp2823
(dp2824
I48
F0.2
sI27
F0.2
sI36
F0.2
sI38
F0.1
sI39
F0.3
ss((I66
tp2825
(I75
tp2826
tp2827
(dp2828
I65
F0.3333333333333333
sI70
F0.1111111111111111
sI74
F0.1111111111111111
sI77
F0.1111111111111111
sI58
F0.1111111111111111
sI62
F0.2222222222222222
ss((I34
tp2829
(I38
tp2830
tp2831
(dp2832
I33
F0.1076923076923077
sI36
F0.7846153846153846
sI45
F0.1076923076923077
ss((I49
tp2833
(I45
tp2834
tp2835
(dp2836
I57
F0.5
sI45
F0.5
ss((I34
tp2837
(I31
tp2838
tp2839
(dp2840
I24
F0.5
sI36
F0.5
ss((I65
tp2841
(I85
tp2842
tp2843
(dp2844
I64
F0.3333333333333333
sI67
F0.3333333333333333
sI86
F0.3333333333333333
ss((I22
tp2845
(I24
tp2846
tp2847
(dp2848
I22
F1.0
ss((I68
tp2849
(I73
tp2850
tp2851
(dp2852
I72
F0.3333333333333333
sI68
F0.3333333333333333
sI63
F0.3333333333333333
ss((I65
tp2853
(I68
tp2854
tp2855
(dp2856
I64
F0.17857142857142858
sI66
F0.07142857142857142
sI67
F0.35714285714285715
sI79
F0.07142857142857142
sI58
F0.07142857142857142
sI60
F0.17857142857142858
sI63
F0.07142857142857142
ss((I69
tp2857
(I43
tp2858
tp2859
(dp2860
I67
F0.3333333333333333
sI69
F0.5
sI62
F0.16666666666666666
ss((I24
tp2861
(I15
tp2862
tp2863
(dp2864
I24
F0.25
sI27
F0.25
sI36
F0.25
sI15
F0.25
ss((I34
tp2865
(I15
tp2866
tp2867
(dp2868
I27
F0.5
sI15
F0.5
ss((I62
tp2869
(I36
tp2870
tp2871
(dp2872
I69
F0.5
sI62
F0.5
ss((I55
tp2873
(I53
tp2874
tp2875
(dp2876
I58
F0.4444444444444444
sI53
F0.5555555555555556
ss((I54
tp2877
(I65
tp2878
tp2879
(dp2880
I58
F0.25
sI54
F0.25
sI66
F0.25
sI70
F0.25
ss((I53
tp2881
(I55
tp2882
tp2883
(dp2884
I48
F0.2857142857142857
sI56
F0.5714285714285714
sI54
F0.14285714285714285
ss((I41
tp2885
(I60
tp2886
tp2887
(dp2888
I72
F0.5
sI65
F0.5
ss((I33
tp2889
(I38
tp2890
tp2891
(dp2892
I33
F0.0625
sI26
F0.4375
sI45
F0.0625
sI38
F0.4375
ss((I62
tp2893
(I56
tp2894
tp2895
(dp2896
I67
F0.5
sI63
F0.5
ss((I54
tp2897
(I50
tp2898
tp2899
(dp2900
I55
F1.0
ss((I62
tp2901
(I46
tp2902
tp2903
(dp2904
I48
F0.5
sI60
F0.5
ss((I27
tp2905
(I39
tp2906
tp2907
(dp2908
I34
F0.05405405405405406
sI38
F0.05405405405405406
sI39
F0.3918918918918919
sI46
F0.05405405405405406
sI26
F0.05405405405405406
sI27
F0.3918918918918919
ss((I36
tp2909
(I27
tp2910
tp2911
(dp2912
I36
F0.25
sI39
F0.125
sI15
F0.125
sI48
F0.125
sI24
F0.125
sI27
F0.25
ss((I63
tp2913
(I69
tp2914
tp2915
(dp2916
I72
F0.14285714285714285
sI65
F0.2857142857142857
sI77
F0.14285714285714285
sI70
F0.14285714285714285
sI57
F0.2857142857142857
ss((I62
tp2917
(I74
tp2918
tp2919
(dp2920
I66
F0.2
sI75
F0.2
sI58
F0.2
sI70
F0.2
sI63
F0.2
ss((I97
tp2921
(I69
tp2922
tp2923
(dp2924
I64
F0.3333333333333333
sI61
F0.3333333333333333
sI69
F0.3333333333333333
ss((I68
tp2925
(I71
tp2926
tp2927
(dp2928
I73
F0.5
sI68
F0.5
ss((I67
tp2929
(I79
tp2930
tp2931
(dp2932
I80
F0.16666666666666666
sI65
F0.3333333333333333
sI68
F0.16666666666666666
sI77
F0.3333333333333333
ss((I82
tp2933
(I86
tp2934
tp2935
(dp2936
I72
F0.16666666666666666
sI84
F0.8333333333333334
ss((I61
tp2937
(I65
tp2938
tp2939
(dp2940
I56
F0.14285714285714285
sI57
F0.2857142857142857
sI60
F0.14285714285714285
sI45
F0.2857142857142857
sI63
F0.14285714285714285
ss((I63
tp2941
(I53
tp2942
tp2943
(dp2944
I56
F0.2
sI58
F0.2
sI60
F0.4
sI62
F0.2
ss((I44
tp2945
(I53
tp2946
tp2947
(dp2948
I63
F1.0
ss((I56
tp2949
(I64
tp2950
tp2951
(dp2952
I64
F0.16666666666666666
sI51
F0.05555555555555555
sI56
F0.3333333333333333
sI58
F0.05555555555555555
sI61
F0.3333333333333333
sI63
F0.05555555555555555
ss((I48
tp2953
(I68
tp2954
tp2955
(dp2956
I65
F1.0
ss((I62
tp2957
(I38
tp2958
tp2959
(dp2960
I69
F0.5
sI62
F0.5
ss((I34
tp2961
(I39
tp2962
tp2963
(dp2964
I27
F0.4
sI36
F0.2
sI39
F0.4
ss((I42
tp2965
(I44
tp2966
tp2967
(dp2968
I61
F1.0
ss((I72
tp2969
(I80
tp2970
tp2971
(dp2972
I82
F0.5
sI70
F0.5
ss((I36
tp2973
(I60
tp2974
tp2975
(dp2976
I48
F0.14285714285714285
sI67
F0.42857142857142855
sI60
F0.42857142857142855
ss((I72
tp2977
(I63
tp2978
tp2979
(dp2980
I64
F0.14285714285714285
sI73
F0.14285714285714285
sI68
F0.14285714285714285
sI63
F0.5714285714285714
ss((I48
tp2981
(I72
tp2982
tp2983
(dp2984
I67
F0.5
sI60
F0.5
ss((I63
tp2985
(I63
tp2986
tp2987
(dp2988
I64
F0.01098901098901099
sI65
F0.0989010989010989
sI66
F0.01098901098901099
sI67
F0.04395604395604396
sI68
F0.01098901098901099
sI70
F0.12087912087912088
sI72
F0.04395604395604396
sI73
F0.01098901098901099
sI74
F0.01098901098901099
sI56
F0.03296703296703297
sI58
F0.14285714285714285
sI60
F0.06593406593406594
sI62
F0.13186813186813187
sI63
F0.26373626373626374
ss((I79
tp2989
(I77
tp2990
tp2991
(dp2992
I80
F0.25
sI67
F0.25
sI68
F0.25
sI79
F0.25
ss((I52
tp2993
(I69
tp2994
tp2995
(dp2996
I48
F0.5
sI60
F0.5
ss((I57
tp2997
(I67
tp2998
tp2999
(dp3000
I66
F0.25
sI50
F0.25
sI62
F0.25
sI69
F0.25
ss((I79
tp3001
(I82
tp3002
tp3003
(dp3004
I80
F0.5
sI68
F0.5
ss((I46
tp3005
(I66
tp3006
tp3007
(dp3008
I63
F1.0
ss((I65
tp3009
(I58
tp3010
tp3011
(dp3012
I65
F0.3081395348837209
sI66
F0.029069767441860465
sI67
F0.005813953488372093
sI70
F0.01744186046511628
sI75
F0.011627906976744186
sI34
F0.11627906976744186
sI46
F0.11627906976744186
sI54
F0.005813953488372093
sI57
F0.011627906976744186
sI58
F0.3023255813953488
sI60
F0.03488372093023256
sI61
F0.005813953488372093
sI63
F0.03488372093023256
ss((I75
tp3013
(I75
tp3014
tp3015
(dp3016
I65
F0.2
sI58
F0.2
sI62
F0.2
sI74
F0.2
sI70
F0.2
ss((I51
tp3017
(I66
tp3018
tp3019
(dp3020
I63
F1.0
ss((I72
tp3021
(I64
tp3022
tp3023
(dp3024
I74
F0.5
sI86
F0.5
ss((I67
tp3025
(I48
tp3026
tp3027
(dp3028
I64
F0.08139534883720931
sI36
F0.09302325581395349
sI67
F0.37209302325581395
sI52
F0.08139534883720931
sI60
F0.37209302325581395
ss((I72
tp3029
(I76
tp3030
tp3031
(dp3032
I74
F0.75
sI86
F0.25
ss((I53
tp3033
(I62
tp3034
tp3035
(dp3036
I64
F0.3333333333333333
sI52
F0.3333333333333333
sI53
F0.023809523809523808
sI58
F0.11904761904761904
sI60
F0.07142857142857142
sI62
F0.11904761904761904
ss((I50
tp3037
(I58
tp3038
tp3039
(dp3040
I48
F0.2
sI51
F0.022222222222222223
sI52
F0.17777777777777778
sI55
F0.17777777777777778
sI57
F0.044444444444444446
sI60
F0.37777777777777777
ss((I45
tp3041
(I31
tp3042
tp3043
(dp3044
I38
F1.0
ss((I64
tp3045
(I45
tp3046
tp3047
(dp3048
I64
F0.38095238095238093
sI49
F0.08333333333333333
sI33
F0.07142857142857142
sI61
F0.08333333333333333
sI57
F0.38095238095238093
ss((I68
tp3049
(I54
tp3050
tp3051
(dp3052
I58
F0.25
sI70
F0.25
sI66
F0.25
sI54
F0.25
ss((I76
tp3053
(I65
tp3054
tp3055
(dp3056
I67
F0.5
sI79
F0.5
ss((I48
tp3057
(I57
tp3058
tp3059
(dp3060
I58
F0.5
sI46
F0.5
ss((I27
tp3061
(I46
tp3062
tp3063
(dp3064
I27
F0.5
sI39
F0.5
ss((I26
tp3065
(I38
tp3066
tp3067
(dp3068
I26
F0.5
sI38
F0.5
ss((I15
tp3069
(I24
tp3070
tp3071
(dp3072
I24
F0.25
sI27
F0.25
sI36
F0.25
sI15
F0.25
ss((I33
tp3073
(I69
tp3074
tp3075
(dp3076
I69
F1.0
ss((I79
tp3077
(I68
tp3078
tp3079
(dp3080
I65
F0.3333333333333333
sI77
F0.3333333333333333
sI71
F0.3333333333333333
ss((I67
tp3081
(I31
tp3082
tp3083
(dp3084
I67
F0.5
sI69
F0.5
ss((I57
tp3085
(I60
tp3086
tp3087
(dp3088
I48
F0.037037037037037035
sI58
F0.7037037037037037
sI60
F0.14814814814814814
sI53
F0.037037037037037035
sI46
F0.07407407407407407
ss((I62
tp3089
(I86
tp3090
tp3091
(dp3092
I65
F1.0
ss((I77
tp3093
(I53
tp3094
tp3095
(dp3096
I58
F0.5
sI53
F0.5
ss((I91
tp3097
(I94
tp3098
tp3099
(dp3100
I96
F1.0
ss((I84
tp3101
(I81
tp3102
tp3103
(dp3104
I82
F1.0
ss((I69
tp3105
(I48
tp3106
tp3107
(dp3108
I69
F0.5
sI62
F0.5
ss((I40
tp3109
(I38
tp3110
tp3111
(dp3112
I41
F1.0
ss((I60
tp3113
(I60
tp3114
tp3115
(dp3116
I64
F0.008595988538681949
sI65
F0.0659025787965616
sI67
F0.1518624641833811
sI68
F0.008595988538681949
sI70
F0.02005730659025788
sI46
F0.02005730659025788
sI48
F0.09169054441260745
sI50
F0.05157593123209169
sI53
F0.0028653295128939827
sI55
F0.11174785100286533
sI56
F0.014326647564469915
sI36
F0.06876790830945559
sI58
F0.09742120343839542
sI60
F0.22349570200573066
sI62
F0.04871060171919771
sI63
F0.014326647564469915
ss((I66
tp3117
(I54
tp3118
tp3119
(dp3120
I66
F0.25
sI54
F0.25
sI58
F0.25
sI70
F0.25
ss((I36
tp3121
(I41
tp3122
tp3123
(dp3124
I40
F0.04
sI67
F0.32
sI43
F0.16
sI60
F0.32
sI31
F0.16
ss((I61
tp3125
(I53
tp3126
tp3127
(dp3128
I57
F0.3333333333333333
sI45
F0.3333333333333333
sI55
F0.3333333333333333
ss((I39
tp3129
(I38
tp3130
tp3131
(dp3132
I27
F0.2
sI38
F0.15
sI45
F0.15
sI46
F0.15
sI39
F0.35
ss((I60
tp3133
(I53
tp3134
tp3135
(dp3136
I58
F0.09090909090909091
sI60
F0.13636363636363635
sI53
F0.045454545454545456
sI62
F0.6363636363636364
sI63
F0.09090909090909091
ss((I46
tp3137
(I65
tp3138
tp3139
(dp3140
I65
F0.4878048780487805
sI58
F0.4878048780487805
sI63
F0.024390243902439025
ss((I58
tp3141
(I67
tp3142
tp3143
(dp3144
I65
F0.16666666666666666
sI67
F0.3333333333333333
sI60
F0.3333333333333333
sI70
F0.16666666666666666
ss((I84
tp3145
(I91
tp3146
tp3147
(dp3148
I93
F1.0
ss((I51
tp3149
(I44
tp3150
tp3151
(dp3152
I56
F0.3333333333333333
sI51
F0.3333333333333333
sI61
F0.3333333333333333
ss((I34
tp3153
(I32
tp3154
tp3155
(dp3156
I30
F1.0
ss((I52
tp3157
(I52
tp3158
tp3159
(dp3160
I50
F0.3333333333333333
sI58
F0.3333333333333333
sI55
F0.3333333333333333
ss((I38
tp3161
(I46
tp3162
tp3163
(dp3164
I50
F0.7142857142857143
sI42
F0.14285714285714285
sI39
F0.14285714285714285
ss((I50
tp3165
(I50
tp3166
tp3167
(dp3168
I69
F0.04081632653061224
sI38
F0.05102040816326531
sI41
F0.02040816326530612
sI43
F0.09183673469387756
sI45
F0.10204081632653061
sI49
F0.12244897959183673
sI50
F0.16326530612244897
sI52
F0.08163265306122448
sI55
F0.08163265306122448
sI60
F0.08163265306122448
sI61
F0.12244897959183673
sI62
F0.04081632653061224
ss((I56
tp3169
(I63
tp3170
tp3171
(dp3172
I65
F0.045454545454545456
sI66
F0.09090909090909091
sI44
F0.09090909090909091
sI51
F0.09090909090909091
sI58
F0.18181818181818182
sI60
F0.2727272727272727
sI61
F0.13636363636363635
sI62
F0.045454545454545456
sI63
F0.045454545454545456
ss((I56
tp3173
(I61
tp3174
tp3175
(dp3176
I64
F0.15625
sI44
F0.03125
sI49
F0.03125
sI56
F0.4375
sI58
F0.125
sI61
F0.1875
sI63
F0.03125
ss((I66
tp3177
(I72
tp3178
tp3179
(dp3180
I60
F0.3333333333333333
sI68
F0.3333333333333333
sI63
F0.3333333333333333
ss((I56
tp3181
(I53
tp3182
tp3183
(dp3184
I56
F0.4444444444444444
sI53
F0.1111111111111111
sI55
F0.4444444444444444
ss((I64
tp3185
(I60
tp3186
tp3187
(dp3188
I66
F0.04
sI69
F0.02
sI48
F0.14
sI55
F0.42
sI56
F0.02
sI58
F0.04
sI60
F0.2
sI61
F0.04
sI62
F0.08
ss((I62
tp3189
(I66
tp3190
tp3191
(dp3192
I65
F0.125
sI58
F0.125
sI67
F0.5
sI60
F0.125
sI63
F0.125
ss((I33
tp3193
(I31
tp3194
tp3195
(dp3196
I38
F1.0
ss((I72
tp3197
(I65
tp3198
tp3199
(dp3200
I64
F0.009523809523809525
sI65
F0.3142857142857143
sI67
F0.01904761904761905
sI72
F0.29523809523809524
sI41
F0.1523809523809524
sI74
F0.009523809523809525
sI53
F0.1523809523809524
sI60
F0.0380952380952381
sI62
F0.009523809523809525
ss((I66
tp3201
(I58
tp3202
tp3203
(dp3204
I65
F0.13043478260869565
sI66
F0.10869565217391304
sI68
F0.021739130434782608
sI70
F0.06521739130434782
sI74
F0.021739130434782608
sI54
F0.043478260869565216
sI56
F0.021739130434782608
sI58
F0.2826086956521739
sI60
F0.08695652173913043
sI61
F0.021739130434782608
sI62
F0.08695652173913043
sI63
F0.10869565217391304
ss((I65
tp3205
(I46
tp3206
tp3207
(dp3208
I65
F0.5
sI58
F0.5
ss((I67
tp3209
(I69
tp3210
tp3211
(dp3212
I65
F0.02631578947368421
sI67
F0.3473684210526316
sI69
F0.37894736842105264
sI70
F0.013157894736842105
sI43
F0.06315789473684211
sI50
F0.031578947368421054
sI38
F0.031578947368421054
sI62
F0.04473684210526316
sI31
F0.06315789473684211
ss((I60
tp3213
(I56
tp3214
tp3215
(dp3216
I70
F0.04
sI51
F0.32
sI52
F0.04
sI56
F0.12
sI58
F0.16
sI60
F0.08
sI63
F0.24
ss((I50
tp3217
(I67
tp3218
tp3219
(dp3220
I62
F1.0
ss((I70
tp3221
(I64
tp3222
tp3223
(dp3224
I72
F0.2
sI75
F0.2
sI68
F0.2
sI86
F0.4
ss((I65
tp3225
(I82
tp3226
tp3227
(dp3228
I81
F0.5
sI69
F0.5
ss((I58
tp3229
(I65
tp3230
tp3231
(dp3232
I65
F0.28865979381443296
sI66
F0.020618556701030927
sI68
F0.005154639175257732
sI70
F0.020618556701030927
sI75
F0.005154639175257732
sI34
F0.10309278350515463
sI46
F0.10309278350515463
sI53
F0.015463917525773196
sI54
F0.005154639175257732
sI56
F0.005154639175257732
sI57
F0.020618556701030927
sI58
F0.26804123711340205
sI60
F0.041237113402061855
sI62
F0.03608247422680412
sI63
F0.061855670103092786
ss((I58
tp3233
(I60
tp3234
tp3235
(dp3236
I65
F0.02464788732394366
sI66
F0.02464788732394366
sI67
F0.007042253521126761
sI68
F0.0035211267605633804
sI70
F0.0035211267605633804
sI50
F0.13028169014084506
sI52
F0.13380281690140844
sI53
F0.0035211267605633804
sI55
F0.2640845070422535
sI57
F0.007042253521126761
sI58
F0.15845070422535212
sI60
F0.176056338028169
sI61
F0.007042253521126761
sI62
F0.017605633802816902
sI63
F0.03873239436619718
ss((I72
tp3237
(I60
tp3238
tp3239
(dp3240
I64
F0.03773584905660377
sI65
F0.1320754716981132
sI67
F0.16981132075471697
sI68
F0.018867924528301886
sI70
F0.018867924528301886
sI72
F0.05660377358490566
sI73
F0.018867924528301886
sI74
F0.018867924528301886
sI48
F0.1509433962264151
sI36
F0.1509433962264151
sI60
F0.22641509433962265
ss((I38
tp3241
(I48
tp3242
tp3243
(dp3244
I50
F1.0
ss((I50
tp3245
(I49
tp3246
tp3247
(dp3248
I64
F0.5
sI52
F0.5
ss((I70
tp3249
(I62
tp3250
tp3251
(dp3252
I65
F0.06896551724137931
sI66
F0.034482758620689655
sI67
F0.034482758620689655
sI70
F0.2413793103448276
sI72
F0.034482758620689655
sI75
F0.034482758620689655
sI57
F0.10344827586206896
sI58
F0.1724137931034483
sI60
F0.06896551724137931
sI62
F0.1724137931034483
sI63
F0.034482758620689655
ss((I60
tp3253
(I66
tp3254
tp3255
(dp3256
I64
F0.13333333333333333
sI65
F0.13333333333333333
sI56
F0.13333333333333333
sI58
F0.26666666666666666
sI61
F0.13333333333333333
sI62
F0.13333333333333333
sI63
F0.06666666666666667
ss((I70
tp3257
(I70
tp3258
tp3259
(dp3260
I65
F0.1
sI66
F0.02857142857142857
sI67
F0.04285714285714286
sI68
F0.05714285714285714
sI69
F0.014285714285714285
sI70
F0.2857142857142857
sI72
F0.05714285714285714
sI74
F0.014285714285714285
sI80
F0.02857142857142857
sI84
F0.05714285714285714
sI54
F0.02857142857142857
sI56
F0.014285714285714285
sI58
F0.08571428571428572
sI60
F0.02857142857142857
sI62
F0.02857142857142857
sI63
F0.12857142857142856
ss((I24
tp3261
(I41
tp3262
tp3263
(dp3264
I43
F0.5
sI31
F0.5
ss((I64
tp3265
(I79
tp3266
tp3267
(dp3268
I64
F0.25
sI65
F0.25
sI76
F0.25
sI77
F0.25
ss((I57
tp3269
(I34
tp3270
tp3271
(dp3272
I64
F0.5
sI57
F0.5
ss((I57
tp3273
(I46
tp3274
tp3275
(dp3276
I64
F0.25
sI57
F0.5
sI45
F0.25
ss((I63
tp3277
(I51
tp3278
tp3279
(dp3280
I61
F1.0
ss((I55
tp3281
(I57
tp3282
tp3283
(dp3284
I65
F0.1875
sI50
F0.125
sI53
F0.125
sI55
F0.1875
sI57
F0.1875
sI62
F0.1875
ss((I49
tp3285
(I34
tp3286
tp3287
(dp3288
I49
F0.5
sI37
F0.5
ss((I69
tp3289
(I65
tp3290
tp3291
(dp3292
I64
F0.21951219512195122
sI67
F0.24390243902439024
sI69
F0.0975609756097561
sI70
F0.04878048780487805
sI75
F0.024390243902439025
sI55
F0.12195121951219512
sI57
F0.0975609756097561
sI61
F0.12195121951219512
sI63
F0.024390243902439025
ss((I63
tp3293
(I77
tp3294
tp3295
(dp3296
I60
F0.3333333333333333
sI68
F0.3333333333333333
sI63
F0.3333333333333333
ss((I74
tp3297
(I67
tp3298
tp3299
(dp3300
I69
F0.5
sI62
F0.5
ss((I34
tp3301
(I64
tp3302
tp3303
(dp3304
I65
F0.5
sI58
F0.5
ss((I80
tp3305
(I79
tp3306
tp3307
(dp3308
I82
F0.5
sI70
F0.5
ss((I30
tp3309
(I34
tp3310
tp3311
(dp3312
I32
F1.0
ss((I29
tp3313
(I49
tp3314
tp3315
(dp3316
I49
F0.25
sI37
F0.25
sI29
F0.25
sI53
F0.25
ss((I34
tp3317
(I33
tp3318
tp3319
(dp3320
I65
F0.4166666666666667
sI34
F0.08333333333333333
sI45
F0.041666666666666664
sI58
F0.4166666666666667
sI33
F0.041666666666666664
ss((I64
tp3321
(I88
tp3322
tp3323
(dp3324
I61
F1.0
ss((I88
tp3325
(I96
tp3326
tp3327
(dp3328
I91
F1.0
ss((I58
tp3329
(I70
tp3330
tp3331
(dp3332
I65
F0.10714285714285714
sI66
F0.07142857142857142
sI67
F0.03571428571428571
sI68
F0.10714285714285714
sI70
F0.17857142857142858
sI74
F0.03571428571428571
sI77
F0.03571428571428571
sI54
F0.07142857142857142
sI56
F0.07142857142857142
sI58
F0.10714285714285714
sI60
F0.07142857142857142
sI62
F0.07142857142857142
sI63
F0.03571428571428571
ss((I58
tp3333
(I49
tp3334
tp3335
(dp3336
I60
F1.0
ss((I63
tp3337
(I61
tp3338
tp3339
(dp3340
I56
F0.2727272727272727
sI73
F0.09090909090909091
sI60
F0.18181818181818182
sI61
F0.18181818181818182
sI64
F0.2727272727272727
ss((I65
tp3341
(I33
tp3342
tp3343
(dp3344
I65
F0.5
sI58
F0.5
ss((I58
tp3345
(I45
tp3346
tp3347
(dp3348
I57
F0.1875
sI58
F0.3125
sI45
F0.1875
sI65
F0.3125
ss((I61
tp3349
(I51
tp3350
tp3351
(dp3352
I56
F0.5
sI60
F0.5
ss((I60
tp3353
(I59
tp3354
tp3355
(dp3356
I49
F0.16666666666666666
sI60
F0.6666666666666666
sI61
F0.16666666666666666
ss((I48
tp3357
(I53
tp3358
tp3359
(dp3360
I67
F0.1702127659574468
sI41
F0.1276595744680851
sI46
F0.0425531914893617
sI48
F0.14893617021276595
sI51
F0.0851063829787234
sI53
F0.23404255319148937
sI58
F0.02127659574468085
sI60
F0.1702127659574468
ss((I62
tp3361
(I60
tp3362
tp3363
(dp3364
I64
F0.09523809523809523
sI65
F0.06349206349206349
sI66
F0.015873015873015872
sI67
F0.12698412698412698
sI36
F0.06349206349206349
sI69
F0.06349206349206349
sI72
F0.007936507936507936
sI48
F0.06349206349206349
sI52
F0.05555555555555555
sI53
F0.023809523809523808
sI55
F0.07142857142857142
sI57
F0.007936507936507936
sI58
F0.031746031746031744
sI60
F0.1746031746031746
sI62
F0.0873015873015873
sI63
F0.047619047619047616
ss((I56
tp3365
(I52
tp3366
tp3367
(dp3368
I60
F0.25
sI61
F0.75
ss((I51
tp3369
(I50
tp3370
tp3371
(dp3372
I50
F0.5
sI43
F0.5
ss((I66
tp3373
(I67
tp3374
tp3375
(dp3376
I72
F0.25
sI66
F0.25
sI75
F0.25
sI68
F0.25
ss((I57
tp3377
(I63
tp3378
tp3379
(dp3380
I62
F1.0
ss((I36
tp3381
(I53
tp3382
tp3383
(dp3384
I60
F0.42105263157894735
sI67
F0.42105263157894735
sI52
F0.15789473684210525
ss((I48
tp3385
(I46
tp3386
tp3387
(dp3388
I34
F0.04081632653061224
sI67
F0.16326530612244897
sI36
F0.04081632653061224
sI41
F0.061224489795918366
sI46
F0.08163265306122448
sI48
F0.22448979591836735
sI53
F0.08163265306122448
sI60
F0.30612244897959184
ss((I65
tp3389
(I81
tp3390
tp3391
(dp3392
I64
F0.5
sI67
F0.5
ss((I86
tp3393
(I62
tp3394
tp3395
(dp3396
I64
F0.25
sI61
F0.25
sI69
F0.25
sI85
F0.25
ss((I36
tp3397
(I58
tp3398
tp3399
(dp3400
I67
F0.5
sI60
F0.5
ss((I58
tp3401
(I69
tp3402
tp3403
(dp3404
I74
F0.125
sI69
F0.5
sI62
F0.375
ss((I34
tp3405
(I57
tp3406
tp3407
(dp3408
I65
F0.5
sI58
F0.5
ss((I66
tp3409
(I69
tp3410
tp3411
(dp3412
I67
F1.0
ss((I55
tp3413
(I45
tp3414
tp3415
(dp3416
I46
F1.0
ss((I31
tp3417
(I29
tp3418
tp3419
(dp3420
I41
F0.5
sI29
F0.5
ss((I53
tp3421
(I63
tp3422
tp3423
(dp3424
I65
F0.8571428571428571
sI58
F0.14285714285714285
ss((I38
tp3425
(I45
tp3426
tp3427
(dp3428
I45
F0.5
sI38
F0.5
ss((I65
tp3429
(I55
tp3430
tp3431
(dp3432
I64
F0.14285714285714285
sI65
F0.14285714285714285
sI70
F0.09523809523809523
sI55
F0.14285714285714285
sI57
F0.14285714285714285
sI60
F0.19047619047619047
sI62
F0.14285714285714285
ss((I38
tp3433
(I34
tp3434
tp3435
(dp3436
I31
F1.0
ss((I27
tp3437
(I22
tp3438
tp3439
(dp3440
I27
F0.4444444444444444
sI29
F0.1111111111111111
sI15
F0.4444444444444444
ss((I82
tp3441
(I81
tp3442
tp3443
(dp3444
I81
F1.0
ss((I45
tp3445
(I64
tp3446
tp3447
(dp3448
I64
F0.35714285714285715
sI65
F0.14285714285714285
sI53
F0.14285714285714285
sI57
F0.35714285714285715
ss((I34
tp3449
(I34
tp3450
tp3451
(dp3452
I33
F0.15384615384615385
sI36
F0.07692307692307693
sI39
F0.15384615384615385
sI41
F0.07692307692307693
sI45
F0.07692307692307693
sI46
F0.15384615384615385
sI53
F0.15384615384615385
sI29
F0.15384615384615385
ss((I48
tp3453
(I41
tp3454
tp3455
(dp3456
I48
F0.05
sI41
F0.05
sI67
F0.4
sI60
F0.4
sI55
F0.1
ss((I30
tp3457
(I38
tp3458
tp3459
(dp3460
I33
F1.0
ss((I59
tp3461
(I62
tp3462
tp3463
(dp3464
I50
F0.5
sI55
F0.5
ss((I64
tp3465
(I33
tp3466
tp3467
(dp3468
I64
F0.5
sI57
F0.5
ss((I70
tp3469
(I97
tp3470
tp3471
(dp3472
I86
F1.0
ss((I75
tp3473
(I80
tp3474
tp3475
(dp3476
I67
F0.5
sI79
F0.5
ss((I91
tp3477
(I95
tp3478
tp3479
(dp3480
I93
F1.0
ss((I33
tp3481
(I36
tp3482
tp3483
(dp3484
I34
F1.0
ss((I68
tp3485
(I74
tp3486
tp3487
(dp3488
I65
F0.3333333333333333
sI62
F0.3333333333333333
sI70
F0.3333333333333333
ss((I67
tp3489
(I70
tp3490
tp3491
(dp3492
I96
F0.024390243902439025
sI65
F0.1951219512195122
sI67
F0.07317073170731707
sI68
F0.17073170731707318
sI69
F0.12195121951219512
sI70
F0.0975609756097561
sI80
F0.024390243902439025
sI88
F0.024390243902439025
sI60
F0.21951219512195122
sI62
F0.04878048780487805
ss((I40
tp3493
(I40
tp3494
tp3495
(dp3496
I40
F0.5
sI48
F0.5
ss((I95
tp3497
(I91
tp3498
tp3499
(dp3500
I93
F1.0
ss((I69
tp3501
(I71
tp3502
tp3503
(dp3504
I69
F0.5
sI70
F0.5
ss((I53
tp3505
(I43
tp3506
tp3507
(dp3508
I50
F0.25
sI43
F0.25
sI53
F0.25
sI45
F0.25
ss((I65
tp3509
(I57
tp3510
tp3511
(dp3512
I64
F0.09803921568627451
sI65
F0.18627450980392157
sI69
F0.049019607843137254
sI70
F0.0392156862745098
sI33
F0.09803921568627451
sI45
F0.09803921568627451
sI57
F0.20588235294117646
sI58
F0.13725490196078433
sI62
F0.06862745098039216
sI63
F0.0196078431372549
ss((I54
tp3513
(I75
tp3514
tp3515
(dp3516
I65
F0.5
sI77
F0.5
ss((I33
tp3517
(I39
tp3518
tp3519
(dp3520
I38
F1.0
ss((I46
tp3521
(I39
tp3522
tp3523
(dp3524
I27
F0.11764705882352941
sI46
F0.38235294117647056
sI39
F0.5
ss((I73
tp3525
(I64
tp3526
tp3527
(dp3528
I68
F0.2222222222222222
sI72
F0.2222222222222222
sI75
F0.1111111111111111
sI56
F0.1111111111111111
sI60
F0.1111111111111111
sI63
F0.2222222222222222
ss((I72
tp3529
(I69
tp3530
tp3531
(dp3532
I70
F0.75
sI71
F0.25
ss((I56
tp3533
(I66
tp3534
tp3535
(dp3536
I64
F0.26666666666666666
sI65
F0.06666666666666667
sI56
F0.2
sI58
F0.13333333333333333
sI61
F0.26666666666666666
sI62
F0.06666666666666667
ss((I36
tp3537
(I31
tp3538
tp3539
(dp3540
I38
F1.0
ss((I74
tp3541
(I63
tp3542
tp3543
(dp3544
I74
F0.5
sI69
F0.5
ss((I27
tp3545
(I15
tp3546
tp3547
(dp3548
I34
F0.08695652173913043
sI27
F0.41304347826086957
sI22
F0.08695652173913043
sI15
F0.41304347826086957
ss((I63
tp3549
(I65
tp3550
tp3551
(dp3552
I65
F0.1935483870967742
sI66
F0.06451612903225806
sI68
F0.0967741935483871
sI70
F0.1935483870967742
sI72
F0.03225806451612903
sI77
F0.03225806451612903
sI53
F0.06451612903225806
sI58
F0.06451612903225806
sI60
F0.03225806451612903
sI63
F0.22580645161290322
ss((I62
tp3553
(I53
tp3554
tp3555
(dp3556
I58
F0.2
sI60
F0.2
sI62
F0.4
sI55
F0.2
ss((I93
tp3557
(I97
tp3558
tp3559
(dp3560
I95
F1.0
ss((I46
tp3561
(I29
tp3562
tp3563
(dp3564
I41
F0.3
sI34
F0.2
sI29
F0.3
sI46
F0.2
ss((I67
tp3565
(I65
tp3566
tp3567
(dp3568
I96
F0.008064516129032258
sI65
F0.20161290322580644
sI34
F0.06451612903225806
sI67
F0.03225806451612903
sI68
F0.08064516129032258
sI72
F0.12903225806451613
sI41
F0.06451612903225806
sI46
F0.06451612903225806
sI79
F0.008064516129032258
sI80
F0.008064516129032258
sI53
F0.08064516129032258
sI88
F0.008064516129032258
sI58
F0.06451612903225806
sI91
F0.016129032258064516
sI60
F0.07258064516129033
sI62
F0.0967741935483871
ss((I58
tp3569
(I68
tp3570
tp3571
(dp3572
I66
F0.38461538461538464
sI60
F0.07692307692307693
sI58
F0.23076923076923078
sI63
F0.3076923076923077
ss((I64
tp3573
(I55
tp3574
tp3575
(dp3576
I65
F0.4666666666666667
sI69
F0.06666666666666667
sI53
F0.4666666666666667
ss((I36
tp3577
(I72
tp3578
tp3579
(dp3580
I67
F0.5
sI60
F0.5
ss((I51
tp3581
(I43
tp3582
tp3583
(dp3584
I50
F0.5
sI43
F0.5
ss((I97
tp3585
(I62
tp3586
tp3587
(dp3588
I64
F0.3333333333333333
sI61
F0.3333333333333333
sI69
F0.3333333333333333
ss((I63
tp3589
(I75
tp3590
tp3591
(dp3592
I65
F0.2857142857142857
sI58
F0.14285714285714285
sI74
F0.14285714285714285
sI70
F0.14285714285714285
sI62
F0.2857142857142857
ss((I50
tp3593
(I55
tp3594
tp3595
(dp3596
I60
F0.18473895582329317
sI58
F0.14859437751004015
sI52
F0.18473895582329317
sI50
F0.14859437751004015
sI55
F0.3333333333333333
ss((I34
tp3597
(I48
tp3598
tp3599
(dp3600
I33
F0.3333333333333333
sI53
F0.3333333333333333
sI45
F0.3333333333333333
ss((I64
tp3601
(I91
tp3602
tp3603
(dp3604
I88
F0.5
sI96
F0.5
ss((I79
tp3605
(I76
tp3606
tp3607
(dp3608
I65
F0.5
sI77
F0.5
ss((I88
tp3609
(I86
tp3610
tp3611
(dp3612
I65
F0.3333333333333333
sI62
F0.3333333333333333
sI70
F0.3333333333333333
ss((I64
tp3613
(I68
tp3614
tp3615
(dp3616
I72
F0.3333333333333333
sI68
F0.3333333333333333
sI63
F0.3333333333333333
ss((I52
tp3617
(I55
tp3618
tp3619
(dp3620
I65
F0.02631578947368421
sI50
F0.17293233082706766
sI52
F0.14285714285714285
sI53
F0.02631578947368421
sI55
F0.3157894736842105
sI58
F0.17293233082706766
sI60
F0.14285714285714285
ss((I57
tp3621
(I38
tp3622
tp3623
(dp3624
I64
F0.5
sI57
F0.5
ss((I77
tp3625
(I76
tp3626
tp3627
(dp3628
I64
F0.5
sI76
F0.5
ss((I63
tp3629
(I46
tp3630
tp3631
(dp3632
I53
F1.0
ss((I44
tp3633
(I46
tp3634
tp3635
(dp3636
I63
F1.0
ss((I74
tp3637
(I75
tp3638
tp3639
(dp3640
I74
F0.3333333333333333
sI69
F0.3333333333333333
sI71
F0.3333333333333333
ss((I29
tp3641
(I37
tp3642
tp3643
(dp3644
I49
F0.25
sI37
F0.25
sI29
F0.25
sI53
F0.25
ss((I62
tp3645
(I33
tp3646
tp3647
(dp3648
I69
F0.5
sI62
F0.5
ss((I61
tp3649
(I56
tp3650
tp3651
(dp3652
I64
F0.17777777777777778
sI66
F0.1111111111111111
sI51
F0.044444444444444446
sI52
F0.06666666666666667
sI56
F0.2
sI58
F0.1111111111111111
sI60
F0.022222222222222223
sI61
F0.2
sI63
F0.06666666666666667
ss((I53
tp3653
(I50
tp3654
tp3655
(dp3656
I64
F0.2553191489361702
sI43
F0.06382978723404255
sI45
F0.10638297872340426
sI46
F0.0425531914893617
sI48
F0.06382978723404255
sI50
F0.10638297872340426
sI52
F0.2553191489361702
sI53
F0.10638297872340426
ss((I39
tp3657
(I26
tp3658
tp3659
(dp3660
I27
F0.5
sI39
F0.5
ss((I82
tp3661
(I70
tp3662
tp3663
(dp3664
I80
F0.16666666666666666
sI72
F0.3333333333333333
sI68
F0.16666666666666666
sI84
F0.3333333333333333
ss((I61
tp3665
(I46
tp3666
tp3667
(dp3668
I66
F0.5
sI47
F0.5
ss((I24
tp3669
(I34
tp3670
tp3671
(dp3672
I24
F0.5
sI36
F0.5
ss((I66
tp3673
(I82
tp3674
tp3675
(dp3676
I80
F0.25
sI72
F0.25
sI75
F0.25
sI68
F0.25
ss((I38
tp3677
(I69
tp3678
tp3679
(dp3680
I50
F0.03942652329749104
sI69
F0.48028673835125446
sI62
F0.48028673835125446
ss((I45
tp3681
(I39
tp3682
tp3683
(dp3684
I50
F0.5384615384615384
sI45
F0.15384615384615385
sI46
F0.15384615384615385
sI39
F0.15384615384615385
ss((I69
tp3685
(I62
tp3686
tp3687
(dp3688
I64
F0.013528748590755355
sI65
F0.005636978579481398
sI67
F0.02593010146561443
sI69
F0.3370913190529876
sI38
F0.14205186020293123
sI74
F0.002254791431792559
sI50
F0.15219842164599776
sI57
F0.0011273957158962795
sI61
F0.006764374295377677
sI62
F0.3134160090191657
ss((I48
tp3689
(I58
tp3690
tp3691
(dp3692
I48
F0.20588235294117646
sI67
F0.23529411764705882
sI60
F0.4411764705882353
sI55
F0.11764705882352941
ss((I86
tp3693
(I69
tp3694
tp3695
(dp3696
I64
F0.2
sI97
F0.2
sI61
F0.2
sI69
F0.2
sI85
F0.2
ss((I17
tp3697
(I27
tp3698
tp3699
(dp3700
I17
F0.25
sI27
F0.25
sI29
F0.25
sI15
F0.25
ss((I78
tp3701
(I66
tp3702
tp3703
(dp3704
I80
F0.5
sI68
F0.5
ss((I72
tp3705
(I66
tp3706
tp3707
(dp3708
I69
F1.0
ss((I49
tp3709
(I68
tp3710
tp3711
(dp3712
I42
F0.5
sI58
F0.5
ss((I42
tp3713
(I58
tp3714
tp3715
(dp3716
I56
F0.5
sI68
F0.5
ss((I62
tp3717
(I65
tp3718
tp3719
(dp3720
I64
F0.11538461538461539
sI65
F0.05128205128205128
sI66
F0.05128205128205128
sI67
F0.0641025641025641
sI69
F0.05128205128205128
sI70
F0.05128205128205128
sI75
F0.02564102564102564
sI53
F0.07692307692307693
sI55
F0.05128205128205128
sI57
F0.05128205128205128
sI58
F0.0641025641025641
sI60
F0.11538461538461539
sI62
F0.11538461538461539
sI63
F0.11538461538461539
ss((I55
tp3721
(I48
tp3722
tp3723
(dp3724
I64
F0.4117647058823529
sI52
F0.4117647058823529
sI60
F0.17647058823529413
ss((I39
tp3725
(I53
tp3726
tp3727
(dp3728
I51
F1.0
ss((I53
tp3729
(I82
tp3730
tp3731
(dp3732
I58
F0.5
sI53
F0.5
ss((I62
tp3733
(I50
tp3734
tp3735
(dp3736
I49
F0.03773584905660377
sI38
F0.04150943396226415
sI61
F0.03773584905660377
sI62
F0.44150943396226416
sI69
F0.44150943396226416
ss((I41
tp3737
(I27
tp3738
tp3739
(dp3740
I41
F0.25
sI27
F0.25
sI29
F0.25
sI39
F0.25
ss((I38
tp3741
(I29
tp3742
tp3743
(dp3744
I24
F0.5
sI36
F0.5
ss((I65
tp3745
(I74
tp3746
tp3747
(dp3748
I65
F0.17647058823529413
sI66
F0.058823529411764705
sI69
F0.11764705882352941
sI70
F0.17647058823529413
sI72
F0.058823529411764705
sI74
F0.11764705882352941
sI75
F0.058823529411764705
sI58
F0.11764705882352941
sI62
F0.058823529411764705
sI63
F0.058823529411764705
ss((I93
tp3749
(I96
tp3750
tp3751
(dp3752
I64
F0.5
sI67
F0.5
ss((I36
tp3753
(I45
tp3754
tp3755
(dp3756
I34
F0.5
sI46
F0.5
ss((I46
tp3757
(I33
tp3758
tp3759
(dp3760
I65
F0.38461538461538464
sI34
F0.15384615384615385
sI45
F0.038461538461538464
sI58
F0.38461538461538464
sI33
F0.038461538461538464
ss((I53
tp3761
(I46
tp3762
tp3763
(dp3764
I34
F0.11363636363636363
sI45
F0.09090909090909091
sI46
F0.22727272727272727
sI48
F0.045454545454545456
sI53
F0.4318181818181818
sI55
F0.06818181818181818
sI58
F0.022727272727272728
ss((I73
tp3765
(I61
tp3766
tp3767
(dp3768
I56
F0.3333333333333333
sI60
F0.3333333333333333
sI63
F0.3333333333333333
ss((I58
tp3769
(I82
tp3770
tp3771
(dp3772
I56
F0.125
sI58
F0.375
sI68
F0.125
sI53
F0.375
ss((I33
tp3773
(I33
tp3774
tp3775
(dp3776
I34
F0.16666666666666666
sI53
F0.3333333333333333
sI46
F0.16666666666666666
sI45
F0.3333333333333333
ss((I58
tp3777
(I77
tp3778
tp3779
(dp3780
I66
F0.125
sI68
F0.0625
sI70
F0.0625
sI53
F0.1875
sI54
F0.0625
sI58
F0.3125
sI60
F0.0625
sI61
F0.0625
sI63
F0.0625
ss((I52
tp3781
(I41
tp3782
tp3783
(dp3784
I53
F1.0
ss((I53
tp3785
(I72
tp3786
tp3787
(dp3788
I72
F0.5
sI65
F0.5
ss((I45
tp3789
(I66
tp3790
tp3791
(dp3792
I57
F0.4
sI45
F0.2
sI61
F0.4
ss((I53
tp3793
(I59
tp3794
tp3795
(dp3796
I70
F0.3333333333333333
sI55
F0.6666666666666666
ss((I61
tp3797
(I57
tp3798
tp3799
(dp3800
I57
F0.4166666666666667
sI45
F0.5833333333333334
ss((I15
tp3801
(I29
tp3802
tp3803
(dp3804
I17
F0.25
sI27
F0.25
sI29
F0.25
sI15
F0.25
ss((I50
tp3805
(I43
tp3806
tp3807
(dp3808
I48
F0.2
sI50
F0.4
sI43
F0.4
ss((I53
tp3809
(I36
tp3810
tp3811
(dp3812
I72
F0.5
sI65
F0.5
ss((I70
tp3813
(I74
tp3814
tp3815
(dp3816
I65
F0.09090909090909091
sI69
F0.09090909090909091
sI70
F0.09090909090909091
sI72
F0.45454545454545453
sI74
F0.09090909090909091
sI84
F0.09090909090909091
sI60
F0.09090909090909091
ss((I88
tp3817
(I85
tp3818
tp3819
(dp3820
I86
F1.0
ss((I46
tp3821
(I27
tp3822
tp3823
(dp3824
I27
F0.5
sI39
F0.5
ss((I38
tp3825
(I38
tp3826
tp3827
(dp3828
I33
F0.10526315789473684
sI69
F0.10526315789473684
sI38
F0.18421052631578946
sI45
F0.07894736842105263
sI26
F0.10526315789473684
sI62
F0.10526315789473684
sI31
F0.3157894736842105
ss((I38
tp3829
(I41
tp3830
tp3831
(dp3832
I40
F0.2727272727272727
sI24
F0.36363636363636365
sI36
F0.36363636363636365
ss((I61
tp3833
(I68
tp3834
tp3835
(dp3836
I66
F1.0
ss((I64
tp3837
(I85
tp3838
tp3839
(dp3840
I81
F0.5
sI61
F0.5
ss((I34
tp3841
(I26
tp3842
tp3843
(dp3844
I24
F0.16666666666666666
sI33
F0.4166666666666667
sI45
F0.4166666666666667
ss((I68
tp3845
(I53
tp3846
tp3847
(dp3848
I48
F0.2
sI57
F0.2
sI82
F0.2
sI58
F0.2
sI77
F0.2
ss((I60
tp3849
(I48
tp3850
tp3851
(dp3852
I67
F0.29906542056074764
sI36
F0.07476635514018691
sI46
F0.06542056074766354
sI50
F0.08411214953271028
sI58
F0.06542056074766354
sI60
F0.32710280373831774
sI62
F0.08411214953271028
ss((I41
tp3853
(I39
tp3854
tp3855
(dp3856
I41
F0.2463768115942029
sI34
F0.014492753623188406
sI27
F0.2463768115942029
sI29
F0.2463768115942029
sI39
F0.2463768115942029
ss((I60
tp3857
(I69
tp3858
tp3859
(dp3860
I65
F0.5
sI67
F0.16666666666666666
sI70
F0.08333333333333333
sI72
F0.08333333333333333
sI77
F0.08333333333333333
sI58
F0.08333333333333333
ss((I41
tp3861
(I33
tp3862
tp3863
(dp3864
I34
F1.0
ss((I46
tp3865
(I57
tp3866
tp3867
(dp3868
I57
F0.17647058823529413
sI58
F0.29411764705882354
sI45
F0.23529411764705882
sI65
F0.29411764705882354
ss((I48
tp3869
(I50
tp3870
tp3871
(dp3872
I48
F0.38461538461538464
sI41
F0.15384615384615385
sI50
F0.15384615384615385
sI43
F0.15384615384615385
sI55
F0.15384615384615385
ss((I46
tp3873
(I62
tp3874
tp3875
(dp3876
I48
F0.47368421052631576
sI60
F0.5263157894736842
ss((I68
tp3877
(I69
tp3878
tp3879
(dp3880
I72
F0.3333333333333333
sI77
F0.3333333333333333
sI70
F0.3333333333333333
ss((I67
tp3881
(I78
tp3882
tp3883
(dp3884
I80
F0.5
sI68
F0.5
ss((I46
tp3885
(I36
tp3886
tp3887
(dp3888
I43
F0.5
sI36
F0.5
ss((I72
tp3889
(I67
tp3890
tp3891
(dp3892
I67
F0.25
sI36
F0.2222222222222222
sI75
F0.027777777777777776
sI48
F0.2222222222222222
sI60
F0.25
sI63
F0.027777777777777776
ss((I58
tp3893
(I58
tp3894
tp3895
(dp3896
I65
F0.10103092783505155
sI66
F0.024742268041237112
sI34
F0.041237113402061855
sI68
F0.004123711340206186
sI70
F0.010309278350515464
sI74
F0.002061855670103093
sI75
F0.002061855670103093
sI77
F0.006185567010309278
sI46
F0.041237113402061855
sI82
F0.006185567010309278
sI51
F0.002061855670103093
sI52
F0.016494845360824743
sI53
F0.018556701030927835
sI54
F0.004123711340206186
sI55
F0.19381443298969073
sI56
F0.008247422680412371
sI58
F0.2865979381443299
sI60
F0.030927835051546393
sI62
F0.177319587628866
sI63
F0.02268041237113402
ss((I15
tp3897
(I17
tp3898
tp3899
(dp3900
I17
F0.25
sI27
F0.25
sI29
F0.25
sI15
F0.25
ss((I39
tp3901
(I48
tp3902
tp3903
(dp3904
I36
F0.2
sI39
F0.25
sI40
F0.05
sI46
F0.05
sI48
F0.25
sI27
F0.2
ss((I43
tp3905
(I48
tp3906
tp3907
(dp3908
I43
F0.4444444444444444
sI36
F0.4444444444444444
sI46
F0.1111111111111111
ss((I80
tp3909
(I65
tp3910
tp3911
(dp3912
I67
F0.5
sI79
F0.5
ss((I68
tp3913
(I82
tp3914
tp3915
(dp3916
I65
F0.5
sI77
F0.5
ss((I71
tp3917
(I68
tp3918
tp3919
(dp3920
I72
F0.25
sI68
F0.25
sI76
F0.25
sI70
F0.25
ss((I73
tp3921
(I56
tp3922
tp3923
(dp3924
I56
F0.3333333333333333
sI60
F0.3333333333333333
sI63
F0.3333333333333333
ss((I56
tp3925
(I60
tp3926
tp3927
(dp3928
I66
F0.09523809523809523
sI70
F0.047619047619047616
sI44
F0.047619047619047616
sI51
F0.19047619047619047
sI56
F0.2857142857142857
sI58
F0.23809523809523808
sI61
F0.09523809523809523
ss((I51
tp3929
(I58
tp3930
tp3931
(dp3932
I56
F0.625
sI44
F0.125
sI51
F0.0625
sI60
F0.1875
ss((I40
tp3933
(I41
tp3934
tp3935
(dp3936
I55
F1.0
ss((I60
tp3937
(I72
tp3938
tp3939
(dp3940
I65
F0.20833333333333334
sI67
F0.10416666666666667
sI70
F0.041666666666666664
sI72
F0.22916666666666666
sI41
F0.16666666666666666
sI53
F0.16666666666666666
sI58
F0.020833333333333332
sI60
F0.041666666666666664
sI62
F0.020833333333333332
ss((I70
tp3941
(I60
tp3942
tp3943
(dp3944
I64
F0.15151515151515152
sI65
F0.06060606060606061
sI67
F0.30303030303030304
sI68
F0.030303030303030304
sI70
F0.030303030303030304
sI72
F0.030303030303030304
sI75
F0.030303030303030304
sI55
F0.06060606060606061
sI58
F0.12121212121212122
sI60
F0.18181818181818182
ss((I61
tp3945
(I66
tp3946
tp3947
(dp3948
I66
F1.0
ss((I41
tp3949
(I31
tp3950
tp3951
(dp3952
I41
F0.5
sI29
F0.5
ss((I48
tp3953
(I55
tp3954
tp3955
(dp3956
I64
F0.14285714285714285
sI48
F0.09523809523809523
sI57
F0.3333333333333333
sI69
F0.3333333333333333
sI40
F0.09523809523809523
ss((I98
tp3957
(I62
tp3958
tp3959
(dp3960
I90
F1.0
ss((I70
tp3961
(I68
tp3962
tp3963
(dp3964
I64
F0.2777777777777778
sI66
F0.05555555555555555
sI67
F0.3333333333333333
sI60
F0.2777777777777778
sI79
F0.05555555555555555
ss((I34
tp3965
(I58
tp3966
tp3967
(dp3968
I65
F0.5
sI58
F0.5
ss((I57
tp3969
(I70
tp3970
tp3971
(dp3972
I62
F0.5
sI55
F0.5
ss((I61
tp3973
(I42
tp3974
tp3975
(dp3976
I49
F0.5
sI59
F0.5
ss((I31
tp3977
(I34
tp3978
tp3979
(dp3980
I34
F0.5031055900621118
sI46
F0.012422360248447204
sI31
F0.484472049689441
ss((I34
tp3981
(I65
tp3982
tp3983
(dp3984
I65
F0.5
sI58
F0.5
ss((I50
tp3985
(I39
tp3986
tp3987
(dp3988
I50
F0.09523809523809523
sI45
F0.09523809523809523
sI46
F0.47619047619047616
sI39
F0.3333333333333333
ss((I57
tp3989
(I53
tp3990
tp3991
(dp3992
I67
F0.16279069767441862
sI45
F0.2558139534883721
sI55
F0.23255813953488372
sI57
F0.2558139534883721
sI58
F0.046511627906976744
sI62
F0.046511627906976744
ss((I79
tp3993
(I72
tp3994
tp3995
(dp3996
I71
F1.0
ss((I59
tp3997
(I56
tp3998
tp3999
(dp4000
I42
F0.5
sI58
F0.5
ss((I56
tp4001
(I42
tp4002
tp4003
(dp4004
I58
F1.0
ss((I26
tp4005
(I33
tp4006
tp4007
(dp4008
I30
F1.0
ss((I70
tp4009
(I54
tp4010
tp4011
(dp4012
I66
F0.2
sI68
F0.1
sI70
F0.2
sI80
F0.1
sI54
F0.2
sI58
F0.2
ss((I34
tp4013
(I27
tp4014
tp4015
(dp4016
I15
F0.25
sI27
F0.5
sI39
F0.25
ss((I50
tp4017
(I36
tp4018
tp4019
(dp4020
I48
F1.0
ss((I79
tp4021
(I66
tp4022
tp4023
(dp4024
I80
F0.5
sI68
F0.5
ss((I86
tp4025
(I64
tp4026
tp4027
(dp4028
I97
F1.0
ss((I64
tp4029
(I56
tp4030
tp4031
(dp4032
I64
F0.125
sI66
F0.08333333333333333
sI56
F0.3333333333333333
sI58
F0.16666666666666666
sI60
F0.041666666666666664
sI61
F0.16666666666666666
sI63
F0.08333333333333333
ss((I88
tp4033
(I81
tp4034
tp4035
(dp4036
I85
F1.0
ss((I62
tp4037
(I72
tp4038
tp4039
(dp4040
I67
F0.3333333333333333
sI63
F0.6666666666666666
ss((I54
tp4041
(I66
tp4042
tp4043
(dp4044
I66
F0.2222222222222222
sI54
F0.2222222222222222
sI58
F0.2222222222222222
sI70
F0.2222222222222222
sI61
F0.1111111111111111
ss((I29
tp4045
(I22
tp4046
tp4047
(dp4048
I22
F1.0
ss((I62
tp4049
(I62
tp4050
tp4051
(dp4052
I64
F0.006244424620874219
sI65
F0.003568242640499554
sI66
F0.003568242640499554
sI67
F0.008920606601248885
sI69
F0.23728813559322035
sI70
F0.003568242640499554
sI74
F0.001784121320249777
sI75
F0.001784121320249777
sI49
F0.008920606601248885
sI50
F0.10615521855486174
sI55
F0.07582515611061552
sI57
F0.006244424620874219
sI58
F0.08206958073148975
sI38
F0.09812667261373774
sI60
F0.0053523639607493305
sI61
F0.008920606601248885
sI62
F0.31489741302408564
sI63
F0.026761819803746655
ss((I52
tp4053
(I48
tp4054
tp4055
(dp4056
I48
F0.4117647058823529
sI60
F0.4117647058823529
sI53
F0.17647058823529413
ss((I60
tp4057
(I65
tp4058
tp4059
(dp4060
I65
F0.2598870056497175
sI34
F0.04519774011299435
sI67
F0.03389830508474576
sI68
F0.05649717514124294
sI70
F0.005649717514124294
sI72
F0.06779661016949153
sI41
F0.04519774011299435
sI74
F0.005649717514124294
sI46
F0.04519774011299435
sI48
F0.01694915254237288
sI91
F0.011299435028248588
sI53
F0.06779661016949153
sI58
F0.062146892655367235
sI59
F0.011299435028248588
sI60
F0.192090395480226
sI62
F0.07344632768361582
ss((I69
tp4061
(I73
tp4062
tp4063
(dp4064
I71
F1.0
ss((I65
tp4065
(I79
tp4066
tp4067
(dp4068
I65
F0.14285714285714285
sI67
F0.14285714285714285
sI68
F0.14285714285714285
sI70
F0.14285714285714285
sI79
F0.14285714285714285
sI80
F0.14285714285714285
sI62
F0.14285714285714285
ss((I66
tp4069
(I56
tp4070
tp4071
(dp4072
I56
F0.2857142857142857
sI60
F0.2857142857142857
sI68
F0.14285714285714285
sI63
F0.2857142857142857
ss((I43
tp4073
(I29
tp4074
tp4075
(dp4076
I41
F0.5
sI29
F0.5
ss((I65
tp4077
(I53
tp4078
tp4079
(dp4080
I64
F0.14583333333333334
sI65
F0.3333333333333333
sI70
F0.020833333333333332
sI72
F0.3333333333333333
sI52
F0.14583333333333334
sI63
F0.020833333333333332
ss((I53
tp4081
(I67
tp4082
tp4083
(dp4084
I72
F0.36363636363636365
sI65
F0.5454545454545454
sI70
F0.09090909090909091
ss((I65
tp4085
(I60
tp4086
tp4087
(dp4088
I64
F0.028735632183908046
sI65
F0.25862068965517243
sI66
F0.011494252873563218
sI67
F0.10919540229885058
sI68
F0.05172413793103448
sI70
F0.028735632183908046
sI72
F0.017241379310344827
sI48
F0.04597701149425287
sI81
F0.005747126436781609
sI86
F0.005747126436781609
sI55
F0.034482758620689655
sI36
F0.04597701149425287
sI58
F0.06321839080459771
sI60
F0.25287356321839083
sI62
F0.028735632183908046
sI63
F0.011494252873563218
ss((I50
tp4089
(I69
tp4090
tp4091
(dp4092
I69
F0.5
sI62
F0.5
ss((I66
tp4093
(I65
tp4094
tp4095
(dp4096
I65
F0.06666666666666667
sI66
F0.13333333333333333
sI68
F0.06666666666666667
sI70
F0.06666666666666667
sI80
F0.06666666666666667
sI54
F0.06666666666666667
sI56
F0.06666666666666667
sI58
F0.06666666666666667
sI60
F0.13333333333333333
sI63
F0.26666666666666666
ss((I52
tp4097
(I58
tp4098
tp4099
(dp4100
I60
F0.1688888888888889
sI58
F0.16444444444444445
sI52
F0.1688888888888889
sI50
F0.16444444444444445
sI55
F0.3333333333333333
ss((I55
tp4101
(I41
tp4102
tp4103
(dp4104
I41
F0.5
sI50
F0.5
ss((I81
tp4105
(I89
tp4106
tp4107
(dp4108
I81
F0.5714285714285714
sI69
F0.42857142857142855
ss((I62
tp4109
(I68
tp4110
tp4111
(dp4112
I64
F0.23809523809523808
sI66
F0.09523809523809523
sI67
F0.23809523809523808
sI58
F0.09523809523809523
sI60
F0.23809523809523808
sI63
F0.09523809523809523
ss((I34
tp4113
(I46
tp4114
tp4115
(dp4116
I33
F0.5
sI45
F0.5
ss((I39
tp4117
(I29
tp4118
tp4119
(dp4120
I39
F0.24509803921568626
sI41
F0.2647058823529412
sI43
F0.0196078431372549
sI27
F0.22549019607843138
sI29
F0.22549019607843138
sI31
F0.0196078431372549
ss((I98
tp4121
(I95
tp4122
tp4123
(dp4124
I93
F1.0
ss((I56
tp4125
(I72
tp4126
tp4127
(dp4128
I58
F0.25
sI82
F0.25
sI70
F0.5
ss((I69
tp4129
(I69
tp4130
tp4131
(dp4132
I64
F0.0007633587786259542
sI33
F0.00916030534351145
sI67
F0.11603053435114503
sI69
F0.3748091603053435
sI38
F0.09618320610687023
sI71
F0.0061068702290076335
sI74
F0.0030534351145038168
sI43
F0.02748091603053435
sI45
F0.00916030534351145
sI50
F0.10305343511450382
sI61
F0.0022900763358778627
sI62
F0.22442748091603054
sI31
F0.02748091603053435
ss((I78
tp4133
(I73
tp4134
tp4135
(dp4136
I70
F1.0
ss((I85
tp4137
(I64
tp4138
tp4139
(dp4140
I65
F0.3333333333333333
sI69
F0.3333333333333333
sI62
F0.3333333333333333
ss((I41
tp4141
(I34
tp4142
tp4143
(dp4144
I34
F0.038461538461538464
sI36
F0.3076923076923077
sI38
F0.19230769230769232
sI43
F0.07692307692307693
sI24
F0.3076923076923077
sI31
F0.07692307692307693
ss((I98
tp4145
(I69
tp4146
tp4147
(dp4148
I90
F1.0
ss((I37
tp4149
(I29
tp4150
tp4151
(dp4152
I34
F0.5
sI46
F0.5
ss((I38
tp4153
(I43
tp4154
tp4155
(dp4156
I41
F1.0
ss((I93
tp4157
(I89
tp4158
tp4159
(dp4160
I91
F1.0
ss((I68
tp4161
(I76
tp4162
tp4163
(dp4164
I73
F0.6666666666666666
sI71
F0.3333333333333333
ss((I84
tp4165
(I72
tp4166
tp4167
(dp4168
I82
F0.5
sI70
F0.5
ss((I64
tp4169
(I61
tp4170
tp4171
(dp4172
I64
F0.021739130434782608
sI45
F0.08695652173913043
sI50
F0.21739130434782608
sI56
F0.2608695652173913
sI60
F0.021739130434782608
sI61
F0.08695652173913043
sI62
F0.21739130434782608
sI63
F0.08695652173913043
ss((I39
tp4173
(I31
tp4174
tp4175
(dp4176
I27
F0.5
sI39
F0.5
ss((I67
tp4177
(I82
tp4178
tp4179
(dp4180
I80
F0.5
sI68
F0.5
ss((I50
tp4181
(I45
tp4182
tp4183
(dp4184
I50
F0.48148148148148145
sI43
F0.1111111111111111
sI45
F0.37037037037037035
sI46
F0.037037037037037035
ss((I86
tp4185
(I84
tp4186
tp4187
(dp4188
I88
F1.0
ss((I91
tp4189
(I67
tp4190
tp4191
(dp4192
I89
F1.0
ss((I64
tp4193
(I57
tp4194
tp4195
(dp4196
I64
F0.25301204819277107
sI33
F0.1566265060240964
sI45
F0.1927710843373494
sI48
F0.04216867469879518
sI49
F0.030120481927710843
sI57
F0.25301204819277107
sI60
F0.04216867469879518
sI61
F0.030120481927710843
ss((I58
tp4197
(I46
tp4198
tp4199
(dp4200
I65
F0.46511627906976744
sI58
F0.4883720930232558
sI53
F0.046511627906976744
ss((I27
tp4201
(I38
tp4202
tp4203
(dp4204
I27
F0.5
sI39
F0.5
ss((I39
tp4205
(I50
tp4206
tp4207
(dp4208
I50
F0.2222222222222222
sI51
F0.1111111111111111
sI45
F0.2222222222222222
sI46
F0.2222222222222222
sI39
F0.2222222222222222
ss((I51
tp4209
(I41
tp4210
tp4211
(dp4212
I48
F0.375
sI41
F0.375
sI53
F0.125
sI46
F0.125
ss((I64
tp4213
(I70
tp4214
tp4215
(dp4216
I96
F0.043478260869565216
sI65
F0.2608695652173913
sI67
F0.043478260869565216
sI68
F0.2608695652173913
sI88
F0.043478260869565216
sI60
F0.2608695652173913
sI61
F0.08695652173913043
ss((I49
tp4217
(I57
tp4218
tp4219
(dp4220
I57
F0.4166666666666667
sI45
F0.5833333333333334
ss((I70
tp4221
(I73
tp4222
tp4223
(dp4224
I72
F0.6
sI69
F0.2
sI70
F0.2
ss((I41
tp4225
(I65
tp4226
tp4227
(dp4228
I72
F0.5
sI65
F0.5
ss((I64
tp4229
(I50
tp4230
tp4231
(dp4232
I64
F0.25
sI57
F0.25
sI62
F0.5
ss((I28
tp4233
(I40
tp4234
tp4235
(dp4236
I36
F1.0
ss((I84
tp4237
(I69
tp4238
tp4239
(dp4240
I65
F1.0
ss((I29
tp4241
(I29
tp4242
tp4243
(dp4244
I41
F0.30113636363636365
sI43
F0.0625
sI17
F0.13636363636363635
sI29
F0.4375
sI31
F0.0625
ss((I59
tp4245
(I54
tp4246
tp4247
(dp4248
I58
F1.0
ss((I29
tp4249
(I31
tp4250
tp4251
(dp4252
I41
F0.5
sI29
F0.5
ss((I36
tp4253
(I38
tp4254
tp4255
(dp4256
I34
F0.00819672131147541
sI36
F0.6721311475409836
sI38
F0.319672131147541
ss((I67
tp4257
(I50
tp4258
tp4259
(dp4260
I67
F0.5
sI69
F0.5
ss((I53
tp4261
(I58
tp4262
tp4263
(dp4264
I65
F0.020833333333333332
sI66
F0.020833333333333332
sI77
F0.0625
sI82
F0.0625
sI53
F0.041666666666666664
sI55
F0.0625
sI57
F0.375
sI58
F0.3541666666666667
ss((I80
tp4265
(I54
tp4266
tp4267
(dp4268
I58
F0.25
sI70
F0.25
sI66
F0.25
sI54
F0.25
ss((I69
tp4269
(I31
tp4270
tp4271
(dp4272
I67
F0.3333333333333333
sI69
F0.5
sI62
F0.16666666666666666
ss((I36
tp4273
(I46
tp4274
tp4275
(dp4276
I34
F0.08333333333333333
sI67
F0.3333333333333333
sI36
F0.08333333333333333
sI46
F0.08333333333333333
sI48
F0.08333333333333333
sI60
F0.3333333333333333
ss((I58
tp4277
(I66
tp4278
tp4279
(dp4280
I65
F0.09090909090909091
sI66
F0.11363636363636363
sI70
F0.09090909090909091
sI42
F0.022727272727272728
sI49
F0.022727272727272728
sI74
F0.022727272727272728
sI53
F0.022727272727272728
sI54
F0.045454545454545456
sI58
F0.25
sI60
F0.022727272727272728
sI61
F0.06818181818181818
sI62
F0.06818181818181818
sI63
F0.1590909090909091
ss((I77
tp4281
(I74
tp4282
tp4283
(dp4284
I65
F1.0
ss((I82
tp4285
(I53
tp4286
tp4287
(dp4288
I58
F0.5
sI53
F0.5
ss((I29
tp4289
(I15
tp4290
tp4291
(dp4292
I17
F0.25
sI27
F0.25
sI29
F0.25
sI15
F0.25
ss((I74
tp4293
(I68
tp4294
tp4295
(dp4296
I75
F0.5
sI71
F0.5
ss((I33
tp4297
(I57
tp4298
tp4299
(dp4300
I64
F0.4605263157894737
sI57
F0.4605263157894737
sI45
F0.07894736842105263
sssS'mode'
p4301
I2
sS'before'
p4302
I1
sb.